ARM GAS  C:\Users\MadeuxS\AppData\Local\Temp\ccAPGHhR.s 			page 1


   1              		.cpu cortex-m7
   2              		.eabi_attribute 28, 1
   3              		.eabi_attribute 23, 1
   4              		.eabi_attribute 24, 1
   5              		.eabi_attribute 25, 1
   6              		.eabi_attribute 26, 1
   7              		.eabi_attribute 30, 2
   8              		.eabi_attribute 34, 1
   9              		.eabi_attribute 18, 4
  10              		.file	"stm32h7xx_hal_flash_ex.c"
  11              		.text
  12              	.Ltext0:
  13              		.cfi_sections	.debug_frame
  14              		.section	.text.FLASH_MassErase,"ax",%progbits
  15              		.align	1
  16              		.p2align 2,,3
  17              		.arch armv7e-m
  18              		.syntax unified
  19              		.thumb
  20              		.thumb_func
  21              		.fpu fpv5-d16
  23              	FLASH_MassErase:
  24              	.LVL0:
  25              	.LFB153:
  26              		.file 1 "Drivers/STM32H7xx_HAL_Driver/Src/stm32h7xx_hal_flash_ex.c"
   1:Drivers/STM32H7xx_HAL_Driver/Src/stm32h7xx_hal_flash_ex.c **** /**
   2:Drivers/STM32H7xx_HAL_Driver/Src/stm32h7xx_hal_flash_ex.c ****   ******************************************************************************
   3:Drivers/STM32H7xx_HAL_Driver/Src/stm32h7xx_hal_flash_ex.c ****   * @file    stm32h7xx_hal_flash_ex.c
   4:Drivers/STM32H7xx_HAL_Driver/Src/stm32h7xx_hal_flash_ex.c ****   * @author  MCD Application Team
   5:Drivers/STM32H7xx_HAL_Driver/Src/stm32h7xx_hal_flash_ex.c ****   * @brief   Extended FLASH HAL module driver.
   6:Drivers/STM32H7xx_HAL_Driver/Src/stm32h7xx_hal_flash_ex.c ****   *          This file provides firmware functions to manage the following
   7:Drivers/STM32H7xx_HAL_Driver/Src/stm32h7xx_hal_flash_ex.c ****   *          functionalities of the FLASH extension peripheral:
   8:Drivers/STM32H7xx_HAL_Driver/Src/stm32h7xx_hal_flash_ex.c ****   *           + Extended programming operations functions
   9:Drivers/STM32H7xx_HAL_Driver/Src/stm32h7xx_hal_flash_ex.c ****   *
  10:Drivers/STM32H7xx_HAL_Driver/Src/stm32h7xx_hal_flash_ex.c ****  @verbatim
  11:Drivers/STM32H7xx_HAL_Driver/Src/stm32h7xx_hal_flash_ex.c ****  ==============================================================================
  12:Drivers/STM32H7xx_HAL_Driver/Src/stm32h7xx_hal_flash_ex.c ****                    ##### Flash Extension features #####
  13:Drivers/STM32H7xx_HAL_Driver/Src/stm32h7xx_hal_flash_ex.c ****   ==============================================================================
  14:Drivers/STM32H7xx_HAL_Driver/Src/stm32h7xx_hal_flash_ex.c **** 
  15:Drivers/STM32H7xx_HAL_Driver/Src/stm32h7xx_hal_flash_ex.c ****   [..] Comparing to other previous devices, the FLASH interface for STM32H7xx
  16:Drivers/STM32H7xx_HAL_Driver/Src/stm32h7xx_hal_flash_ex.c ****        devices contains the following additional features
  17:Drivers/STM32H7xx_HAL_Driver/Src/stm32h7xx_hal_flash_ex.c **** 
  18:Drivers/STM32H7xx_HAL_Driver/Src/stm32h7xx_hal_flash_ex.c ****        (+) Capacity up to 2 Mbyte with dual bank architecture supporting read-while-write
  19:Drivers/STM32H7xx_HAL_Driver/Src/stm32h7xx_hal_flash_ex.c ****            capability (RWW)
  20:Drivers/STM32H7xx_HAL_Driver/Src/stm32h7xx_hal_flash_ex.c ****        (+) Dual bank memory organization
  21:Drivers/STM32H7xx_HAL_Driver/Src/stm32h7xx_hal_flash_ex.c ****        (+) PCROP protection for all banks
  22:Drivers/STM32H7xx_HAL_Driver/Src/stm32h7xx_hal_flash_ex.c ****        (+) Global readout protection (RDP)
  23:Drivers/STM32H7xx_HAL_Driver/Src/stm32h7xx_hal_flash_ex.c ****        (+) Write protection
  24:Drivers/STM32H7xx_HAL_Driver/Src/stm32h7xx_hal_flash_ex.c ****        (+) Secure access only protection
  25:Drivers/STM32H7xx_HAL_Driver/Src/stm32h7xx_hal_flash_ex.c ****        (+) Bank / register swapping (when Dual-Bank)
  26:Drivers/STM32H7xx_HAL_Driver/Src/stm32h7xx_hal_flash_ex.c ****        (+) Cyclic Redundancy Check (CRC)
  27:Drivers/STM32H7xx_HAL_Driver/Src/stm32h7xx_hal_flash_ex.c **** 
  28:Drivers/STM32H7xx_HAL_Driver/Src/stm32h7xx_hal_flash_ex.c ****                         ##### How to use this driver #####
  29:Drivers/STM32H7xx_HAL_Driver/Src/stm32h7xx_hal_flash_ex.c ****  ==============================================================================
  30:Drivers/STM32H7xx_HAL_Driver/Src/stm32h7xx_hal_flash_ex.c ****   [..] This driver provides functions to configure and program the FLASH memory
  31:Drivers/STM32H7xx_HAL_Driver/Src/stm32h7xx_hal_flash_ex.c ****        of all STM32H7xx devices. It includes
  32:Drivers/STM32H7xx_HAL_Driver/Src/stm32h7xx_hal_flash_ex.c ****       (#) FLASH Memory Erase functions:
ARM GAS  C:\Users\MadeuxS\AppData\Local\Temp\ccAPGHhR.s 			page 2


  33:Drivers/STM32H7xx_HAL_Driver/Src/stm32h7xx_hal_flash_ex.c ****            (++) Lock and Unlock the FLASH interface using HAL_FLASH_Unlock() and
  34:Drivers/STM32H7xx_HAL_Driver/Src/stm32h7xx_hal_flash_ex.c ****                 HAL_FLASH_Lock() functions
  35:Drivers/STM32H7xx_HAL_Driver/Src/stm32h7xx_hal_flash_ex.c ****            (++) Erase function: Sector erase, bank erase and dual-bank mass erase
  36:Drivers/STM32H7xx_HAL_Driver/Src/stm32h7xx_hal_flash_ex.c ****            (++) There are two modes of erase :
  37:Drivers/STM32H7xx_HAL_Driver/Src/stm32h7xx_hal_flash_ex.c ****              (+++) Polling Mode using HAL_FLASHEx_Erase()
  38:Drivers/STM32H7xx_HAL_Driver/Src/stm32h7xx_hal_flash_ex.c ****              (+++) Interrupt Mode using HAL_FLASHEx_Erase_IT()
  39:Drivers/STM32H7xx_HAL_Driver/Src/stm32h7xx_hal_flash_ex.c **** 
  40:Drivers/STM32H7xx_HAL_Driver/Src/stm32h7xx_hal_flash_ex.c ****       (#) Option Bytes Programming functions: Use HAL_FLASHEx_OBProgram() to:
  41:Drivers/STM32H7xx_HAL_Driver/Src/stm32h7xx_hal_flash_ex.c ****         (++) Set/Reset the write protection per bank
  42:Drivers/STM32H7xx_HAL_Driver/Src/stm32h7xx_hal_flash_ex.c ****         (++) Set the Read protection Level
  43:Drivers/STM32H7xx_HAL_Driver/Src/stm32h7xx_hal_flash_ex.c ****         (++) Set the BOR level
  44:Drivers/STM32H7xx_HAL_Driver/Src/stm32h7xx_hal_flash_ex.c ****         (++) Program the user Option Bytes
  45:Drivers/STM32H7xx_HAL_Driver/Src/stm32h7xx_hal_flash_ex.c ****         (++) PCROP protection configuration and control per bank
  46:Drivers/STM32H7xx_HAL_Driver/Src/stm32h7xx_hal_flash_ex.c ****         (++) Secure area configuration and control per bank
  47:Drivers/STM32H7xx_HAL_Driver/Src/stm32h7xx_hal_flash_ex.c ****         (++) Core Boot address configuration
  48:Drivers/STM32H7xx_HAL_Driver/Src/stm32h7xx_hal_flash_ex.c ****         (++) TCM / AXI shared RAM configuration
  49:Drivers/STM32H7xx_HAL_Driver/Src/stm32h7xx_hal_flash_ex.c ****         (++) CPU Frequency Boost configuration
  50:Drivers/STM32H7xx_HAL_Driver/Src/stm32h7xx_hal_flash_ex.c **** 
  51:Drivers/STM32H7xx_HAL_Driver/Src/stm32h7xx_hal_flash_ex.c ****       (#) FLASH Memory Lock and unlock per Bank: HAL_FLASHEx_Lock_Bank1(), HAL_FLASHEx_Unlock_Bank1
  52:Drivers/STM32H7xx_HAL_Driver/Src/stm32h7xx_hal_flash_ex.c ****           HAL_FLASHEx_Lock_Bank2() and HAL_FLASHEx_Unlock_Bank2() functions
  53:Drivers/STM32H7xx_HAL_Driver/Src/stm32h7xx_hal_flash_ex.c **** 
  54:Drivers/STM32H7xx_HAL_Driver/Src/stm32h7xx_hal_flash_ex.c ****       (#) FLASH CRC computation function: Use HAL_FLASHEx_ComputeCRC() to:
  55:Drivers/STM32H7xx_HAL_Driver/Src/stm32h7xx_hal_flash_ex.c ****           (++) Enable CRC feature
  56:Drivers/STM32H7xx_HAL_Driver/Src/stm32h7xx_hal_flash_ex.c ****           (++) Program the desired burst size
  57:Drivers/STM32H7xx_HAL_Driver/Src/stm32h7xx_hal_flash_ex.c ****           (++) Define the user Flash Area on which the CRC has be computed
  58:Drivers/STM32H7xx_HAL_Driver/Src/stm32h7xx_hal_flash_ex.c ****           (++) Perform the CRC computation
  59:Drivers/STM32H7xx_HAL_Driver/Src/stm32h7xx_hal_flash_ex.c ****           (++) Disable CRC feature
  60:Drivers/STM32H7xx_HAL_Driver/Src/stm32h7xx_hal_flash_ex.c **** 
  61:Drivers/STM32H7xx_HAL_Driver/Src/stm32h7xx_hal_flash_ex.c ****  @endverbatim
  62:Drivers/STM32H7xx_HAL_Driver/Src/stm32h7xx_hal_flash_ex.c ****   ******************************************************************************
  63:Drivers/STM32H7xx_HAL_Driver/Src/stm32h7xx_hal_flash_ex.c ****   * @attention
  64:Drivers/STM32H7xx_HAL_Driver/Src/stm32h7xx_hal_flash_ex.c ****   *
  65:Drivers/STM32H7xx_HAL_Driver/Src/stm32h7xx_hal_flash_ex.c ****   * <h2><center>&copy; COPYRIGHT(c) 2017 STMicroelectronics.
  66:Drivers/STM32H7xx_HAL_Driver/Src/stm32h7xx_hal_flash_ex.c ****   * All rights reserved.</center></h2>
  67:Drivers/STM32H7xx_HAL_Driver/Src/stm32h7xx_hal_flash_ex.c ****   *
  68:Drivers/STM32H7xx_HAL_Driver/Src/stm32h7xx_hal_flash_ex.c ****   * This software component is licensed by ST under BSD 3-Clause license,
  69:Drivers/STM32H7xx_HAL_Driver/Src/stm32h7xx_hal_flash_ex.c ****   * the "License"; You may not use this file except in compliance with the
  70:Drivers/STM32H7xx_HAL_Driver/Src/stm32h7xx_hal_flash_ex.c ****   * License. You may obtain a copy of the License at:
  71:Drivers/STM32H7xx_HAL_Driver/Src/stm32h7xx_hal_flash_ex.c ****   *                       opensource.org/licenses/BSD-3-Clause
  72:Drivers/STM32H7xx_HAL_Driver/Src/stm32h7xx_hal_flash_ex.c ****   *
  73:Drivers/STM32H7xx_HAL_Driver/Src/stm32h7xx_hal_flash_ex.c ****   ******************************************************************************
  74:Drivers/STM32H7xx_HAL_Driver/Src/stm32h7xx_hal_flash_ex.c ****   */
  75:Drivers/STM32H7xx_HAL_Driver/Src/stm32h7xx_hal_flash_ex.c **** 
  76:Drivers/STM32H7xx_HAL_Driver/Src/stm32h7xx_hal_flash_ex.c **** /* Includes ------------------------------------------------------------------*/
  77:Drivers/STM32H7xx_HAL_Driver/Src/stm32h7xx_hal_flash_ex.c **** #include "stm32h7xx_hal.h"
  78:Drivers/STM32H7xx_HAL_Driver/Src/stm32h7xx_hal_flash_ex.c **** 
  79:Drivers/STM32H7xx_HAL_Driver/Src/stm32h7xx_hal_flash_ex.c **** /** @addtogroup STM32H7xx_HAL_Driver
  80:Drivers/STM32H7xx_HAL_Driver/Src/stm32h7xx_hal_flash_ex.c ****   * @{
  81:Drivers/STM32H7xx_HAL_Driver/Src/stm32h7xx_hal_flash_ex.c ****   */
  82:Drivers/STM32H7xx_HAL_Driver/Src/stm32h7xx_hal_flash_ex.c **** 
  83:Drivers/STM32H7xx_HAL_Driver/Src/stm32h7xx_hal_flash_ex.c **** /** @defgroup FLASHEx  FLASHEx
  84:Drivers/STM32H7xx_HAL_Driver/Src/stm32h7xx_hal_flash_ex.c ****   * @brief FLASH HAL Extension module driver
  85:Drivers/STM32H7xx_HAL_Driver/Src/stm32h7xx_hal_flash_ex.c ****   * @{
  86:Drivers/STM32H7xx_HAL_Driver/Src/stm32h7xx_hal_flash_ex.c ****   */
  87:Drivers/STM32H7xx_HAL_Driver/Src/stm32h7xx_hal_flash_ex.c **** 
  88:Drivers/STM32H7xx_HAL_Driver/Src/stm32h7xx_hal_flash_ex.c **** #ifdef HAL_FLASH_MODULE_ENABLED
  89:Drivers/STM32H7xx_HAL_Driver/Src/stm32h7xx_hal_flash_ex.c **** 
ARM GAS  C:\Users\MadeuxS\AppData\Local\Temp\ccAPGHhR.s 			page 3


  90:Drivers/STM32H7xx_HAL_Driver/Src/stm32h7xx_hal_flash_ex.c **** /* Private typedef -----------------------------------------------------------*/
  91:Drivers/STM32H7xx_HAL_Driver/Src/stm32h7xx_hal_flash_ex.c **** /* Private define ------------------------------------------------------------*/
  92:Drivers/STM32H7xx_HAL_Driver/Src/stm32h7xx_hal_flash_ex.c **** /** @addtogroup FLASHEx_Private_Constants
  93:Drivers/STM32H7xx_HAL_Driver/Src/stm32h7xx_hal_flash_ex.c ****   * @{
  94:Drivers/STM32H7xx_HAL_Driver/Src/stm32h7xx_hal_flash_ex.c ****   */
  95:Drivers/STM32H7xx_HAL_Driver/Src/stm32h7xx_hal_flash_ex.c **** #define FLASH_TIMEOUT_VALUE       50000U /* 50 s */
  96:Drivers/STM32H7xx_HAL_Driver/Src/stm32h7xx_hal_flash_ex.c **** 
  97:Drivers/STM32H7xx_HAL_Driver/Src/stm32h7xx_hal_flash_ex.c **** /**
  98:Drivers/STM32H7xx_HAL_Driver/Src/stm32h7xx_hal_flash_ex.c ****   * @}
  99:Drivers/STM32H7xx_HAL_Driver/Src/stm32h7xx_hal_flash_ex.c ****   */
 100:Drivers/STM32H7xx_HAL_Driver/Src/stm32h7xx_hal_flash_ex.c **** /* Private macro -------------------------------------------------------------*/
 101:Drivers/STM32H7xx_HAL_Driver/Src/stm32h7xx_hal_flash_ex.c **** /* Private variables ---------------------------------------------------------*/
 102:Drivers/STM32H7xx_HAL_Driver/Src/stm32h7xx_hal_flash_ex.c **** /* Private function prototypes -----------------------------------------------*/
 103:Drivers/STM32H7xx_HAL_Driver/Src/stm32h7xx_hal_flash_ex.c **** /** @defgroup FLASHEx_Private_Functions FLASHEx Private Functions
 104:Drivers/STM32H7xx_HAL_Driver/Src/stm32h7xx_hal_flash_ex.c ****   * @{
 105:Drivers/STM32H7xx_HAL_Driver/Src/stm32h7xx_hal_flash_ex.c ****   */
 106:Drivers/STM32H7xx_HAL_Driver/Src/stm32h7xx_hal_flash_ex.c **** static void FLASH_MassErase(uint32_t VoltageRange, uint32_t Banks);
 107:Drivers/STM32H7xx_HAL_Driver/Src/stm32h7xx_hal_flash_ex.c **** static void FLASH_OB_EnableWRP(uint32_t WRPSector, uint32_t Banks);
 108:Drivers/STM32H7xx_HAL_Driver/Src/stm32h7xx_hal_flash_ex.c **** static void FLASH_OB_DisableWRP(uint32_t WRPSector, uint32_t Bank);
 109:Drivers/STM32H7xx_HAL_Driver/Src/stm32h7xx_hal_flash_ex.c **** static void FLASH_OB_GetWRP(uint32_t *WRPState, uint32_t *WRPSector, uint32_t Bank);
 110:Drivers/STM32H7xx_HAL_Driver/Src/stm32h7xx_hal_flash_ex.c **** static void FLASH_OB_RDPConfig(uint32_t RDPLevel);
 111:Drivers/STM32H7xx_HAL_Driver/Src/stm32h7xx_hal_flash_ex.c **** static uint32_t FLASH_OB_GetRDP(void);
 112:Drivers/STM32H7xx_HAL_Driver/Src/stm32h7xx_hal_flash_ex.c **** static void FLASH_OB_PCROPConfig(uint32_t PCROConfigRDP, uint32_t PCROPStartAddr, uint32_t PCROPEnd
 113:Drivers/STM32H7xx_HAL_Driver/Src/stm32h7xx_hal_flash_ex.c **** static void FLASH_OB_GetPCROP(uint32_t *PCROPConfig, uint32_t *PCROPStartAddr,uint32_t *PCROPEndAdd
 114:Drivers/STM32H7xx_HAL_Driver/Src/stm32h7xx_hal_flash_ex.c **** static void FLASH_OB_BOR_LevelConfig(uint32_t Level);
 115:Drivers/STM32H7xx_HAL_Driver/Src/stm32h7xx_hal_flash_ex.c **** static uint32_t FLASH_OB_GetBOR(void);
 116:Drivers/STM32H7xx_HAL_Driver/Src/stm32h7xx_hal_flash_ex.c **** static void FLASH_OB_UserConfig(uint32_t UserType, uint32_t UserConfig);
 117:Drivers/STM32H7xx_HAL_Driver/Src/stm32h7xx_hal_flash_ex.c **** static uint32_t FLASH_OB_GetUser(void);
 118:Drivers/STM32H7xx_HAL_Driver/Src/stm32h7xx_hal_flash_ex.c **** static void FLASH_OB_BootAddConfig(uint32_t BootOption, uint32_t BootAddress0, uint32_t BootAddress
 119:Drivers/STM32H7xx_HAL_Driver/Src/stm32h7xx_hal_flash_ex.c **** static void FLASH_OB_GetBootAdd(uint32_t *BootAddress0, uint32_t *BootAddress1);
 120:Drivers/STM32H7xx_HAL_Driver/Src/stm32h7xx_hal_flash_ex.c **** static void FLASH_OB_SecureAreaConfig(uint32_t SecureAreaConfig, uint32_t SecureAreaStartAddr, uint
 121:Drivers/STM32H7xx_HAL_Driver/Src/stm32h7xx_hal_flash_ex.c **** static void FLASH_OB_GetSecureArea(uint32_t *SecureAreaConfig, uint32_t *SecureAreaStartAddr, uint3
 122:Drivers/STM32H7xx_HAL_Driver/Src/stm32h7xx_hal_flash_ex.c **** static void FLASH_CRC_AddSector(uint32_t Sector, uint32_t Bank);
 123:Drivers/STM32H7xx_HAL_Driver/Src/stm32h7xx_hal_flash_ex.c **** static void FLASH_CRC_SelectAddress(uint32_t CRCStartAddr, uint32_t CRCEndAddr, uint32_t Bank);
 124:Drivers/STM32H7xx_HAL_Driver/Src/stm32h7xx_hal_flash_ex.c **** 
 125:Drivers/STM32H7xx_HAL_Driver/Src/stm32h7xx_hal_flash_ex.c **** #if defined (DUAL_CORE)
 126:Drivers/STM32H7xx_HAL_Driver/Src/stm32h7xx_hal_flash_ex.c **** static void FLASH_OB_CM4BootAddConfig(uint32_t BootOption, uint32_t BootAddress0, uint32_t BootAddr
 127:Drivers/STM32H7xx_HAL_Driver/Src/stm32h7xx_hal_flash_ex.c **** static void FLASH_OB_GetCM4BootAdd(uint32_t *BootAddress0, uint32_t *BootAddress1);
 128:Drivers/STM32H7xx_HAL_Driver/Src/stm32h7xx_hal_flash_ex.c **** #endif /*DUAL_CORE*/
 129:Drivers/STM32H7xx_HAL_Driver/Src/stm32h7xx_hal_flash_ex.c **** 
 130:Drivers/STM32H7xx_HAL_Driver/Src/stm32h7xx_hal_flash_ex.c **** #if defined (FLASH_OTPBL_LOCKBL)
 131:Drivers/STM32H7xx_HAL_Driver/Src/stm32h7xx_hal_flash_ex.c **** static void FLASH_OB_OTP_LockConfig(uint32_t OTP_Block);
 132:Drivers/STM32H7xx_HAL_Driver/Src/stm32h7xx_hal_flash_ex.c **** static uint32_t FLASH_OB_OTP_GetLock(void);
 133:Drivers/STM32H7xx_HAL_Driver/Src/stm32h7xx_hal_flash_ex.c **** #endif /* FLASH_OTPBL_LOCKBL */
 134:Drivers/STM32H7xx_HAL_Driver/Src/stm32h7xx_hal_flash_ex.c **** 
 135:Drivers/STM32H7xx_HAL_Driver/Src/stm32h7xx_hal_flash_ex.c **** #if defined (FLASH_OPTSR2_TCM_AXI_SHARED)
 136:Drivers/STM32H7xx_HAL_Driver/Src/stm32h7xx_hal_flash_ex.c **** static void FLASH_OB_SharedRAM_Config(uint32_t SharedRamConfig);
 137:Drivers/STM32H7xx_HAL_Driver/Src/stm32h7xx_hal_flash_ex.c **** static uint32_t FLASH_OB_SharedRAM_GetConfig(void);
 138:Drivers/STM32H7xx_HAL_Driver/Src/stm32h7xx_hal_flash_ex.c **** #endif /* FLASH_OPTSR2_TCM_AXI_SHARED */
 139:Drivers/STM32H7xx_HAL_Driver/Src/stm32h7xx_hal_flash_ex.c **** 
 140:Drivers/STM32H7xx_HAL_Driver/Src/stm32h7xx_hal_flash_ex.c **** #if defined (FLASH_OPTSR2_CPUFREQ_BOOST)
 141:Drivers/STM32H7xx_HAL_Driver/Src/stm32h7xx_hal_flash_ex.c **** static void FLASH_OB_CPUFreq_BoostConfig(uint32_t FreqBoost);
 142:Drivers/STM32H7xx_HAL_Driver/Src/stm32h7xx_hal_flash_ex.c **** static uint32_t FLASH_OB_CPUFreq_GetBoost(void);
 143:Drivers/STM32H7xx_HAL_Driver/Src/stm32h7xx_hal_flash_ex.c **** #endif /* FLASH_OPTSR2_CPUFREQ_BOOST */
 144:Drivers/STM32H7xx_HAL_Driver/Src/stm32h7xx_hal_flash_ex.c **** /**
 145:Drivers/STM32H7xx_HAL_Driver/Src/stm32h7xx_hal_flash_ex.c ****   * @}
 146:Drivers/STM32H7xx_HAL_Driver/Src/stm32h7xx_hal_flash_ex.c ****   */
ARM GAS  C:\Users\MadeuxS\AppData\Local\Temp\ccAPGHhR.s 			page 4


 147:Drivers/STM32H7xx_HAL_Driver/Src/stm32h7xx_hal_flash_ex.c **** 
 148:Drivers/STM32H7xx_HAL_Driver/Src/stm32h7xx_hal_flash_ex.c **** /* Exported functions ---------------------------------------------------------*/
 149:Drivers/STM32H7xx_HAL_Driver/Src/stm32h7xx_hal_flash_ex.c **** /** @defgroup FLASHEx_Exported_Functions FLASHEx Exported Functions
 150:Drivers/STM32H7xx_HAL_Driver/Src/stm32h7xx_hal_flash_ex.c ****   * @{
 151:Drivers/STM32H7xx_HAL_Driver/Src/stm32h7xx_hal_flash_ex.c ****   */
 152:Drivers/STM32H7xx_HAL_Driver/Src/stm32h7xx_hal_flash_ex.c **** 
 153:Drivers/STM32H7xx_HAL_Driver/Src/stm32h7xx_hal_flash_ex.c **** /** @defgroup FLASHEx_Exported_Functions_Group1 Extended IO operation functions
 154:Drivers/STM32H7xx_HAL_Driver/Src/stm32h7xx_hal_flash_ex.c ****  *  @brief   Extended IO operation functions
 155:Drivers/STM32H7xx_HAL_Driver/Src/stm32h7xx_hal_flash_ex.c ****  *
 156:Drivers/STM32H7xx_HAL_Driver/Src/stm32h7xx_hal_flash_ex.c **** @verbatim
 157:Drivers/STM32H7xx_HAL_Driver/Src/stm32h7xx_hal_flash_ex.c ****  ===============================================================================
 158:Drivers/STM32H7xx_HAL_Driver/Src/stm32h7xx_hal_flash_ex.c ****                 ##### Extended programming operation functions #####
 159:Drivers/STM32H7xx_HAL_Driver/Src/stm32h7xx_hal_flash_ex.c ****  ===============================================================================
 160:Drivers/STM32H7xx_HAL_Driver/Src/stm32h7xx_hal_flash_ex.c ****     [..]
 161:Drivers/STM32H7xx_HAL_Driver/Src/stm32h7xx_hal_flash_ex.c ****     This subsection provides a set of functions allowing to manage the Extension FLASH
 162:Drivers/STM32H7xx_HAL_Driver/Src/stm32h7xx_hal_flash_ex.c ****     programming operations Operations.
 163:Drivers/STM32H7xx_HAL_Driver/Src/stm32h7xx_hal_flash_ex.c **** 
 164:Drivers/STM32H7xx_HAL_Driver/Src/stm32h7xx_hal_flash_ex.c **** @endverbatim
 165:Drivers/STM32H7xx_HAL_Driver/Src/stm32h7xx_hal_flash_ex.c ****   * @{
 166:Drivers/STM32H7xx_HAL_Driver/Src/stm32h7xx_hal_flash_ex.c ****   */
 167:Drivers/STM32H7xx_HAL_Driver/Src/stm32h7xx_hal_flash_ex.c **** /**
 168:Drivers/STM32H7xx_HAL_Driver/Src/stm32h7xx_hal_flash_ex.c ****   * @brief  Perform a mass erase or erase the specified FLASH memory sectors
 169:Drivers/STM32H7xx_HAL_Driver/Src/stm32h7xx_hal_flash_ex.c ****   * @param[in]  pEraseInit pointer to an FLASH_EraseInitTypeDef structure that
 170:Drivers/STM32H7xx_HAL_Driver/Src/stm32h7xx_hal_flash_ex.c ****   *         contains the configuration information for the erasing.
 171:Drivers/STM32H7xx_HAL_Driver/Src/stm32h7xx_hal_flash_ex.c ****   *
 172:Drivers/STM32H7xx_HAL_Driver/Src/stm32h7xx_hal_flash_ex.c ****   * @param[out]  SectorError pointer to variable  that contains the configuration
 173:Drivers/STM32H7xx_HAL_Driver/Src/stm32h7xx_hal_flash_ex.c ****   *          information on faulty sector in case of error (0xFFFFFFFF means that all
 174:Drivers/STM32H7xx_HAL_Driver/Src/stm32h7xx_hal_flash_ex.c ****   *          the sectors have been correctly erased)
 175:Drivers/STM32H7xx_HAL_Driver/Src/stm32h7xx_hal_flash_ex.c ****   *
 176:Drivers/STM32H7xx_HAL_Driver/Src/stm32h7xx_hal_flash_ex.c ****   * @retval HAL Status
 177:Drivers/STM32H7xx_HAL_Driver/Src/stm32h7xx_hal_flash_ex.c ****   */
 178:Drivers/STM32H7xx_HAL_Driver/Src/stm32h7xx_hal_flash_ex.c **** HAL_StatusTypeDef HAL_FLASHEx_Erase(FLASH_EraseInitTypeDef *pEraseInit, uint32_t *SectorError)
 179:Drivers/STM32H7xx_HAL_Driver/Src/stm32h7xx_hal_flash_ex.c **** {
 180:Drivers/STM32H7xx_HAL_Driver/Src/stm32h7xx_hal_flash_ex.c ****   HAL_StatusTypeDef status = HAL_OK;
 181:Drivers/STM32H7xx_HAL_Driver/Src/stm32h7xx_hal_flash_ex.c ****   uint32_t sector_index;
 182:Drivers/STM32H7xx_HAL_Driver/Src/stm32h7xx_hal_flash_ex.c **** 
 183:Drivers/STM32H7xx_HAL_Driver/Src/stm32h7xx_hal_flash_ex.c ****   /* Check the parameters */
 184:Drivers/STM32H7xx_HAL_Driver/Src/stm32h7xx_hal_flash_ex.c ****   assert_param(IS_FLASH_TYPEERASE(pEraseInit->TypeErase));
 185:Drivers/STM32H7xx_HAL_Driver/Src/stm32h7xx_hal_flash_ex.c ****   assert_param(IS_FLASH_BANK(pEraseInit->Banks));
 186:Drivers/STM32H7xx_HAL_Driver/Src/stm32h7xx_hal_flash_ex.c **** 
 187:Drivers/STM32H7xx_HAL_Driver/Src/stm32h7xx_hal_flash_ex.c ****   /* Process Locked */
 188:Drivers/STM32H7xx_HAL_Driver/Src/stm32h7xx_hal_flash_ex.c ****   __HAL_LOCK(&pFlash);
 189:Drivers/STM32H7xx_HAL_Driver/Src/stm32h7xx_hal_flash_ex.c **** 
 190:Drivers/STM32H7xx_HAL_Driver/Src/stm32h7xx_hal_flash_ex.c ****   /* Reset error code */
 191:Drivers/STM32H7xx_HAL_Driver/Src/stm32h7xx_hal_flash_ex.c ****   pFlash.ErrorCode = HAL_FLASH_ERROR_NONE;
 192:Drivers/STM32H7xx_HAL_Driver/Src/stm32h7xx_hal_flash_ex.c **** 
 193:Drivers/STM32H7xx_HAL_Driver/Src/stm32h7xx_hal_flash_ex.c ****   /* Wait for last operation to be completed on Bank1 */
 194:Drivers/STM32H7xx_HAL_Driver/Src/stm32h7xx_hal_flash_ex.c ****   if((pEraseInit->Banks & FLASH_BANK_1) == FLASH_BANK_1)
 195:Drivers/STM32H7xx_HAL_Driver/Src/stm32h7xx_hal_flash_ex.c ****   {
 196:Drivers/STM32H7xx_HAL_Driver/Src/stm32h7xx_hal_flash_ex.c ****     if(FLASH_WaitForLastOperation((uint32_t)FLASH_TIMEOUT_VALUE, FLASH_BANK_1) != HAL_OK)
 197:Drivers/STM32H7xx_HAL_Driver/Src/stm32h7xx_hal_flash_ex.c ****     {
 198:Drivers/STM32H7xx_HAL_Driver/Src/stm32h7xx_hal_flash_ex.c ****       status = HAL_ERROR;
 199:Drivers/STM32H7xx_HAL_Driver/Src/stm32h7xx_hal_flash_ex.c ****     }
 200:Drivers/STM32H7xx_HAL_Driver/Src/stm32h7xx_hal_flash_ex.c ****   }
 201:Drivers/STM32H7xx_HAL_Driver/Src/stm32h7xx_hal_flash_ex.c **** 
 202:Drivers/STM32H7xx_HAL_Driver/Src/stm32h7xx_hal_flash_ex.c **** #if defined (DUAL_BANK)
 203:Drivers/STM32H7xx_HAL_Driver/Src/stm32h7xx_hal_flash_ex.c ****   /* Wait for last operation to be completed on Bank2 */
ARM GAS  C:\Users\MadeuxS\AppData\Local\Temp\ccAPGHhR.s 			page 5


 204:Drivers/STM32H7xx_HAL_Driver/Src/stm32h7xx_hal_flash_ex.c ****   if((pEraseInit->Banks & FLASH_BANK_2) == FLASH_BANK_2)
 205:Drivers/STM32H7xx_HAL_Driver/Src/stm32h7xx_hal_flash_ex.c ****   {
 206:Drivers/STM32H7xx_HAL_Driver/Src/stm32h7xx_hal_flash_ex.c ****     if(FLASH_WaitForLastOperation((uint32_t)FLASH_TIMEOUT_VALUE, FLASH_BANK_2) != HAL_OK)
 207:Drivers/STM32H7xx_HAL_Driver/Src/stm32h7xx_hal_flash_ex.c ****     {
 208:Drivers/STM32H7xx_HAL_Driver/Src/stm32h7xx_hal_flash_ex.c ****       status = HAL_ERROR;
 209:Drivers/STM32H7xx_HAL_Driver/Src/stm32h7xx_hal_flash_ex.c ****     }
 210:Drivers/STM32H7xx_HAL_Driver/Src/stm32h7xx_hal_flash_ex.c ****   }
 211:Drivers/STM32H7xx_HAL_Driver/Src/stm32h7xx_hal_flash_ex.c **** #endif /* DUAL_BANK */
 212:Drivers/STM32H7xx_HAL_Driver/Src/stm32h7xx_hal_flash_ex.c **** 
 213:Drivers/STM32H7xx_HAL_Driver/Src/stm32h7xx_hal_flash_ex.c ****   if(status == HAL_OK)
 214:Drivers/STM32H7xx_HAL_Driver/Src/stm32h7xx_hal_flash_ex.c ****   {
 215:Drivers/STM32H7xx_HAL_Driver/Src/stm32h7xx_hal_flash_ex.c ****     if(pEraseInit->TypeErase == FLASH_TYPEERASE_MASSERASE)
 216:Drivers/STM32H7xx_HAL_Driver/Src/stm32h7xx_hal_flash_ex.c ****     {
 217:Drivers/STM32H7xx_HAL_Driver/Src/stm32h7xx_hal_flash_ex.c ****       /* Mass erase to be done */
 218:Drivers/STM32H7xx_HAL_Driver/Src/stm32h7xx_hal_flash_ex.c ****       FLASH_MassErase(pEraseInit->VoltageRange, pEraseInit->Banks);
 219:Drivers/STM32H7xx_HAL_Driver/Src/stm32h7xx_hal_flash_ex.c **** 
 220:Drivers/STM32H7xx_HAL_Driver/Src/stm32h7xx_hal_flash_ex.c ****       /* Wait for last operation to be completed on Bank 1 */
 221:Drivers/STM32H7xx_HAL_Driver/Src/stm32h7xx_hal_flash_ex.c ****       if((pEraseInit->Banks & FLASH_BANK_1) == FLASH_BANK_1)
 222:Drivers/STM32H7xx_HAL_Driver/Src/stm32h7xx_hal_flash_ex.c ****       {
 223:Drivers/STM32H7xx_HAL_Driver/Src/stm32h7xx_hal_flash_ex.c ****         if(FLASH_WaitForLastOperation((uint32_t)FLASH_TIMEOUT_VALUE, FLASH_BANK_1) != HAL_OK)
 224:Drivers/STM32H7xx_HAL_Driver/Src/stm32h7xx_hal_flash_ex.c ****         {
 225:Drivers/STM32H7xx_HAL_Driver/Src/stm32h7xx_hal_flash_ex.c ****           status = HAL_ERROR;
 226:Drivers/STM32H7xx_HAL_Driver/Src/stm32h7xx_hal_flash_ex.c ****         }
 227:Drivers/STM32H7xx_HAL_Driver/Src/stm32h7xx_hal_flash_ex.c ****         /* if the erase operation is completed, disable the Bank1 BER Bit */
 228:Drivers/STM32H7xx_HAL_Driver/Src/stm32h7xx_hal_flash_ex.c ****         FLASH->CR1 &= (~FLASH_CR_BER);
 229:Drivers/STM32H7xx_HAL_Driver/Src/stm32h7xx_hal_flash_ex.c ****       }
 230:Drivers/STM32H7xx_HAL_Driver/Src/stm32h7xx_hal_flash_ex.c **** #if defined (DUAL_BANK)
 231:Drivers/STM32H7xx_HAL_Driver/Src/stm32h7xx_hal_flash_ex.c ****       /* Wait for last operation to be completed on Bank 2 */
 232:Drivers/STM32H7xx_HAL_Driver/Src/stm32h7xx_hal_flash_ex.c ****       if((pEraseInit->Banks & FLASH_BANK_2) == FLASH_BANK_2)
 233:Drivers/STM32H7xx_HAL_Driver/Src/stm32h7xx_hal_flash_ex.c ****       {
 234:Drivers/STM32H7xx_HAL_Driver/Src/stm32h7xx_hal_flash_ex.c ****         if(FLASH_WaitForLastOperation((uint32_t)FLASH_TIMEOUT_VALUE, FLASH_BANK_2) != HAL_OK)
 235:Drivers/STM32H7xx_HAL_Driver/Src/stm32h7xx_hal_flash_ex.c ****         {
 236:Drivers/STM32H7xx_HAL_Driver/Src/stm32h7xx_hal_flash_ex.c ****           status = HAL_ERROR;
 237:Drivers/STM32H7xx_HAL_Driver/Src/stm32h7xx_hal_flash_ex.c ****         }
 238:Drivers/STM32H7xx_HAL_Driver/Src/stm32h7xx_hal_flash_ex.c ****         /* if the erase operation is completed, disable the Bank2 BER Bit */
 239:Drivers/STM32H7xx_HAL_Driver/Src/stm32h7xx_hal_flash_ex.c ****         FLASH->CR2 &= (~FLASH_CR_BER);
 240:Drivers/STM32H7xx_HAL_Driver/Src/stm32h7xx_hal_flash_ex.c ****       }
 241:Drivers/STM32H7xx_HAL_Driver/Src/stm32h7xx_hal_flash_ex.c **** #endif /* DUAL_BANK */
 242:Drivers/STM32H7xx_HAL_Driver/Src/stm32h7xx_hal_flash_ex.c ****     }
 243:Drivers/STM32H7xx_HAL_Driver/Src/stm32h7xx_hal_flash_ex.c ****     else
 244:Drivers/STM32H7xx_HAL_Driver/Src/stm32h7xx_hal_flash_ex.c ****     {
 245:Drivers/STM32H7xx_HAL_Driver/Src/stm32h7xx_hal_flash_ex.c ****       /*Initialization of SectorError variable*/
 246:Drivers/STM32H7xx_HAL_Driver/Src/stm32h7xx_hal_flash_ex.c ****       *SectorError = 0xFFFFFFFFU;
 247:Drivers/STM32H7xx_HAL_Driver/Src/stm32h7xx_hal_flash_ex.c **** 
 248:Drivers/STM32H7xx_HAL_Driver/Src/stm32h7xx_hal_flash_ex.c ****       /* Erase by sector by sector to be done*/
 249:Drivers/STM32H7xx_HAL_Driver/Src/stm32h7xx_hal_flash_ex.c ****       for(sector_index = pEraseInit->Sector; sector_index < (pEraseInit->NbSectors + pEraseInit->Se
 250:Drivers/STM32H7xx_HAL_Driver/Src/stm32h7xx_hal_flash_ex.c ****       {
 251:Drivers/STM32H7xx_HAL_Driver/Src/stm32h7xx_hal_flash_ex.c ****         FLASH_Erase_Sector(sector_index, pEraseInit->Banks, pEraseInit->VoltageRange);
 252:Drivers/STM32H7xx_HAL_Driver/Src/stm32h7xx_hal_flash_ex.c **** 
 253:Drivers/STM32H7xx_HAL_Driver/Src/stm32h7xx_hal_flash_ex.c ****         if((pEraseInit->Banks & FLASH_BANK_1) == FLASH_BANK_1)
 254:Drivers/STM32H7xx_HAL_Driver/Src/stm32h7xx_hal_flash_ex.c ****         {
 255:Drivers/STM32H7xx_HAL_Driver/Src/stm32h7xx_hal_flash_ex.c ****           /* Wait for last operation to be completed */
 256:Drivers/STM32H7xx_HAL_Driver/Src/stm32h7xx_hal_flash_ex.c ****           status = FLASH_WaitForLastOperation((uint32_t)FLASH_TIMEOUT_VALUE, FLASH_BANK_1);
 257:Drivers/STM32H7xx_HAL_Driver/Src/stm32h7xx_hal_flash_ex.c **** 
 258:Drivers/STM32H7xx_HAL_Driver/Src/stm32h7xx_hal_flash_ex.c ****           /* If the erase operation is completed, disable the SER Bit */
 259:Drivers/STM32H7xx_HAL_Driver/Src/stm32h7xx_hal_flash_ex.c ****           FLASH->CR1 &= (~(FLASH_CR_SER | FLASH_CR_SNB));
 260:Drivers/STM32H7xx_HAL_Driver/Src/stm32h7xx_hal_flash_ex.c ****         }
ARM GAS  C:\Users\MadeuxS\AppData\Local\Temp\ccAPGHhR.s 			page 6


 261:Drivers/STM32H7xx_HAL_Driver/Src/stm32h7xx_hal_flash_ex.c **** #if defined (DUAL_BANK)
 262:Drivers/STM32H7xx_HAL_Driver/Src/stm32h7xx_hal_flash_ex.c ****         if((pEraseInit->Banks & FLASH_BANK_2) == FLASH_BANK_2)
 263:Drivers/STM32H7xx_HAL_Driver/Src/stm32h7xx_hal_flash_ex.c ****         {
 264:Drivers/STM32H7xx_HAL_Driver/Src/stm32h7xx_hal_flash_ex.c ****           /* Wait for last operation to be completed */
 265:Drivers/STM32H7xx_HAL_Driver/Src/stm32h7xx_hal_flash_ex.c ****           status = FLASH_WaitForLastOperation((uint32_t)FLASH_TIMEOUT_VALUE, FLASH_BANK_2);
 266:Drivers/STM32H7xx_HAL_Driver/Src/stm32h7xx_hal_flash_ex.c **** 
 267:Drivers/STM32H7xx_HAL_Driver/Src/stm32h7xx_hal_flash_ex.c ****           /* If the erase operation is completed, disable the SER Bit */
 268:Drivers/STM32H7xx_HAL_Driver/Src/stm32h7xx_hal_flash_ex.c ****           FLASH->CR2 &= (~(FLASH_CR_SER | FLASH_CR_SNB));
 269:Drivers/STM32H7xx_HAL_Driver/Src/stm32h7xx_hal_flash_ex.c ****         }
 270:Drivers/STM32H7xx_HAL_Driver/Src/stm32h7xx_hal_flash_ex.c **** #endif /* DUAL_BANK */
 271:Drivers/STM32H7xx_HAL_Driver/Src/stm32h7xx_hal_flash_ex.c **** 
 272:Drivers/STM32H7xx_HAL_Driver/Src/stm32h7xx_hal_flash_ex.c ****         if(status != HAL_OK)
 273:Drivers/STM32H7xx_HAL_Driver/Src/stm32h7xx_hal_flash_ex.c ****         {
 274:Drivers/STM32H7xx_HAL_Driver/Src/stm32h7xx_hal_flash_ex.c ****           /* In case of error, stop erase procedure and return the faulty sector */
 275:Drivers/STM32H7xx_HAL_Driver/Src/stm32h7xx_hal_flash_ex.c ****           *SectorError = sector_index;
 276:Drivers/STM32H7xx_HAL_Driver/Src/stm32h7xx_hal_flash_ex.c ****           break;
 277:Drivers/STM32H7xx_HAL_Driver/Src/stm32h7xx_hal_flash_ex.c ****         }
 278:Drivers/STM32H7xx_HAL_Driver/Src/stm32h7xx_hal_flash_ex.c ****       }
 279:Drivers/STM32H7xx_HAL_Driver/Src/stm32h7xx_hal_flash_ex.c ****     }
 280:Drivers/STM32H7xx_HAL_Driver/Src/stm32h7xx_hal_flash_ex.c ****   }
 281:Drivers/STM32H7xx_HAL_Driver/Src/stm32h7xx_hal_flash_ex.c **** 
 282:Drivers/STM32H7xx_HAL_Driver/Src/stm32h7xx_hal_flash_ex.c ****   /* Process Unlocked */
 283:Drivers/STM32H7xx_HAL_Driver/Src/stm32h7xx_hal_flash_ex.c ****   __HAL_UNLOCK(&pFlash);
 284:Drivers/STM32H7xx_HAL_Driver/Src/stm32h7xx_hal_flash_ex.c **** 
 285:Drivers/STM32H7xx_HAL_Driver/Src/stm32h7xx_hal_flash_ex.c ****   return status;
 286:Drivers/STM32H7xx_HAL_Driver/Src/stm32h7xx_hal_flash_ex.c **** }
 287:Drivers/STM32H7xx_HAL_Driver/Src/stm32h7xx_hal_flash_ex.c **** 
 288:Drivers/STM32H7xx_HAL_Driver/Src/stm32h7xx_hal_flash_ex.c **** /**
 289:Drivers/STM32H7xx_HAL_Driver/Src/stm32h7xx_hal_flash_ex.c ****   * @brief  Perform a mass erase or erase the specified FLASH memory sectors with interrupt enabled
 290:Drivers/STM32H7xx_HAL_Driver/Src/stm32h7xx_hal_flash_ex.c ****   * @param  pEraseInit pointer to an FLASH_EraseInitTypeDef structure that
 291:Drivers/STM32H7xx_HAL_Driver/Src/stm32h7xx_hal_flash_ex.c ****   *         contains the configuration information for the erasing.
 292:Drivers/STM32H7xx_HAL_Driver/Src/stm32h7xx_hal_flash_ex.c ****   *
 293:Drivers/STM32H7xx_HAL_Driver/Src/stm32h7xx_hal_flash_ex.c ****   * @retval HAL Status
 294:Drivers/STM32H7xx_HAL_Driver/Src/stm32h7xx_hal_flash_ex.c ****   */
 295:Drivers/STM32H7xx_HAL_Driver/Src/stm32h7xx_hal_flash_ex.c **** HAL_StatusTypeDef HAL_FLASHEx_Erase_IT(FLASH_EraseInitTypeDef *pEraseInit)
 296:Drivers/STM32H7xx_HAL_Driver/Src/stm32h7xx_hal_flash_ex.c **** {
 297:Drivers/STM32H7xx_HAL_Driver/Src/stm32h7xx_hal_flash_ex.c ****   HAL_StatusTypeDef status = HAL_OK;
 298:Drivers/STM32H7xx_HAL_Driver/Src/stm32h7xx_hal_flash_ex.c **** 
 299:Drivers/STM32H7xx_HAL_Driver/Src/stm32h7xx_hal_flash_ex.c ****   /* Check the parameters */
 300:Drivers/STM32H7xx_HAL_Driver/Src/stm32h7xx_hal_flash_ex.c ****   assert_param(IS_FLASH_TYPEERASE(pEraseInit->TypeErase));
 301:Drivers/STM32H7xx_HAL_Driver/Src/stm32h7xx_hal_flash_ex.c ****   assert_param(IS_FLASH_BANK(pEraseInit->Banks));
 302:Drivers/STM32H7xx_HAL_Driver/Src/stm32h7xx_hal_flash_ex.c **** 
 303:Drivers/STM32H7xx_HAL_Driver/Src/stm32h7xx_hal_flash_ex.c ****   /* Process Locked */
 304:Drivers/STM32H7xx_HAL_Driver/Src/stm32h7xx_hal_flash_ex.c ****   __HAL_LOCK(&pFlash);
 305:Drivers/STM32H7xx_HAL_Driver/Src/stm32h7xx_hal_flash_ex.c **** 
 306:Drivers/STM32H7xx_HAL_Driver/Src/stm32h7xx_hal_flash_ex.c ****   /* Reset error code */
 307:Drivers/STM32H7xx_HAL_Driver/Src/stm32h7xx_hal_flash_ex.c ****   pFlash.ErrorCode = HAL_FLASH_ERROR_NONE;
 308:Drivers/STM32H7xx_HAL_Driver/Src/stm32h7xx_hal_flash_ex.c **** 
 309:Drivers/STM32H7xx_HAL_Driver/Src/stm32h7xx_hal_flash_ex.c ****   /* Wait for last operation to be completed on Bank 1 */
 310:Drivers/STM32H7xx_HAL_Driver/Src/stm32h7xx_hal_flash_ex.c ****   if((pEraseInit->Banks & FLASH_BANK_1) == FLASH_BANK_1)
 311:Drivers/STM32H7xx_HAL_Driver/Src/stm32h7xx_hal_flash_ex.c ****   {
 312:Drivers/STM32H7xx_HAL_Driver/Src/stm32h7xx_hal_flash_ex.c ****     if(FLASH_WaitForLastOperation((uint32_t)FLASH_TIMEOUT_VALUE, FLASH_BANK_1) != HAL_OK)
 313:Drivers/STM32H7xx_HAL_Driver/Src/stm32h7xx_hal_flash_ex.c ****     {
 314:Drivers/STM32H7xx_HAL_Driver/Src/stm32h7xx_hal_flash_ex.c ****       status = HAL_ERROR;
 315:Drivers/STM32H7xx_HAL_Driver/Src/stm32h7xx_hal_flash_ex.c ****     }
 316:Drivers/STM32H7xx_HAL_Driver/Src/stm32h7xx_hal_flash_ex.c ****   }
 317:Drivers/STM32H7xx_HAL_Driver/Src/stm32h7xx_hal_flash_ex.c **** 
ARM GAS  C:\Users\MadeuxS\AppData\Local\Temp\ccAPGHhR.s 			page 7


 318:Drivers/STM32H7xx_HAL_Driver/Src/stm32h7xx_hal_flash_ex.c **** #if defined (DUAL_BANK)
 319:Drivers/STM32H7xx_HAL_Driver/Src/stm32h7xx_hal_flash_ex.c ****   /* Wait for last operation to be completed on Bank 2 */
 320:Drivers/STM32H7xx_HAL_Driver/Src/stm32h7xx_hal_flash_ex.c ****   if((pEraseInit->Banks & FLASH_BANK_2) == FLASH_BANK_2)
 321:Drivers/STM32H7xx_HAL_Driver/Src/stm32h7xx_hal_flash_ex.c ****   {
 322:Drivers/STM32H7xx_HAL_Driver/Src/stm32h7xx_hal_flash_ex.c ****     if(FLASH_WaitForLastOperation((uint32_t)FLASH_TIMEOUT_VALUE, FLASH_BANK_2) != HAL_OK)
 323:Drivers/STM32H7xx_HAL_Driver/Src/stm32h7xx_hal_flash_ex.c ****     {
 324:Drivers/STM32H7xx_HAL_Driver/Src/stm32h7xx_hal_flash_ex.c ****       status = HAL_ERROR;
 325:Drivers/STM32H7xx_HAL_Driver/Src/stm32h7xx_hal_flash_ex.c ****     }
 326:Drivers/STM32H7xx_HAL_Driver/Src/stm32h7xx_hal_flash_ex.c ****   }
 327:Drivers/STM32H7xx_HAL_Driver/Src/stm32h7xx_hal_flash_ex.c **** #endif /* DUAL_BANK */
 328:Drivers/STM32H7xx_HAL_Driver/Src/stm32h7xx_hal_flash_ex.c **** 
 329:Drivers/STM32H7xx_HAL_Driver/Src/stm32h7xx_hal_flash_ex.c ****   if (status != HAL_OK)
 330:Drivers/STM32H7xx_HAL_Driver/Src/stm32h7xx_hal_flash_ex.c ****   {
 331:Drivers/STM32H7xx_HAL_Driver/Src/stm32h7xx_hal_flash_ex.c ****     /* Process Unlocked */
 332:Drivers/STM32H7xx_HAL_Driver/Src/stm32h7xx_hal_flash_ex.c ****     __HAL_UNLOCK(&pFlash);
 333:Drivers/STM32H7xx_HAL_Driver/Src/stm32h7xx_hal_flash_ex.c ****   }
 334:Drivers/STM32H7xx_HAL_Driver/Src/stm32h7xx_hal_flash_ex.c ****   else
 335:Drivers/STM32H7xx_HAL_Driver/Src/stm32h7xx_hal_flash_ex.c ****   {
 336:Drivers/STM32H7xx_HAL_Driver/Src/stm32h7xx_hal_flash_ex.c ****     if((pEraseInit->Banks & FLASH_BANK_1) == FLASH_BANK_1)
 337:Drivers/STM32H7xx_HAL_Driver/Src/stm32h7xx_hal_flash_ex.c ****     {
 338:Drivers/STM32H7xx_HAL_Driver/Src/stm32h7xx_hal_flash_ex.c ****       /* Enable End of Operation and Error interrupts for Bank 1 */
 339:Drivers/STM32H7xx_HAL_Driver/Src/stm32h7xx_hal_flash_ex.c **** #if defined (FLASH_CR_OPERRIE)
 340:Drivers/STM32H7xx_HAL_Driver/Src/stm32h7xx_hal_flash_ex.c ****       __HAL_FLASH_ENABLE_IT_BANK1(FLASH_IT_EOP_BANK1     | FLASH_IT_WRPERR_BANK1 | FLASH_IT_PGSERR_
 341:Drivers/STM32H7xx_HAL_Driver/Src/stm32h7xx_hal_flash_ex.c ****                                   FLASH_IT_STRBERR_BANK1 | FLASH_IT_INCERR_BANK1 | FLASH_IT_OPERR_B
 342:Drivers/STM32H7xx_HAL_Driver/Src/stm32h7xx_hal_flash_ex.c **** #else
 343:Drivers/STM32H7xx_HAL_Driver/Src/stm32h7xx_hal_flash_ex.c ****       __HAL_FLASH_ENABLE_IT_BANK1(FLASH_IT_EOP_BANK1     | FLASH_IT_WRPERR_BANK1 | FLASH_IT_PGSERR_
 344:Drivers/STM32H7xx_HAL_Driver/Src/stm32h7xx_hal_flash_ex.c ****                                   FLASH_IT_STRBERR_BANK1 | FLASH_IT_INCERR_BANK1);
 345:Drivers/STM32H7xx_HAL_Driver/Src/stm32h7xx_hal_flash_ex.c **** #endif /* FLASH_CR_OPERRIE */
 346:Drivers/STM32H7xx_HAL_Driver/Src/stm32h7xx_hal_flash_ex.c ****     }
 347:Drivers/STM32H7xx_HAL_Driver/Src/stm32h7xx_hal_flash_ex.c **** #if defined (DUAL_BANK)
 348:Drivers/STM32H7xx_HAL_Driver/Src/stm32h7xx_hal_flash_ex.c ****     if((pEraseInit->Banks & FLASH_BANK_2) == FLASH_BANK_2)
 349:Drivers/STM32H7xx_HAL_Driver/Src/stm32h7xx_hal_flash_ex.c ****     {
 350:Drivers/STM32H7xx_HAL_Driver/Src/stm32h7xx_hal_flash_ex.c ****       /* Enable End of Operation and Error interrupts for Bank 2 */
 351:Drivers/STM32H7xx_HAL_Driver/Src/stm32h7xx_hal_flash_ex.c **** #if defined (FLASH_CR_OPERRIE)
 352:Drivers/STM32H7xx_HAL_Driver/Src/stm32h7xx_hal_flash_ex.c ****       __HAL_FLASH_ENABLE_IT_BANK2(FLASH_IT_EOP_BANK2     | FLASH_IT_WRPERR_BANK2 | FLASH_IT_PGSERR_
 353:Drivers/STM32H7xx_HAL_Driver/Src/stm32h7xx_hal_flash_ex.c ****                                   FLASH_IT_STRBERR_BANK2 | FLASH_IT_INCERR_BANK2 | FLASH_IT_OPERR_B
 354:Drivers/STM32H7xx_HAL_Driver/Src/stm32h7xx_hal_flash_ex.c **** #else
 355:Drivers/STM32H7xx_HAL_Driver/Src/stm32h7xx_hal_flash_ex.c ****       __HAL_FLASH_ENABLE_IT_BANK2(FLASH_IT_EOP_BANK2     | FLASH_IT_WRPERR_BANK2 | FLASH_IT_PGSERR_
 356:Drivers/STM32H7xx_HAL_Driver/Src/stm32h7xx_hal_flash_ex.c ****                                   FLASH_IT_STRBERR_BANK2 | FLASH_IT_INCERR_BANK2);
 357:Drivers/STM32H7xx_HAL_Driver/Src/stm32h7xx_hal_flash_ex.c **** #endif /* FLASH_CR_OPERRIE */
 358:Drivers/STM32H7xx_HAL_Driver/Src/stm32h7xx_hal_flash_ex.c ****     }
 359:Drivers/STM32H7xx_HAL_Driver/Src/stm32h7xx_hal_flash_ex.c **** #endif /* DUAL_BANK */
 360:Drivers/STM32H7xx_HAL_Driver/Src/stm32h7xx_hal_flash_ex.c **** 
 361:Drivers/STM32H7xx_HAL_Driver/Src/stm32h7xx_hal_flash_ex.c ****     if(pEraseInit->TypeErase == FLASH_TYPEERASE_MASSERASE)
 362:Drivers/STM32H7xx_HAL_Driver/Src/stm32h7xx_hal_flash_ex.c ****     {
 363:Drivers/STM32H7xx_HAL_Driver/Src/stm32h7xx_hal_flash_ex.c ****       /*Mass erase to be done*/
 364:Drivers/STM32H7xx_HAL_Driver/Src/stm32h7xx_hal_flash_ex.c ****       if(pEraseInit->Banks == FLASH_BANK_1)
 365:Drivers/STM32H7xx_HAL_Driver/Src/stm32h7xx_hal_flash_ex.c ****       {
 366:Drivers/STM32H7xx_HAL_Driver/Src/stm32h7xx_hal_flash_ex.c ****         pFlash.ProcedureOnGoing = FLASH_PROC_MASSERASE_BANK1;
 367:Drivers/STM32H7xx_HAL_Driver/Src/stm32h7xx_hal_flash_ex.c ****       }
 368:Drivers/STM32H7xx_HAL_Driver/Src/stm32h7xx_hal_flash_ex.c **** #if defined (DUAL_BANK)
 369:Drivers/STM32H7xx_HAL_Driver/Src/stm32h7xx_hal_flash_ex.c ****       else if(pEraseInit->Banks == FLASH_BANK_2)
 370:Drivers/STM32H7xx_HAL_Driver/Src/stm32h7xx_hal_flash_ex.c ****       {
 371:Drivers/STM32H7xx_HAL_Driver/Src/stm32h7xx_hal_flash_ex.c ****         pFlash.ProcedureOnGoing = FLASH_PROC_MASSERASE_BANK2;
 372:Drivers/STM32H7xx_HAL_Driver/Src/stm32h7xx_hal_flash_ex.c ****       }
 373:Drivers/STM32H7xx_HAL_Driver/Src/stm32h7xx_hal_flash_ex.c **** #endif /* DUAL_BANK */
 374:Drivers/STM32H7xx_HAL_Driver/Src/stm32h7xx_hal_flash_ex.c ****       else
ARM GAS  C:\Users\MadeuxS\AppData\Local\Temp\ccAPGHhR.s 			page 8


 375:Drivers/STM32H7xx_HAL_Driver/Src/stm32h7xx_hal_flash_ex.c ****       {
 376:Drivers/STM32H7xx_HAL_Driver/Src/stm32h7xx_hal_flash_ex.c ****         pFlash.ProcedureOnGoing = FLASH_PROC_ALLBANK_MASSERASE;
 377:Drivers/STM32H7xx_HAL_Driver/Src/stm32h7xx_hal_flash_ex.c ****       }
 378:Drivers/STM32H7xx_HAL_Driver/Src/stm32h7xx_hal_flash_ex.c **** 
 379:Drivers/STM32H7xx_HAL_Driver/Src/stm32h7xx_hal_flash_ex.c ****       FLASH_MassErase(pEraseInit->VoltageRange, pEraseInit->Banks);
 380:Drivers/STM32H7xx_HAL_Driver/Src/stm32h7xx_hal_flash_ex.c ****     }
 381:Drivers/STM32H7xx_HAL_Driver/Src/stm32h7xx_hal_flash_ex.c ****     else
 382:Drivers/STM32H7xx_HAL_Driver/Src/stm32h7xx_hal_flash_ex.c ****     {
 383:Drivers/STM32H7xx_HAL_Driver/Src/stm32h7xx_hal_flash_ex.c ****       /* Erase by sector to be done */
 384:Drivers/STM32H7xx_HAL_Driver/Src/stm32h7xx_hal_flash_ex.c **** #if defined (DUAL_BANK)
 385:Drivers/STM32H7xx_HAL_Driver/Src/stm32h7xx_hal_flash_ex.c ****       if(pEraseInit->Banks == FLASH_BANK_1)
 386:Drivers/STM32H7xx_HAL_Driver/Src/stm32h7xx_hal_flash_ex.c ****       {
 387:Drivers/STM32H7xx_HAL_Driver/Src/stm32h7xx_hal_flash_ex.c ****         pFlash.ProcedureOnGoing = FLASH_PROC_SECTERASE_BANK1;
 388:Drivers/STM32H7xx_HAL_Driver/Src/stm32h7xx_hal_flash_ex.c ****       }
 389:Drivers/STM32H7xx_HAL_Driver/Src/stm32h7xx_hal_flash_ex.c ****       else
 390:Drivers/STM32H7xx_HAL_Driver/Src/stm32h7xx_hal_flash_ex.c ****       {
 391:Drivers/STM32H7xx_HAL_Driver/Src/stm32h7xx_hal_flash_ex.c ****         pFlash.ProcedureOnGoing = FLASH_PROC_SECTERASE_BANK2;
 392:Drivers/STM32H7xx_HAL_Driver/Src/stm32h7xx_hal_flash_ex.c ****       }
 393:Drivers/STM32H7xx_HAL_Driver/Src/stm32h7xx_hal_flash_ex.c **** #else
 394:Drivers/STM32H7xx_HAL_Driver/Src/stm32h7xx_hal_flash_ex.c ****       pFlash.ProcedureOnGoing = FLASH_PROC_SECTERASE_BANK1;
 395:Drivers/STM32H7xx_HAL_Driver/Src/stm32h7xx_hal_flash_ex.c **** #endif /* DUAL_BANK */
 396:Drivers/STM32H7xx_HAL_Driver/Src/stm32h7xx_hal_flash_ex.c **** 
 397:Drivers/STM32H7xx_HAL_Driver/Src/stm32h7xx_hal_flash_ex.c ****       pFlash.NbSectorsToErase = pEraseInit->NbSectors;
 398:Drivers/STM32H7xx_HAL_Driver/Src/stm32h7xx_hal_flash_ex.c ****       pFlash.Sector = pEraseInit->Sector;
 399:Drivers/STM32H7xx_HAL_Driver/Src/stm32h7xx_hal_flash_ex.c ****       pFlash.VoltageForErase = pEraseInit->VoltageRange;
 400:Drivers/STM32H7xx_HAL_Driver/Src/stm32h7xx_hal_flash_ex.c **** 
 401:Drivers/STM32H7xx_HAL_Driver/Src/stm32h7xx_hal_flash_ex.c ****       /* Erase first sector and wait for IT */
 402:Drivers/STM32H7xx_HAL_Driver/Src/stm32h7xx_hal_flash_ex.c ****       FLASH_Erase_Sector(pEraseInit->Sector, pEraseInit->Banks, pEraseInit->VoltageRange);
 403:Drivers/STM32H7xx_HAL_Driver/Src/stm32h7xx_hal_flash_ex.c ****     }
 404:Drivers/STM32H7xx_HAL_Driver/Src/stm32h7xx_hal_flash_ex.c ****   }
 405:Drivers/STM32H7xx_HAL_Driver/Src/stm32h7xx_hal_flash_ex.c **** 
 406:Drivers/STM32H7xx_HAL_Driver/Src/stm32h7xx_hal_flash_ex.c ****   return status;
 407:Drivers/STM32H7xx_HAL_Driver/Src/stm32h7xx_hal_flash_ex.c **** }
 408:Drivers/STM32H7xx_HAL_Driver/Src/stm32h7xx_hal_flash_ex.c **** 
 409:Drivers/STM32H7xx_HAL_Driver/Src/stm32h7xx_hal_flash_ex.c **** /**
 410:Drivers/STM32H7xx_HAL_Driver/Src/stm32h7xx_hal_flash_ex.c ****   * @brief  Program option bytes
 411:Drivers/STM32H7xx_HAL_Driver/Src/stm32h7xx_hal_flash_ex.c ****   * @param  pOBInit pointer to an FLASH_OBInitStruct structure that
 412:Drivers/STM32H7xx_HAL_Driver/Src/stm32h7xx_hal_flash_ex.c ****   *         contains the configuration information for the programming.
 413:Drivers/STM32H7xx_HAL_Driver/Src/stm32h7xx_hal_flash_ex.c ****   *
 414:Drivers/STM32H7xx_HAL_Driver/Src/stm32h7xx_hal_flash_ex.c ****   * @retval HAL Status
 415:Drivers/STM32H7xx_HAL_Driver/Src/stm32h7xx_hal_flash_ex.c ****   */
 416:Drivers/STM32H7xx_HAL_Driver/Src/stm32h7xx_hal_flash_ex.c **** HAL_StatusTypeDef HAL_FLASHEx_OBProgram(FLASH_OBProgramInitTypeDef *pOBInit)
 417:Drivers/STM32H7xx_HAL_Driver/Src/stm32h7xx_hal_flash_ex.c **** {
 418:Drivers/STM32H7xx_HAL_Driver/Src/stm32h7xx_hal_flash_ex.c ****   HAL_StatusTypeDef status;
 419:Drivers/STM32H7xx_HAL_Driver/Src/stm32h7xx_hal_flash_ex.c **** 
 420:Drivers/STM32H7xx_HAL_Driver/Src/stm32h7xx_hal_flash_ex.c ****   /* Check the parameters */
 421:Drivers/STM32H7xx_HAL_Driver/Src/stm32h7xx_hal_flash_ex.c ****   assert_param(IS_OPTIONBYTE(pOBInit->OptionType));
 422:Drivers/STM32H7xx_HAL_Driver/Src/stm32h7xx_hal_flash_ex.c **** 
 423:Drivers/STM32H7xx_HAL_Driver/Src/stm32h7xx_hal_flash_ex.c ****   /* Process Locked */
 424:Drivers/STM32H7xx_HAL_Driver/Src/stm32h7xx_hal_flash_ex.c ****   __HAL_LOCK(&pFlash);
 425:Drivers/STM32H7xx_HAL_Driver/Src/stm32h7xx_hal_flash_ex.c **** 
 426:Drivers/STM32H7xx_HAL_Driver/Src/stm32h7xx_hal_flash_ex.c ****   /* Reset Error Code */
 427:Drivers/STM32H7xx_HAL_Driver/Src/stm32h7xx_hal_flash_ex.c ****   pFlash.ErrorCode = HAL_FLASH_ERROR_NONE;
 428:Drivers/STM32H7xx_HAL_Driver/Src/stm32h7xx_hal_flash_ex.c **** 
 429:Drivers/STM32H7xx_HAL_Driver/Src/stm32h7xx_hal_flash_ex.c ****   /* Wait for last operation to be completed */
 430:Drivers/STM32H7xx_HAL_Driver/Src/stm32h7xx_hal_flash_ex.c ****   if(FLASH_WaitForLastOperation((uint32_t)FLASH_TIMEOUT_VALUE, FLASH_BANK_1) != HAL_OK)
 431:Drivers/STM32H7xx_HAL_Driver/Src/stm32h7xx_hal_flash_ex.c ****   {
ARM GAS  C:\Users\MadeuxS\AppData\Local\Temp\ccAPGHhR.s 			page 9


 432:Drivers/STM32H7xx_HAL_Driver/Src/stm32h7xx_hal_flash_ex.c ****     status = HAL_ERROR;
 433:Drivers/STM32H7xx_HAL_Driver/Src/stm32h7xx_hal_flash_ex.c ****   }
 434:Drivers/STM32H7xx_HAL_Driver/Src/stm32h7xx_hal_flash_ex.c **** #if defined (DUAL_BANK)
 435:Drivers/STM32H7xx_HAL_Driver/Src/stm32h7xx_hal_flash_ex.c ****   else if(FLASH_WaitForLastOperation((uint32_t)FLASH_TIMEOUT_VALUE, FLASH_BANK_2) != HAL_OK)
 436:Drivers/STM32H7xx_HAL_Driver/Src/stm32h7xx_hal_flash_ex.c ****   {
 437:Drivers/STM32H7xx_HAL_Driver/Src/stm32h7xx_hal_flash_ex.c ****     status = HAL_ERROR;
 438:Drivers/STM32H7xx_HAL_Driver/Src/stm32h7xx_hal_flash_ex.c ****   }
 439:Drivers/STM32H7xx_HAL_Driver/Src/stm32h7xx_hal_flash_ex.c **** #endif /* DUAL_BANK */
 440:Drivers/STM32H7xx_HAL_Driver/Src/stm32h7xx_hal_flash_ex.c ****   else
 441:Drivers/STM32H7xx_HAL_Driver/Src/stm32h7xx_hal_flash_ex.c ****   {
 442:Drivers/STM32H7xx_HAL_Driver/Src/stm32h7xx_hal_flash_ex.c ****     status = HAL_OK;
 443:Drivers/STM32H7xx_HAL_Driver/Src/stm32h7xx_hal_flash_ex.c ****   }
 444:Drivers/STM32H7xx_HAL_Driver/Src/stm32h7xx_hal_flash_ex.c **** 
 445:Drivers/STM32H7xx_HAL_Driver/Src/stm32h7xx_hal_flash_ex.c ****   if(status == HAL_OK)
 446:Drivers/STM32H7xx_HAL_Driver/Src/stm32h7xx_hal_flash_ex.c ****   {
 447:Drivers/STM32H7xx_HAL_Driver/Src/stm32h7xx_hal_flash_ex.c ****     /*Write protection configuration*/
 448:Drivers/STM32H7xx_HAL_Driver/Src/stm32h7xx_hal_flash_ex.c ****     if((pOBInit->OptionType & OPTIONBYTE_WRP) == OPTIONBYTE_WRP)
 449:Drivers/STM32H7xx_HAL_Driver/Src/stm32h7xx_hal_flash_ex.c ****     {
 450:Drivers/STM32H7xx_HAL_Driver/Src/stm32h7xx_hal_flash_ex.c ****       assert_param(IS_WRPSTATE(pOBInit->WRPState));
 451:Drivers/STM32H7xx_HAL_Driver/Src/stm32h7xx_hal_flash_ex.c **** 
 452:Drivers/STM32H7xx_HAL_Driver/Src/stm32h7xx_hal_flash_ex.c ****       if(pOBInit->WRPState == OB_WRPSTATE_ENABLE)
 453:Drivers/STM32H7xx_HAL_Driver/Src/stm32h7xx_hal_flash_ex.c ****       {
 454:Drivers/STM32H7xx_HAL_Driver/Src/stm32h7xx_hal_flash_ex.c ****         /*Enable of Write protection on the selected Sector*/
 455:Drivers/STM32H7xx_HAL_Driver/Src/stm32h7xx_hal_flash_ex.c ****         FLASH_OB_EnableWRP(pOBInit->WRPSector,pOBInit->Banks);
 456:Drivers/STM32H7xx_HAL_Driver/Src/stm32h7xx_hal_flash_ex.c ****       }
 457:Drivers/STM32H7xx_HAL_Driver/Src/stm32h7xx_hal_flash_ex.c ****       else
 458:Drivers/STM32H7xx_HAL_Driver/Src/stm32h7xx_hal_flash_ex.c ****       {
 459:Drivers/STM32H7xx_HAL_Driver/Src/stm32h7xx_hal_flash_ex.c ****         /*Disable of Write protection on the selected Sector*/
 460:Drivers/STM32H7xx_HAL_Driver/Src/stm32h7xx_hal_flash_ex.c ****         FLASH_OB_DisableWRP(pOBInit->WRPSector, pOBInit->Banks);
 461:Drivers/STM32H7xx_HAL_Driver/Src/stm32h7xx_hal_flash_ex.c ****       }
 462:Drivers/STM32H7xx_HAL_Driver/Src/stm32h7xx_hal_flash_ex.c ****     }
 463:Drivers/STM32H7xx_HAL_Driver/Src/stm32h7xx_hal_flash_ex.c **** 
 464:Drivers/STM32H7xx_HAL_Driver/Src/stm32h7xx_hal_flash_ex.c ****     /* Read protection configuration */
 465:Drivers/STM32H7xx_HAL_Driver/Src/stm32h7xx_hal_flash_ex.c ****     if((pOBInit->OptionType & OPTIONBYTE_RDP) != 0U)
 466:Drivers/STM32H7xx_HAL_Driver/Src/stm32h7xx_hal_flash_ex.c ****     {
 467:Drivers/STM32H7xx_HAL_Driver/Src/stm32h7xx_hal_flash_ex.c ****       /* Configure the Read protection level */
 468:Drivers/STM32H7xx_HAL_Driver/Src/stm32h7xx_hal_flash_ex.c ****       FLASH_OB_RDPConfig(pOBInit->RDPLevel);
 469:Drivers/STM32H7xx_HAL_Driver/Src/stm32h7xx_hal_flash_ex.c ****     }
 470:Drivers/STM32H7xx_HAL_Driver/Src/stm32h7xx_hal_flash_ex.c **** 
 471:Drivers/STM32H7xx_HAL_Driver/Src/stm32h7xx_hal_flash_ex.c ****     /* User Configuration */
 472:Drivers/STM32H7xx_HAL_Driver/Src/stm32h7xx_hal_flash_ex.c ****     if((pOBInit->OptionType & OPTIONBYTE_USER) != 0U)
 473:Drivers/STM32H7xx_HAL_Driver/Src/stm32h7xx_hal_flash_ex.c ****     {
 474:Drivers/STM32H7xx_HAL_Driver/Src/stm32h7xx_hal_flash_ex.c ****       /* Configure the user option bytes */
 475:Drivers/STM32H7xx_HAL_Driver/Src/stm32h7xx_hal_flash_ex.c ****       FLASH_OB_UserConfig(pOBInit->USERType, pOBInit->USERConfig);
 476:Drivers/STM32H7xx_HAL_Driver/Src/stm32h7xx_hal_flash_ex.c ****     }
 477:Drivers/STM32H7xx_HAL_Driver/Src/stm32h7xx_hal_flash_ex.c **** 
 478:Drivers/STM32H7xx_HAL_Driver/Src/stm32h7xx_hal_flash_ex.c ****     /* PCROP Configuration */
 479:Drivers/STM32H7xx_HAL_Driver/Src/stm32h7xx_hal_flash_ex.c ****     if((pOBInit->OptionType & OPTIONBYTE_PCROP) != 0U)
 480:Drivers/STM32H7xx_HAL_Driver/Src/stm32h7xx_hal_flash_ex.c ****     {
 481:Drivers/STM32H7xx_HAL_Driver/Src/stm32h7xx_hal_flash_ex.c ****       assert_param(IS_FLASH_BANK(pOBInit->Banks));
 482:Drivers/STM32H7xx_HAL_Driver/Src/stm32h7xx_hal_flash_ex.c **** 
 483:Drivers/STM32H7xx_HAL_Driver/Src/stm32h7xx_hal_flash_ex.c ****       /*Configure the Proprietary code readout protection */
 484:Drivers/STM32H7xx_HAL_Driver/Src/stm32h7xx_hal_flash_ex.c ****       FLASH_OB_PCROPConfig(pOBInit->PCROPConfig, pOBInit->PCROPStartAddr, pOBInit->PCROPEndAddr, pO
 485:Drivers/STM32H7xx_HAL_Driver/Src/stm32h7xx_hal_flash_ex.c ****     }
 486:Drivers/STM32H7xx_HAL_Driver/Src/stm32h7xx_hal_flash_ex.c **** 
 487:Drivers/STM32H7xx_HAL_Driver/Src/stm32h7xx_hal_flash_ex.c ****     /* BOR Level configuration */
 488:Drivers/STM32H7xx_HAL_Driver/Src/stm32h7xx_hal_flash_ex.c ****     if((pOBInit->OptionType & OPTIONBYTE_BOR) == OPTIONBYTE_BOR)
ARM GAS  C:\Users\MadeuxS\AppData\Local\Temp\ccAPGHhR.s 			page 10


 489:Drivers/STM32H7xx_HAL_Driver/Src/stm32h7xx_hal_flash_ex.c ****     {
 490:Drivers/STM32H7xx_HAL_Driver/Src/stm32h7xx_hal_flash_ex.c ****       FLASH_OB_BOR_LevelConfig(pOBInit->BORLevel);
 491:Drivers/STM32H7xx_HAL_Driver/Src/stm32h7xx_hal_flash_ex.c ****     }
 492:Drivers/STM32H7xx_HAL_Driver/Src/stm32h7xx_hal_flash_ex.c **** 
 493:Drivers/STM32H7xx_HAL_Driver/Src/stm32h7xx_hal_flash_ex.c **** #if defined(DUAL_CORE)
 494:Drivers/STM32H7xx_HAL_Driver/Src/stm32h7xx_hal_flash_ex.c ****     /* CM7 Boot Address  configuration */
 495:Drivers/STM32H7xx_HAL_Driver/Src/stm32h7xx_hal_flash_ex.c ****     if((pOBInit->OptionType & OPTIONBYTE_CM7_BOOTADD) == OPTIONBYTE_CM7_BOOTADD)
 496:Drivers/STM32H7xx_HAL_Driver/Src/stm32h7xx_hal_flash_ex.c ****     {
 497:Drivers/STM32H7xx_HAL_Driver/Src/stm32h7xx_hal_flash_ex.c ****       FLASH_OB_BootAddConfig(pOBInit->BootConfig, pOBInit->BootAddr0, pOBInit->BootAddr1);
 498:Drivers/STM32H7xx_HAL_Driver/Src/stm32h7xx_hal_flash_ex.c ****     }
 499:Drivers/STM32H7xx_HAL_Driver/Src/stm32h7xx_hal_flash_ex.c **** 
 500:Drivers/STM32H7xx_HAL_Driver/Src/stm32h7xx_hal_flash_ex.c ****     /* CM4 Boot Address  configuration */
 501:Drivers/STM32H7xx_HAL_Driver/Src/stm32h7xx_hal_flash_ex.c ****     if((pOBInit->OptionType & OPTIONBYTE_CM4_BOOTADD) == OPTIONBYTE_CM4_BOOTADD)
 502:Drivers/STM32H7xx_HAL_Driver/Src/stm32h7xx_hal_flash_ex.c ****     {
 503:Drivers/STM32H7xx_HAL_Driver/Src/stm32h7xx_hal_flash_ex.c ****       FLASH_OB_CM4BootAddConfig(pOBInit->CM4BootConfig, pOBInit->CM4BootAddr0, pOBInit->CM4BootAddr
 504:Drivers/STM32H7xx_HAL_Driver/Src/stm32h7xx_hal_flash_ex.c ****     }
 505:Drivers/STM32H7xx_HAL_Driver/Src/stm32h7xx_hal_flash_ex.c **** #else /* Single Core*/
 506:Drivers/STM32H7xx_HAL_Driver/Src/stm32h7xx_hal_flash_ex.c ****     /* Boot Address  configuration */
 507:Drivers/STM32H7xx_HAL_Driver/Src/stm32h7xx_hal_flash_ex.c ****     if((pOBInit->OptionType & OPTIONBYTE_BOOTADD) == OPTIONBYTE_BOOTADD)
 508:Drivers/STM32H7xx_HAL_Driver/Src/stm32h7xx_hal_flash_ex.c ****     {
 509:Drivers/STM32H7xx_HAL_Driver/Src/stm32h7xx_hal_flash_ex.c ****       FLASH_OB_BootAddConfig(pOBInit->BootConfig, pOBInit->BootAddr0, pOBInit->BootAddr1);
 510:Drivers/STM32H7xx_HAL_Driver/Src/stm32h7xx_hal_flash_ex.c ****     }
 511:Drivers/STM32H7xx_HAL_Driver/Src/stm32h7xx_hal_flash_ex.c **** #endif /*DUAL_CORE*/
 512:Drivers/STM32H7xx_HAL_Driver/Src/stm32h7xx_hal_flash_ex.c **** 
 513:Drivers/STM32H7xx_HAL_Driver/Src/stm32h7xx_hal_flash_ex.c ****     /* Secure area configuration */
 514:Drivers/STM32H7xx_HAL_Driver/Src/stm32h7xx_hal_flash_ex.c ****     if((pOBInit->OptionType & OPTIONBYTE_SECURE_AREA) == OPTIONBYTE_SECURE_AREA)
 515:Drivers/STM32H7xx_HAL_Driver/Src/stm32h7xx_hal_flash_ex.c ****     {
 516:Drivers/STM32H7xx_HAL_Driver/Src/stm32h7xx_hal_flash_ex.c ****       FLASH_OB_SecureAreaConfig(pOBInit->SecureAreaConfig, pOBInit->SecureAreaStartAddr, pOBInit->S
 517:Drivers/STM32H7xx_HAL_Driver/Src/stm32h7xx_hal_flash_ex.c ****     }
 518:Drivers/STM32H7xx_HAL_Driver/Src/stm32h7xx_hal_flash_ex.c **** 
 519:Drivers/STM32H7xx_HAL_Driver/Src/stm32h7xx_hal_flash_ex.c **** #if defined(FLASH_OTPBL_LOCKBL)
 520:Drivers/STM32H7xx_HAL_Driver/Src/stm32h7xx_hal_flash_ex.c ****     /* OTP Block Lock configuration */
 521:Drivers/STM32H7xx_HAL_Driver/Src/stm32h7xx_hal_flash_ex.c ****     if((pOBInit->OptionType & OPTIONBYTE_OTP_LOCK) == OPTIONBYTE_OTP_LOCK)
 522:Drivers/STM32H7xx_HAL_Driver/Src/stm32h7xx_hal_flash_ex.c ****     {
 523:Drivers/STM32H7xx_HAL_Driver/Src/stm32h7xx_hal_flash_ex.c ****       FLASH_OB_OTP_LockConfig(pOBInit->OTPBlockLock);
 524:Drivers/STM32H7xx_HAL_Driver/Src/stm32h7xx_hal_flash_ex.c ****     }
 525:Drivers/STM32H7xx_HAL_Driver/Src/stm32h7xx_hal_flash_ex.c **** #endif /* FLASH_OTPBL_LOCKBL */
 526:Drivers/STM32H7xx_HAL_Driver/Src/stm32h7xx_hal_flash_ex.c **** 
 527:Drivers/STM32H7xx_HAL_Driver/Src/stm32h7xx_hal_flash_ex.c **** #if defined(FLASH_OPTSR2_TCM_AXI_SHARED)
 528:Drivers/STM32H7xx_HAL_Driver/Src/stm32h7xx_hal_flash_ex.c ****     /* TCM / AXI Shared RAM configuration */
 529:Drivers/STM32H7xx_HAL_Driver/Src/stm32h7xx_hal_flash_ex.c ****     if((pOBInit->OptionType & OPTIONBYTE_SHARED_RAM) == OPTIONBYTE_SHARED_RAM)
 530:Drivers/STM32H7xx_HAL_Driver/Src/stm32h7xx_hal_flash_ex.c ****     {
 531:Drivers/STM32H7xx_HAL_Driver/Src/stm32h7xx_hal_flash_ex.c ****       FLASH_OB_SharedRAM_Config(pOBInit->SharedRamConfig);
 532:Drivers/STM32H7xx_HAL_Driver/Src/stm32h7xx_hal_flash_ex.c ****     }
 533:Drivers/STM32H7xx_HAL_Driver/Src/stm32h7xx_hal_flash_ex.c **** #endif /* FLASH_OPTSR2_TCM_AXI_SHARED */
 534:Drivers/STM32H7xx_HAL_Driver/Src/stm32h7xx_hal_flash_ex.c **** 
 535:Drivers/STM32H7xx_HAL_Driver/Src/stm32h7xx_hal_flash_ex.c **** #if defined(FLASH_OPTSR2_CPUFREQ_BOOST)
 536:Drivers/STM32H7xx_HAL_Driver/Src/stm32h7xx_hal_flash_ex.c ****     /* CPU Frequency Boost configuration */
 537:Drivers/STM32H7xx_HAL_Driver/Src/stm32h7xx_hal_flash_ex.c ****     if((pOBInit->OptionType & OPTIONBYTE_FREQ_BOOST) == OPTIONBYTE_FREQ_BOOST)
 538:Drivers/STM32H7xx_HAL_Driver/Src/stm32h7xx_hal_flash_ex.c ****     {
 539:Drivers/STM32H7xx_HAL_Driver/Src/stm32h7xx_hal_flash_ex.c ****       FLASH_OB_CPUFreq_BoostConfig(pOBInit->FreqBoostState);
 540:Drivers/STM32H7xx_HAL_Driver/Src/stm32h7xx_hal_flash_ex.c ****     }
 541:Drivers/STM32H7xx_HAL_Driver/Src/stm32h7xx_hal_flash_ex.c **** #endif /* FLASH_OPTSR2_CPUFREQ_BOOST */
 542:Drivers/STM32H7xx_HAL_Driver/Src/stm32h7xx_hal_flash_ex.c ****   }
 543:Drivers/STM32H7xx_HAL_Driver/Src/stm32h7xx_hal_flash_ex.c **** 
 544:Drivers/STM32H7xx_HAL_Driver/Src/stm32h7xx_hal_flash_ex.c ****   /* Process Unlocked */
 545:Drivers/STM32H7xx_HAL_Driver/Src/stm32h7xx_hal_flash_ex.c ****   __HAL_UNLOCK(&pFlash);
ARM GAS  C:\Users\MadeuxS\AppData\Local\Temp\ccAPGHhR.s 			page 11


 546:Drivers/STM32H7xx_HAL_Driver/Src/stm32h7xx_hal_flash_ex.c **** 
 547:Drivers/STM32H7xx_HAL_Driver/Src/stm32h7xx_hal_flash_ex.c ****   return status;
 548:Drivers/STM32H7xx_HAL_Driver/Src/stm32h7xx_hal_flash_ex.c **** }
 549:Drivers/STM32H7xx_HAL_Driver/Src/stm32h7xx_hal_flash_ex.c **** 
 550:Drivers/STM32H7xx_HAL_Driver/Src/stm32h7xx_hal_flash_ex.c **** /**
 551:Drivers/STM32H7xx_HAL_Driver/Src/stm32h7xx_hal_flash_ex.c ****   * @brief Get the Option byte configuration
 552:Drivers/STM32H7xx_HAL_Driver/Src/stm32h7xx_hal_flash_ex.c ****   * @param  pOBInit pointer to an FLASH_OBInitStruct structure that
 553:Drivers/STM32H7xx_HAL_Driver/Src/stm32h7xx_hal_flash_ex.c ****   *         contains the configuration information for the programming.
 554:Drivers/STM32H7xx_HAL_Driver/Src/stm32h7xx_hal_flash_ex.c ****   * @note   The parameter Banks of the pOBInit structure must be set exclusively to FLASH_BANK_1 or
 555:Drivers/STM32H7xx_HAL_Driver/Src/stm32h7xx_hal_flash_ex.c ****   *         as this parameter is use to get the given Bank WRP, PCROP and secured area configuratio
 556:Drivers/STM32H7xx_HAL_Driver/Src/stm32h7xx_hal_flash_ex.c ****   *
 557:Drivers/STM32H7xx_HAL_Driver/Src/stm32h7xx_hal_flash_ex.c ****   * @retval None
 558:Drivers/STM32H7xx_HAL_Driver/Src/stm32h7xx_hal_flash_ex.c ****   */
 559:Drivers/STM32H7xx_HAL_Driver/Src/stm32h7xx_hal_flash_ex.c **** void HAL_FLASHEx_OBGetConfig(FLASH_OBProgramInitTypeDef *pOBInit)
 560:Drivers/STM32H7xx_HAL_Driver/Src/stm32h7xx_hal_flash_ex.c **** {
 561:Drivers/STM32H7xx_HAL_Driver/Src/stm32h7xx_hal_flash_ex.c ****   pOBInit->OptionType = (OPTIONBYTE_USER | OPTIONBYTE_RDP | OPTIONBYTE_BOR);
 562:Drivers/STM32H7xx_HAL_Driver/Src/stm32h7xx_hal_flash_ex.c **** 
 563:Drivers/STM32H7xx_HAL_Driver/Src/stm32h7xx_hal_flash_ex.c ****   /* Get Read protection level */
 564:Drivers/STM32H7xx_HAL_Driver/Src/stm32h7xx_hal_flash_ex.c ****   pOBInit->RDPLevel = FLASH_OB_GetRDP();
 565:Drivers/STM32H7xx_HAL_Driver/Src/stm32h7xx_hal_flash_ex.c **** 
 566:Drivers/STM32H7xx_HAL_Driver/Src/stm32h7xx_hal_flash_ex.c ****   /* Get the user option bytes */
 567:Drivers/STM32H7xx_HAL_Driver/Src/stm32h7xx_hal_flash_ex.c ****   pOBInit->USERConfig = FLASH_OB_GetUser();
 568:Drivers/STM32H7xx_HAL_Driver/Src/stm32h7xx_hal_flash_ex.c **** 
 569:Drivers/STM32H7xx_HAL_Driver/Src/stm32h7xx_hal_flash_ex.c ****   /*Get BOR Level*/
 570:Drivers/STM32H7xx_HAL_Driver/Src/stm32h7xx_hal_flash_ex.c ****   pOBInit->BORLevel = FLASH_OB_GetBOR();
 571:Drivers/STM32H7xx_HAL_Driver/Src/stm32h7xx_hal_flash_ex.c **** 
 572:Drivers/STM32H7xx_HAL_Driver/Src/stm32h7xx_hal_flash_ex.c **** #if defined (DUAL_BANK)
 573:Drivers/STM32H7xx_HAL_Driver/Src/stm32h7xx_hal_flash_ex.c ****   if ((pOBInit->Banks == FLASH_BANK_1) || (pOBInit->Banks == FLASH_BANK_2))
 574:Drivers/STM32H7xx_HAL_Driver/Src/stm32h7xx_hal_flash_ex.c **** #else
 575:Drivers/STM32H7xx_HAL_Driver/Src/stm32h7xx_hal_flash_ex.c ****   if (pOBInit->Banks == FLASH_BANK_1)
 576:Drivers/STM32H7xx_HAL_Driver/Src/stm32h7xx_hal_flash_ex.c **** #endif /* DUAL_BANK */
 577:Drivers/STM32H7xx_HAL_Driver/Src/stm32h7xx_hal_flash_ex.c ****   {
 578:Drivers/STM32H7xx_HAL_Driver/Src/stm32h7xx_hal_flash_ex.c ****     pOBInit->OptionType |= (OPTIONBYTE_WRP | OPTIONBYTE_PCROP | OPTIONBYTE_SECURE_AREA);
 579:Drivers/STM32H7xx_HAL_Driver/Src/stm32h7xx_hal_flash_ex.c **** 
 580:Drivers/STM32H7xx_HAL_Driver/Src/stm32h7xx_hal_flash_ex.c ****     /* Get write protection on the selected area */
 581:Drivers/STM32H7xx_HAL_Driver/Src/stm32h7xx_hal_flash_ex.c ****     FLASH_OB_GetWRP(&(pOBInit->WRPState), &(pOBInit->WRPSector), pOBInit->Banks);
 582:Drivers/STM32H7xx_HAL_Driver/Src/stm32h7xx_hal_flash_ex.c **** 
 583:Drivers/STM32H7xx_HAL_Driver/Src/stm32h7xx_hal_flash_ex.c ****     /* Get the Proprietary code readout protection */
 584:Drivers/STM32H7xx_HAL_Driver/Src/stm32h7xx_hal_flash_ex.c ****     FLASH_OB_GetPCROP(&(pOBInit->PCROPConfig), &(pOBInit->PCROPStartAddr), &(pOBInit->PCROPEndAddr)
 585:Drivers/STM32H7xx_HAL_Driver/Src/stm32h7xx_hal_flash_ex.c **** 
 586:Drivers/STM32H7xx_HAL_Driver/Src/stm32h7xx_hal_flash_ex.c ****     /*Get Bank Secure area*/
 587:Drivers/STM32H7xx_HAL_Driver/Src/stm32h7xx_hal_flash_ex.c ****     FLASH_OB_GetSecureArea(&(pOBInit->SecureAreaConfig), &(pOBInit->SecureAreaStartAddr), &(pOBInit
 588:Drivers/STM32H7xx_HAL_Driver/Src/stm32h7xx_hal_flash_ex.c ****   }
 589:Drivers/STM32H7xx_HAL_Driver/Src/stm32h7xx_hal_flash_ex.c **** 
 590:Drivers/STM32H7xx_HAL_Driver/Src/stm32h7xx_hal_flash_ex.c ****   /*Get Boot Address*/
 591:Drivers/STM32H7xx_HAL_Driver/Src/stm32h7xx_hal_flash_ex.c ****   FLASH_OB_GetBootAdd(&(pOBInit->BootAddr0), &(pOBInit->BootAddr1));
 592:Drivers/STM32H7xx_HAL_Driver/Src/stm32h7xx_hal_flash_ex.c **** #if defined(DUAL_CORE)
 593:Drivers/STM32H7xx_HAL_Driver/Src/stm32h7xx_hal_flash_ex.c ****   pOBInit->OptionType |= OPTIONBYTE_CM7_BOOTADD | OPTIONBYTE_CM4_BOOTADD;
 594:Drivers/STM32H7xx_HAL_Driver/Src/stm32h7xx_hal_flash_ex.c **** 
 595:Drivers/STM32H7xx_HAL_Driver/Src/stm32h7xx_hal_flash_ex.c ****   /*Get CM4 Boot Address*/
 596:Drivers/STM32H7xx_HAL_Driver/Src/stm32h7xx_hal_flash_ex.c ****   FLASH_OB_GetCM4BootAdd(&(pOBInit->CM4BootAddr0), &(pOBInit->CM4BootAddr1));
 597:Drivers/STM32H7xx_HAL_Driver/Src/stm32h7xx_hal_flash_ex.c **** #else
 598:Drivers/STM32H7xx_HAL_Driver/Src/stm32h7xx_hal_flash_ex.c ****   pOBInit->OptionType |= OPTIONBYTE_BOOTADD;
 599:Drivers/STM32H7xx_HAL_Driver/Src/stm32h7xx_hal_flash_ex.c **** #endif /*DUAL_CORE*/
 600:Drivers/STM32H7xx_HAL_Driver/Src/stm32h7xx_hal_flash_ex.c **** 
 601:Drivers/STM32H7xx_HAL_Driver/Src/stm32h7xx_hal_flash_ex.c **** #if defined (FLASH_OTPBL_LOCKBL)
 602:Drivers/STM32H7xx_HAL_Driver/Src/stm32h7xx_hal_flash_ex.c ****   pOBInit->OptionType |= OPTIONBYTE_OTP_LOCK;
ARM GAS  C:\Users\MadeuxS\AppData\Local\Temp\ccAPGHhR.s 			page 12


 603:Drivers/STM32H7xx_HAL_Driver/Src/stm32h7xx_hal_flash_ex.c **** 
 604:Drivers/STM32H7xx_HAL_Driver/Src/stm32h7xx_hal_flash_ex.c ****   /* Get OTP Block Lock */
 605:Drivers/STM32H7xx_HAL_Driver/Src/stm32h7xx_hal_flash_ex.c ****   pOBInit->OTPBlockLock = FLASH_OB_OTP_GetLock();
 606:Drivers/STM32H7xx_HAL_Driver/Src/stm32h7xx_hal_flash_ex.c **** #endif /* FLASH_OTPBL_LOCKBL */
 607:Drivers/STM32H7xx_HAL_Driver/Src/stm32h7xx_hal_flash_ex.c **** 
 608:Drivers/STM32H7xx_HAL_Driver/Src/stm32h7xx_hal_flash_ex.c **** #if defined (FLASH_OPTSR2_TCM_AXI_SHARED)
 609:Drivers/STM32H7xx_HAL_Driver/Src/stm32h7xx_hal_flash_ex.c ****   pOBInit->OptionType |= OPTIONBYTE_SHARED_RAM;
 610:Drivers/STM32H7xx_HAL_Driver/Src/stm32h7xx_hal_flash_ex.c **** 
 611:Drivers/STM32H7xx_HAL_Driver/Src/stm32h7xx_hal_flash_ex.c ****   /* Get TCM / AXI Shared RAM */
 612:Drivers/STM32H7xx_HAL_Driver/Src/stm32h7xx_hal_flash_ex.c ****   pOBInit->SharedRamConfig = FLASH_OB_SharedRAM_GetConfig();
 613:Drivers/STM32H7xx_HAL_Driver/Src/stm32h7xx_hal_flash_ex.c **** #endif /* FLASH_OPTSR2_TCM_AXI_SHARED */
 614:Drivers/STM32H7xx_HAL_Driver/Src/stm32h7xx_hal_flash_ex.c **** 
 615:Drivers/STM32H7xx_HAL_Driver/Src/stm32h7xx_hal_flash_ex.c **** #if defined (FLASH_OPTSR2_CPUFREQ_BOOST)
 616:Drivers/STM32H7xx_HAL_Driver/Src/stm32h7xx_hal_flash_ex.c ****   pOBInit->OptionType |= OPTIONBYTE_FREQ_BOOST;
 617:Drivers/STM32H7xx_HAL_Driver/Src/stm32h7xx_hal_flash_ex.c **** 
 618:Drivers/STM32H7xx_HAL_Driver/Src/stm32h7xx_hal_flash_ex.c ****   /* Get CPU Frequency Boost */
 619:Drivers/STM32H7xx_HAL_Driver/Src/stm32h7xx_hal_flash_ex.c ****   pOBInit->FreqBoostState = FLASH_OB_CPUFreq_GetBoost();
 620:Drivers/STM32H7xx_HAL_Driver/Src/stm32h7xx_hal_flash_ex.c **** #endif /* FLASH_OPTSR2_CPUFREQ_BOOST */
 621:Drivers/STM32H7xx_HAL_Driver/Src/stm32h7xx_hal_flash_ex.c **** }
 622:Drivers/STM32H7xx_HAL_Driver/Src/stm32h7xx_hal_flash_ex.c **** 
 623:Drivers/STM32H7xx_HAL_Driver/Src/stm32h7xx_hal_flash_ex.c **** /**
 624:Drivers/STM32H7xx_HAL_Driver/Src/stm32h7xx_hal_flash_ex.c ****   * @brief  Unlock the FLASH Bank1 control registers access
 625:Drivers/STM32H7xx_HAL_Driver/Src/stm32h7xx_hal_flash_ex.c ****   * @retval HAL Status
 626:Drivers/STM32H7xx_HAL_Driver/Src/stm32h7xx_hal_flash_ex.c ****   */
 627:Drivers/STM32H7xx_HAL_Driver/Src/stm32h7xx_hal_flash_ex.c **** HAL_StatusTypeDef HAL_FLASHEx_Unlock_Bank1(void)
 628:Drivers/STM32H7xx_HAL_Driver/Src/stm32h7xx_hal_flash_ex.c **** {
 629:Drivers/STM32H7xx_HAL_Driver/Src/stm32h7xx_hal_flash_ex.c ****   if(READ_BIT(FLASH->CR1, FLASH_CR_LOCK) != 0U)
 630:Drivers/STM32H7xx_HAL_Driver/Src/stm32h7xx_hal_flash_ex.c ****   {
 631:Drivers/STM32H7xx_HAL_Driver/Src/stm32h7xx_hal_flash_ex.c ****     /* Authorize the FLASH Bank1 Registers access */
 632:Drivers/STM32H7xx_HAL_Driver/Src/stm32h7xx_hal_flash_ex.c ****     WRITE_REG(FLASH->KEYR1, FLASH_KEY1);
 633:Drivers/STM32H7xx_HAL_Driver/Src/stm32h7xx_hal_flash_ex.c ****     WRITE_REG(FLASH->KEYR1, FLASH_KEY2);
 634:Drivers/STM32H7xx_HAL_Driver/Src/stm32h7xx_hal_flash_ex.c **** 
 635:Drivers/STM32H7xx_HAL_Driver/Src/stm32h7xx_hal_flash_ex.c ****     /* Verify Flash Bank1 is unlocked */
 636:Drivers/STM32H7xx_HAL_Driver/Src/stm32h7xx_hal_flash_ex.c ****     if (READ_BIT(FLASH->CR1, FLASH_CR_LOCK) != 0U)
 637:Drivers/STM32H7xx_HAL_Driver/Src/stm32h7xx_hal_flash_ex.c ****     {
 638:Drivers/STM32H7xx_HAL_Driver/Src/stm32h7xx_hal_flash_ex.c ****       return HAL_ERROR;
 639:Drivers/STM32H7xx_HAL_Driver/Src/stm32h7xx_hal_flash_ex.c ****     }
 640:Drivers/STM32H7xx_HAL_Driver/Src/stm32h7xx_hal_flash_ex.c ****   }
 641:Drivers/STM32H7xx_HAL_Driver/Src/stm32h7xx_hal_flash_ex.c **** 
 642:Drivers/STM32H7xx_HAL_Driver/Src/stm32h7xx_hal_flash_ex.c ****   return HAL_OK;
 643:Drivers/STM32H7xx_HAL_Driver/Src/stm32h7xx_hal_flash_ex.c **** }
 644:Drivers/STM32H7xx_HAL_Driver/Src/stm32h7xx_hal_flash_ex.c **** 
 645:Drivers/STM32H7xx_HAL_Driver/Src/stm32h7xx_hal_flash_ex.c **** /**
 646:Drivers/STM32H7xx_HAL_Driver/Src/stm32h7xx_hal_flash_ex.c ****   * @brief  Locks the FLASH Bank1 control registers access
 647:Drivers/STM32H7xx_HAL_Driver/Src/stm32h7xx_hal_flash_ex.c ****   * @retval HAL Status
 648:Drivers/STM32H7xx_HAL_Driver/Src/stm32h7xx_hal_flash_ex.c ****   */
 649:Drivers/STM32H7xx_HAL_Driver/Src/stm32h7xx_hal_flash_ex.c **** HAL_StatusTypeDef HAL_FLASHEx_Lock_Bank1(void)
 650:Drivers/STM32H7xx_HAL_Driver/Src/stm32h7xx_hal_flash_ex.c **** {
 651:Drivers/STM32H7xx_HAL_Driver/Src/stm32h7xx_hal_flash_ex.c ****   /* Set the LOCK Bit to lock the FLASH Bank1 Registers access */
 652:Drivers/STM32H7xx_HAL_Driver/Src/stm32h7xx_hal_flash_ex.c ****   SET_BIT(FLASH->CR1, FLASH_CR_LOCK);
 653:Drivers/STM32H7xx_HAL_Driver/Src/stm32h7xx_hal_flash_ex.c ****   return HAL_OK;
 654:Drivers/STM32H7xx_HAL_Driver/Src/stm32h7xx_hal_flash_ex.c **** }
 655:Drivers/STM32H7xx_HAL_Driver/Src/stm32h7xx_hal_flash_ex.c **** 
 656:Drivers/STM32H7xx_HAL_Driver/Src/stm32h7xx_hal_flash_ex.c **** #if defined (DUAL_BANK)
 657:Drivers/STM32H7xx_HAL_Driver/Src/stm32h7xx_hal_flash_ex.c **** /**
 658:Drivers/STM32H7xx_HAL_Driver/Src/stm32h7xx_hal_flash_ex.c ****   * @brief  Unlock the FLASH Bank2 control registers access
 659:Drivers/STM32H7xx_HAL_Driver/Src/stm32h7xx_hal_flash_ex.c ****   * @retval HAL Status
ARM GAS  C:\Users\MadeuxS\AppData\Local\Temp\ccAPGHhR.s 			page 13


 660:Drivers/STM32H7xx_HAL_Driver/Src/stm32h7xx_hal_flash_ex.c ****   */
 661:Drivers/STM32H7xx_HAL_Driver/Src/stm32h7xx_hal_flash_ex.c **** HAL_StatusTypeDef HAL_FLASHEx_Unlock_Bank2(void)
 662:Drivers/STM32H7xx_HAL_Driver/Src/stm32h7xx_hal_flash_ex.c **** {
 663:Drivers/STM32H7xx_HAL_Driver/Src/stm32h7xx_hal_flash_ex.c ****   if(READ_BIT(FLASH->CR2, FLASH_CR_LOCK) != 0U)
 664:Drivers/STM32H7xx_HAL_Driver/Src/stm32h7xx_hal_flash_ex.c ****   {
 665:Drivers/STM32H7xx_HAL_Driver/Src/stm32h7xx_hal_flash_ex.c ****     /* Authorize the FLASH Bank2 Registers access */
 666:Drivers/STM32H7xx_HAL_Driver/Src/stm32h7xx_hal_flash_ex.c ****     WRITE_REG(FLASH->KEYR2, FLASH_KEY1);
 667:Drivers/STM32H7xx_HAL_Driver/Src/stm32h7xx_hal_flash_ex.c ****     WRITE_REG(FLASH->KEYR2, FLASH_KEY2);
 668:Drivers/STM32H7xx_HAL_Driver/Src/stm32h7xx_hal_flash_ex.c **** 
 669:Drivers/STM32H7xx_HAL_Driver/Src/stm32h7xx_hal_flash_ex.c ****     /* Verify Flash Bank1 is unlocked */
 670:Drivers/STM32H7xx_HAL_Driver/Src/stm32h7xx_hal_flash_ex.c ****     if (READ_BIT(FLASH->CR2, FLASH_CR_LOCK) != 0U)
 671:Drivers/STM32H7xx_HAL_Driver/Src/stm32h7xx_hal_flash_ex.c ****     {
 672:Drivers/STM32H7xx_HAL_Driver/Src/stm32h7xx_hal_flash_ex.c ****       return HAL_ERROR;
 673:Drivers/STM32H7xx_HAL_Driver/Src/stm32h7xx_hal_flash_ex.c ****     }
 674:Drivers/STM32H7xx_HAL_Driver/Src/stm32h7xx_hal_flash_ex.c ****   }
 675:Drivers/STM32H7xx_HAL_Driver/Src/stm32h7xx_hal_flash_ex.c **** 
 676:Drivers/STM32H7xx_HAL_Driver/Src/stm32h7xx_hal_flash_ex.c ****   return HAL_OK;
 677:Drivers/STM32H7xx_HAL_Driver/Src/stm32h7xx_hal_flash_ex.c **** }
 678:Drivers/STM32H7xx_HAL_Driver/Src/stm32h7xx_hal_flash_ex.c **** 
 679:Drivers/STM32H7xx_HAL_Driver/Src/stm32h7xx_hal_flash_ex.c **** /**
 680:Drivers/STM32H7xx_HAL_Driver/Src/stm32h7xx_hal_flash_ex.c ****   * @brief  Locks the FLASH Bank2 control registers access
 681:Drivers/STM32H7xx_HAL_Driver/Src/stm32h7xx_hal_flash_ex.c ****   * @retval HAL Status
 682:Drivers/STM32H7xx_HAL_Driver/Src/stm32h7xx_hal_flash_ex.c ****   */
 683:Drivers/STM32H7xx_HAL_Driver/Src/stm32h7xx_hal_flash_ex.c **** HAL_StatusTypeDef HAL_FLASHEx_Lock_Bank2(void)
 684:Drivers/STM32H7xx_HAL_Driver/Src/stm32h7xx_hal_flash_ex.c **** {
 685:Drivers/STM32H7xx_HAL_Driver/Src/stm32h7xx_hal_flash_ex.c ****   /* Set the LOCK Bit to lock the FLASH Bank2 Registers access */
 686:Drivers/STM32H7xx_HAL_Driver/Src/stm32h7xx_hal_flash_ex.c ****   SET_BIT(FLASH->CR2, FLASH_CR_LOCK);
 687:Drivers/STM32H7xx_HAL_Driver/Src/stm32h7xx_hal_flash_ex.c ****   return HAL_OK;
 688:Drivers/STM32H7xx_HAL_Driver/Src/stm32h7xx_hal_flash_ex.c **** }
 689:Drivers/STM32H7xx_HAL_Driver/Src/stm32h7xx_hal_flash_ex.c **** #endif /* DUAL_BANK */
 690:Drivers/STM32H7xx_HAL_Driver/Src/stm32h7xx_hal_flash_ex.c **** 
 691:Drivers/STM32H7xx_HAL_Driver/Src/stm32h7xx_hal_flash_ex.c **** /*
 692:Drivers/STM32H7xx_HAL_Driver/Src/stm32h7xx_hal_flash_ex.c ****   * @brief  Perform a CRC computation on the specified FLASH memory area
 693:Drivers/STM32H7xx_HAL_Driver/Src/stm32h7xx_hal_flash_ex.c ****   * @param  pCRCInit pointer to an FLASH_CRCInitTypeDef structure that
 694:Drivers/STM32H7xx_HAL_Driver/Src/stm32h7xx_hal_flash_ex.c ****   *         contains the configuration information for the CRC computation.
 695:Drivers/STM32H7xx_HAL_Driver/Src/stm32h7xx_hal_flash_ex.c ****   * @note   CRC computation uses CRC-32 (Ethernet) polynomial 0x4C11DB7
 696:Drivers/STM32H7xx_HAL_Driver/Src/stm32h7xx_hal_flash_ex.c ****   * @note   The application should avoid running a CRC on PCROP or secure-only
 697:Drivers/STM32H7xx_HAL_Driver/Src/stm32h7xx_hal_flash_ex.c ****   *         user Flash memory area since it may alter the expected CRC value.
 698:Drivers/STM32H7xx_HAL_Driver/Src/stm32h7xx_hal_flash_ex.c ****   *         A special error flag (CRC read error: CRCRDERR) can be used to
 699:Drivers/STM32H7xx_HAL_Driver/Src/stm32h7xx_hal_flash_ex.c ****   *         detect such a case.
 700:Drivers/STM32H7xx_HAL_Driver/Src/stm32h7xx_hal_flash_ex.c ****   * @retval HAL Status
 701:Drivers/STM32H7xx_HAL_Driver/Src/stm32h7xx_hal_flash_ex.c **** */
 702:Drivers/STM32H7xx_HAL_Driver/Src/stm32h7xx_hal_flash_ex.c **** HAL_StatusTypeDef HAL_FLASHEx_ComputeCRC(FLASH_CRCInitTypeDef *pCRCInit, uint32_t *CRC_Result)
 703:Drivers/STM32H7xx_HAL_Driver/Src/stm32h7xx_hal_flash_ex.c **** {
 704:Drivers/STM32H7xx_HAL_Driver/Src/stm32h7xx_hal_flash_ex.c ****   HAL_StatusTypeDef status;
 705:Drivers/STM32H7xx_HAL_Driver/Src/stm32h7xx_hal_flash_ex.c ****   uint32_t sector_index;
 706:Drivers/STM32H7xx_HAL_Driver/Src/stm32h7xx_hal_flash_ex.c **** 
 707:Drivers/STM32H7xx_HAL_Driver/Src/stm32h7xx_hal_flash_ex.c ****   /* Check the parameters */
 708:Drivers/STM32H7xx_HAL_Driver/Src/stm32h7xx_hal_flash_ex.c ****   assert_param(IS_FLASH_BANK_EXCLUSIVE(pCRCInit->Bank));
 709:Drivers/STM32H7xx_HAL_Driver/Src/stm32h7xx_hal_flash_ex.c ****   assert_param(IS_FLASH_TYPECRC(pCRCInit->TypeCRC));
 710:Drivers/STM32H7xx_HAL_Driver/Src/stm32h7xx_hal_flash_ex.c **** 
 711:Drivers/STM32H7xx_HAL_Driver/Src/stm32h7xx_hal_flash_ex.c ****   /* Wait for OB change operation to be completed */
 712:Drivers/STM32H7xx_HAL_Driver/Src/stm32h7xx_hal_flash_ex.c ****   status = FLASH_OB_WaitForLastOperation((uint32_t)FLASH_TIMEOUT_VALUE);
 713:Drivers/STM32H7xx_HAL_Driver/Src/stm32h7xx_hal_flash_ex.c **** 
 714:Drivers/STM32H7xx_HAL_Driver/Src/stm32h7xx_hal_flash_ex.c ****   if (status == HAL_OK)
 715:Drivers/STM32H7xx_HAL_Driver/Src/stm32h7xx_hal_flash_ex.c ****   {
 716:Drivers/STM32H7xx_HAL_Driver/Src/stm32h7xx_hal_flash_ex.c ****     if (pCRCInit->Bank == FLASH_BANK_1)
ARM GAS  C:\Users\MadeuxS\AppData\Local\Temp\ccAPGHhR.s 			page 14


 717:Drivers/STM32H7xx_HAL_Driver/Src/stm32h7xx_hal_flash_ex.c ****     {
 718:Drivers/STM32H7xx_HAL_Driver/Src/stm32h7xx_hal_flash_ex.c ****       /* Enable CRC feature */
 719:Drivers/STM32H7xx_HAL_Driver/Src/stm32h7xx_hal_flash_ex.c ****       FLASH->CR1 |= FLASH_CR_CRC_EN;
 720:Drivers/STM32H7xx_HAL_Driver/Src/stm32h7xx_hal_flash_ex.c **** 
 721:Drivers/STM32H7xx_HAL_Driver/Src/stm32h7xx_hal_flash_ex.c ****       /* Clear CRC flags in Status Register: CRC end of calculation and CRC read error */
 722:Drivers/STM32H7xx_HAL_Driver/Src/stm32h7xx_hal_flash_ex.c ****       FLASH->CCR1 |= (FLASH_CCR_CLR_CRCEND | FLASH_CCR_CLR_CRCRDERR);
 723:Drivers/STM32H7xx_HAL_Driver/Src/stm32h7xx_hal_flash_ex.c **** 
 724:Drivers/STM32H7xx_HAL_Driver/Src/stm32h7xx_hal_flash_ex.c ****       /* Clear current CRC result, program burst size and define memory area on which CRC has to be
 725:Drivers/STM32H7xx_HAL_Driver/Src/stm32h7xx_hal_flash_ex.c ****       FLASH->CRCCR1 |= FLASH_CRCCR_CLEAN_CRC | pCRCInit->BurstSize | pCRCInit->TypeCRC;
 726:Drivers/STM32H7xx_HAL_Driver/Src/stm32h7xx_hal_flash_ex.c **** 
 727:Drivers/STM32H7xx_HAL_Driver/Src/stm32h7xx_hal_flash_ex.c ****       if (pCRCInit->TypeCRC == FLASH_CRC_SECTORS)
 728:Drivers/STM32H7xx_HAL_Driver/Src/stm32h7xx_hal_flash_ex.c ****       {
 729:Drivers/STM32H7xx_HAL_Driver/Src/stm32h7xx_hal_flash_ex.c ****         /* Clear sectors list */
 730:Drivers/STM32H7xx_HAL_Driver/Src/stm32h7xx_hal_flash_ex.c ****         FLASH->CRCCR1 |= FLASH_CRCCR_CLEAN_SECT;
 731:Drivers/STM32H7xx_HAL_Driver/Src/stm32h7xx_hal_flash_ex.c **** 
 732:Drivers/STM32H7xx_HAL_Driver/Src/stm32h7xx_hal_flash_ex.c ****         /* Select CRC sectors */
 733:Drivers/STM32H7xx_HAL_Driver/Src/stm32h7xx_hal_flash_ex.c ****         for(sector_index = pCRCInit->Sector; sector_index < (pCRCInit->NbSectors + pCRCInit->Sector
 734:Drivers/STM32H7xx_HAL_Driver/Src/stm32h7xx_hal_flash_ex.c ****         {
 735:Drivers/STM32H7xx_HAL_Driver/Src/stm32h7xx_hal_flash_ex.c ****           FLASH_CRC_AddSector(sector_index, FLASH_BANK_1);
 736:Drivers/STM32H7xx_HAL_Driver/Src/stm32h7xx_hal_flash_ex.c ****         }
 737:Drivers/STM32H7xx_HAL_Driver/Src/stm32h7xx_hal_flash_ex.c ****       }
 738:Drivers/STM32H7xx_HAL_Driver/Src/stm32h7xx_hal_flash_ex.c ****       else if (pCRCInit->TypeCRC == FLASH_CRC_BANK)
 739:Drivers/STM32H7xx_HAL_Driver/Src/stm32h7xx_hal_flash_ex.c ****       {
 740:Drivers/STM32H7xx_HAL_Driver/Src/stm32h7xx_hal_flash_ex.c ****         /* Enable Bank 1 CRC select bit */
 741:Drivers/STM32H7xx_HAL_Driver/Src/stm32h7xx_hal_flash_ex.c ****         FLASH->CRCCR1 |= FLASH_CRCCR_ALL_BANK;
 742:Drivers/STM32H7xx_HAL_Driver/Src/stm32h7xx_hal_flash_ex.c ****       }
 743:Drivers/STM32H7xx_HAL_Driver/Src/stm32h7xx_hal_flash_ex.c ****       else
 744:Drivers/STM32H7xx_HAL_Driver/Src/stm32h7xx_hal_flash_ex.c ****       {
 745:Drivers/STM32H7xx_HAL_Driver/Src/stm32h7xx_hal_flash_ex.c ****         /* Select CRC start and end addresses */
 746:Drivers/STM32H7xx_HAL_Driver/Src/stm32h7xx_hal_flash_ex.c ****         FLASH_CRC_SelectAddress(pCRCInit->CRCStartAddr, pCRCInit->CRCEndAddr, FLASH_BANK_1);
 747:Drivers/STM32H7xx_HAL_Driver/Src/stm32h7xx_hal_flash_ex.c ****       }
 748:Drivers/STM32H7xx_HAL_Driver/Src/stm32h7xx_hal_flash_ex.c **** 
 749:Drivers/STM32H7xx_HAL_Driver/Src/stm32h7xx_hal_flash_ex.c ****       /* Start the CRC calculation */
 750:Drivers/STM32H7xx_HAL_Driver/Src/stm32h7xx_hal_flash_ex.c ****       FLASH->CRCCR1 |= FLASH_CRCCR_START_CRC;
 751:Drivers/STM32H7xx_HAL_Driver/Src/stm32h7xx_hal_flash_ex.c **** 
 752:Drivers/STM32H7xx_HAL_Driver/Src/stm32h7xx_hal_flash_ex.c ****       /* Wait on CRC busy flag */
 753:Drivers/STM32H7xx_HAL_Driver/Src/stm32h7xx_hal_flash_ex.c ****       status = FLASH_CRC_WaitForLastOperation((uint32_t)FLASH_TIMEOUT_VALUE, FLASH_BANK_1);
 754:Drivers/STM32H7xx_HAL_Driver/Src/stm32h7xx_hal_flash_ex.c **** 
 755:Drivers/STM32H7xx_HAL_Driver/Src/stm32h7xx_hal_flash_ex.c ****       /* Return CRC result */
 756:Drivers/STM32H7xx_HAL_Driver/Src/stm32h7xx_hal_flash_ex.c ****       (*CRC_Result) = FLASH->CRCDATA;
 757:Drivers/STM32H7xx_HAL_Driver/Src/stm32h7xx_hal_flash_ex.c **** 
 758:Drivers/STM32H7xx_HAL_Driver/Src/stm32h7xx_hal_flash_ex.c ****       /* Disable CRC feature */
 759:Drivers/STM32H7xx_HAL_Driver/Src/stm32h7xx_hal_flash_ex.c ****       FLASH->CR1 &= (~FLASH_CR_CRC_EN);
 760:Drivers/STM32H7xx_HAL_Driver/Src/stm32h7xx_hal_flash_ex.c **** 
 761:Drivers/STM32H7xx_HAL_Driver/Src/stm32h7xx_hal_flash_ex.c ****       /* Clear CRC flags */
 762:Drivers/STM32H7xx_HAL_Driver/Src/stm32h7xx_hal_flash_ex.c ****       __HAL_FLASH_CLEAR_FLAG_BANK1(FLASH_FLAG_CRCEND_BANK1 | FLASH_FLAG_CRCRDERR_BANK1);
 763:Drivers/STM32H7xx_HAL_Driver/Src/stm32h7xx_hal_flash_ex.c ****     }
 764:Drivers/STM32H7xx_HAL_Driver/Src/stm32h7xx_hal_flash_ex.c **** #if defined (DUAL_BANK)
 765:Drivers/STM32H7xx_HAL_Driver/Src/stm32h7xx_hal_flash_ex.c ****     else
 766:Drivers/STM32H7xx_HAL_Driver/Src/stm32h7xx_hal_flash_ex.c ****     {
 767:Drivers/STM32H7xx_HAL_Driver/Src/stm32h7xx_hal_flash_ex.c ****       /* Enable CRC feature */
 768:Drivers/STM32H7xx_HAL_Driver/Src/stm32h7xx_hal_flash_ex.c ****       FLASH->CR2 |= FLASH_CR_CRC_EN;
 769:Drivers/STM32H7xx_HAL_Driver/Src/stm32h7xx_hal_flash_ex.c **** 
 770:Drivers/STM32H7xx_HAL_Driver/Src/stm32h7xx_hal_flash_ex.c ****       /* Clear CRC flags in Status Register: CRC end of calculation and CRC read error */
 771:Drivers/STM32H7xx_HAL_Driver/Src/stm32h7xx_hal_flash_ex.c ****       FLASH->CCR2 |= (FLASH_CCR_CLR_CRCEND | FLASH_CCR_CLR_CRCRDERR);
 772:Drivers/STM32H7xx_HAL_Driver/Src/stm32h7xx_hal_flash_ex.c **** 
 773:Drivers/STM32H7xx_HAL_Driver/Src/stm32h7xx_hal_flash_ex.c ****       /* Clear current CRC result, program burst size and define memory area on which CRC has to be
ARM GAS  C:\Users\MadeuxS\AppData\Local\Temp\ccAPGHhR.s 			page 15


 774:Drivers/STM32H7xx_HAL_Driver/Src/stm32h7xx_hal_flash_ex.c ****       FLASH->CRCCR2 |= FLASH_CRCCR_CLEAN_CRC | pCRCInit->BurstSize | pCRCInit->TypeCRC;
 775:Drivers/STM32H7xx_HAL_Driver/Src/stm32h7xx_hal_flash_ex.c **** 
 776:Drivers/STM32H7xx_HAL_Driver/Src/stm32h7xx_hal_flash_ex.c ****       if (pCRCInit->TypeCRC == FLASH_CRC_SECTORS)
 777:Drivers/STM32H7xx_HAL_Driver/Src/stm32h7xx_hal_flash_ex.c ****       {
 778:Drivers/STM32H7xx_HAL_Driver/Src/stm32h7xx_hal_flash_ex.c ****         /* Clear sectors list */
 779:Drivers/STM32H7xx_HAL_Driver/Src/stm32h7xx_hal_flash_ex.c ****         FLASH->CRCCR2 |= FLASH_CRCCR_CLEAN_SECT;
 780:Drivers/STM32H7xx_HAL_Driver/Src/stm32h7xx_hal_flash_ex.c **** 
 781:Drivers/STM32H7xx_HAL_Driver/Src/stm32h7xx_hal_flash_ex.c ****         /* Add CRC sectors */
 782:Drivers/STM32H7xx_HAL_Driver/Src/stm32h7xx_hal_flash_ex.c ****         for(sector_index = pCRCInit->Sector; sector_index < (pCRCInit->NbSectors + pCRCInit->Sector
 783:Drivers/STM32H7xx_HAL_Driver/Src/stm32h7xx_hal_flash_ex.c ****         {
 784:Drivers/STM32H7xx_HAL_Driver/Src/stm32h7xx_hal_flash_ex.c ****           FLASH_CRC_AddSector(sector_index, FLASH_BANK_2);
 785:Drivers/STM32H7xx_HAL_Driver/Src/stm32h7xx_hal_flash_ex.c ****         }
 786:Drivers/STM32H7xx_HAL_Driver/Src/stm32h7xx_hal_flash_ex.c ****       }
 787:Drivers/STM32H7xx_HAL_Driver/Src/stm32h7xx_hal_flash_ex.c ****       else if (pCRCInit->TypeCRC == FLASH_CRC_BANK)
 788:Drivers/STM32H7xx_HAL_Driver/Src/stm32h7xx_hal_flash_ex.c ****       {
 789:Drivers/STM32H7xx_HAL_Driver/Src/stm32h7xx_hal_flash_ex.c ****         /* Enable Bank 2 CRC select bit */
 790:Drivers/STM32H7xx_HAL_Driver/Src/stm32h7xx_hal_flash_ex.c ****         FLASH->CRCCR2 |= FLASH_CRCCR_ALL_BANK;
 791:Drivers/STM32H7xx_HAL_Driver/Src/stm32h7xx_hal_flash_ex.c ****       }
 792:Drivers/STM32H7xx_HAL_Driver/Src/stm32h7xx_hal_flash_ex.c ****       else
 793:Drivers/STM32H7xx_HAL_Driver/Src/stm32h7xx_hal_flash_ex.c ****       {
 794:Drivers/STM32H7xx_HAL_Driver/Src/stm32h7xx_hal_flash_ex.c ****         /* Select CRC start and end addresses */
 795:Drivers/STM32H7xx_HAL_Driver/Src/stm32h7xx_hal_flash_ex.c ****         FLASH_CRC_SelectAddress(pCRCInit->CRCStartAddr, pCRCInit->CRCEndAddr, FLASH_BANK_2);
 796:Drivers/STM32H7xx_HAL_Driver/Src/stm32h7xx_hal_flash_ex.c ****       }
 797:Drivers/STM32H7xx_HAL_Driver/Src/stm32h7xx_hal_flash_ex.c **** 
 798:Drivers/STM32H7xx_HAL_Driver/Src/stm32h7xx_hal_flash_ex.c ****       /* Start the CRC calculation */
 799:Drivers/STM32H7xx_HAL_Driver/Src/stm32h7xx_hal_flash_ex.c ****       FLASH->CRCCR2 |= FLASH_CRCCR_START_CRC;
 800:Drivers/STM32H7xx_HAL_Driver/Src/stm32h7xx_hal_flash_ex.c **** 
 801:Drivers/STM32H7xx_HAL_Driver/Src/stm32h7xx_hal_flash_ex.c ****       /* Wait on CRC busy flag */
 802:Drivers/STM32H7xx_HAL_Driver/Src/stm32h7xx_hal_flash_ex.c ****       status = FLASH_CRC_WaitForLastOperation((uint32_t)FLASH_TIMEOUT_VALUE, FLASH_BANK_2);
 803:Drivers/STM32H7xx_HAL_Driver/Src/stm32h7xx_hal_flash_ex.c **** 
 804:Drivers/STM32H7xx_HAL_Driver/Src/stm32h7xx_hal_flash_ex.c ****       /* Return CRC result */
 805:Drivers/STM32H7xx_HAL_Driver/Src/stm32h7xx_hal_flash_ex.c ****       (*CRC_Result) = FLASH->CRCDATA;
 806:Drivers/STM32H7xx_HAL_Driver/Src/stm32h7xx_hal_flash_ex.c **** 
 807:Drivers/STM32H7xx_HAL_Driver/Src/stm32h7xx_hal_flash_ex.c ****       /* Disable CRC feature */
 808:Drivers/STM32H7xx_HAL_Driver/Src/stm32h7xx_hal_flash_ex.c ****       FLASH->CR2 &= (~FLASH_CR_CRC_EN);
 809:Drivers/STM32H7xx_HAL_Driver/Src/stm32h7xx_hal_flash_ex.c **** 
 810:Drivers/STM32H7xx_HAL_Driver/Src/stm32h7xx_hal_flash_ex.c ****       /* Clear CRC flags */
 811:Drivers/STM32H7xx_HAL_Driver/Src/stm32h7xx_hal_flash_ex.c ****       __HAL_FLASH_CLEAR_FLAG_BANK2(FLASH_FLAG_CRCEND_BANK2 | FLASH_FLAG_CRCRDERR_BANK2);
 812:Drivers/STM32H7xx_HAL_Driver/Src/stm32h7xx_hal_flash_ex.c ****     }
 813:Drivers/STM32H7xx_HAL_Driver/Src/stm32h7xx_hal_flash_ex.c **** #endif /* DUAL_BANK */
 814:Drivers/STM32H7xx_HAL_Driver/Src/stm32h7xx_hal_flash_ex.c ****   }
 815:Drivers/STM32H7xx_HAL_Driver/Src/stm32h7xx_hal_flash_ex.c **** 
 816:Drivers/STM32H7xx_HAL_Driver/Src/stm32h7xx_hal_flash_ex.c ****   return status;
 817:Drivers/STM32H7xx_HAL_Driver/Src/stm32h7xx_hal_flash_ex.c **** }
 818:Drivers/STM32H7xx_HAL_Driver/Src/stm32h7xx_hal_flash_ex.c **** 
 819:Drivers/STM32H7xx_HAL_Driver/Src/stm32h7xx_hal_flash_ex.c **** /**
 820:Drivers/STM32H7xx_HAL_Driver/Src/stm32h7xx_hal_flash_ex.c ****   * @}
 821:Drivers/STM32H7xx_HAL_Driver/Src/stm32h7xx_hal_flash_ex.c ****   */
 822:Drivers/STM32H7xx_HAL_Driver/Src/stm32h7xx_hal_flash_ex.c **** 
 823:Drivers/STM32H7xx_HAL_Driver/Src/stm32h7xx_hal_flash_ex.c **** /**
 824:Drivers/STM32H7xx_HAL_Driver/Src/stm32h7xx_hal_flash_ex.c ****   * @}
 825:Drivers/STM32H7xx_HAL_Driver/Src/stm32h7xx_hal_flash_ex.c ****   */
 826:Drivers/STM32H7xx_HAL_Driver/Src/stm32h7xx_hal_flash_ex.c **** 
 827:Drivers/STM32H7xx_HAL_Driver/Src/stm32h7xx_hal_flash_ex.c **** /* Private functions ---------------------------------------------------------*/
 828:Drivers/STM32H7xx_HAL_Driver/Src/stm32h7xx_hal_flash_ex.c **** 
 829:Drivers/STM32H7xx_HAL_Driver/Src/stm32h7xx_hal_flash_ex.c **** /** @addtogroup FLASHEx_Private_Functions
 830:Drivers/STM32H7xx_HAL_Driver/Src/stm32h7xx_hal_flash_ex.c ****   * @{
ARM GAS  C:\Users\MadeuxS\AppData\Local\Temp\ccAPGHhR.s 			page 16


 831:Drivers/STM32H7xx_HAL_Driver/Src/stm32h7xx_hal_flash_ex.c ****   */
 832:Drivers/STM32H7xx_HAL_Driver/Src/stm32h7xx_hal_flash_ex.c **** 
 833:Drivers/STM32H7xx_HAL_Driver/Src/stm32h7xx_hal_flash_ex.c **** /**
 834:Drivers/STM32H7xx_HAL_Driver/Src/stm32h7xx_hal_flash_ex.c ****   * @brief  Mass erase of FLASH memory
 835:Drivers/STM32H7xx_HAL_Driver/Src/stm32h7xx_hal_flash_ex.c ****   * @param  VoltageRange The device program/erase parallelism.
 836:Drivers/STM32H7xx_HAL_Driver/Src/stm32h7xx_hal_flash_ex.c ****   *          This parameter can be one of the following values:
 837:Drivers/STM32H7xx_HAL_Driver/Src/stm32h7xx_hal_flash_ex.c ****   *            @arg FLASH_VOLTAGE_RANGE_1 : Flash program/erase by 8 bits
 838:Drivers/STM32H7xx_HAL_Driver/Src/stm32h7xx_hal_flash_ex.c ****   *            @arg FLASH_VOLTAGE_RANGE_2 : Flash program/erase by 16 bits
 839:Drivers/STM32H7xx_HAL_Driver/Src/stm32h7xx_hal_flash_ex.c ****   *            @arg FLASH_VOLTAGE_RANGE_3 : Flash program/erase by 32 bits
 840:Drivers/STM32H7xx_HAL_Driver/Src/stm32h7xx_hal_flash_ex.c ****   *            @arg FLASH_VOLTAGE_RANGE_4 : Flash program/erase by 64 bits
 841:Drivers/STM32H7xx_HAL_Driver/Src/stm32h7xx_hal_flash_ex.c ****   *
 842:Drivers/STM32H7xx_HAL_Driver/Src/stm32h7xx_hal_flash_ex.c ****   * @param  Banks Banks to be erased
 843:Drivers/STM32H7xx_HAL_Driver/Src/stm32h7xx_hal_flash_ex.c ****   *          This parameter can be one of the following values:
 844:Drivers/STM32H7xx_HAL_Driver/Src/stm32h7xx_hal_flash_ex.c ****   *            @arg FLASH_BANK_1: Bank1 to be erased
 845:Drivers/STM32H7xx_HAL_Driver/Src/stm32h7xx_hal_flash_ex.c ****   *            @arg FLASH_BANK_2: Bank2 to be erased
 846:Drivers/STM32H7xx_HAL_Driver/Src/stm32h7xx_hal_flash_ex.c ****   *            @arg FLASH_BANK_BOTH: Bank1 and Bank2 to be erased
 847:Drivers/STM32H7xx_HAL_Driver/Src/stm32h7xx_hal_flash_ex.c ****   *
 848:Drivers/STM32H7xx_HAL_Driver/Src/stm32h7xx_hal_flash_ex.c ****   * @retval HAL Status
 849:Drivers/STM32H7xx_HAL_Driver/Src/stm32h7xx_hal_flash_ex.c ****   */
 850:Drivers/STM32H7xx_HAL_Driver/Src/stm32h7xx_hal_flash_ex.c **** static void FLASH_MassErase(uint32_t VoltageRange, uint32_t Banks)
 851:Drivers/STM32H7xx_HAL_Driver/Src/stm32h7xx_hal_flash_ex.c **** {
  27              		.loc 1 851 1 view -0
  28              		.cfi_startproc
  29              		@ args = 0, pretend = 0, frame = 0
  30              		@ frame_needed = 0, uses_anonymous_args = 0
  31              		@ link register save eliminated.
 852:Drivers/STM32H7xx_HAL_Driver/Src/stm32h7xx_hal_flash_ex.c ****   /* Check the parameters */
 853:Drivers/STM32H7xx_HAL_Driver/Src/stm32h7xx_hal_flash_ex.c **** #if defined (FLASH_CR_PSIZE)
 854:Drivers/STM32H7xx_HAL_Driver/Src/stm32h7xx_hal_flash_ex.c ****   assert_param(IS_VOLTAGERANGE(VoltageRange));
  32              		.loc 1 854 3 view .LVU1
 855:Drivers/STM32H7xx_HAL_Driver/Src/stm32h7xx_hal_flash_ex.c **** #else
 856:Drivers/STM32H7xx_HAL_Driver/Src/stm32h7xx_hal_flash_ex.c ****   UNUSED(VoltageRange);
 857:Drivers/STM32H7xx_HAL_Driver/Src/stm32h7xx_hal_flash_ex.c **** #endif /* FLASH_CR_PSIZE */
 858:Drivers/STM32H7xx_HAL_Driver/Src/stm32h7xx_hal_flash_ex.c ****   assert_param(IS_FLASH_BANK(Banks));
  33              		.loc 1 858 3 view .LVU2
 859:Drivers/STM32H7xx_HAL_Driver/Src/stm32h7xx_hal_flash_ex.c **** 
 860:Drivers/STM32H7xx_HAL_Driver/Src/stm32h7xx_hal_flash_ex.c **** #if defined (DUAL_BANK)
 861:Drivers/STM32H7xx_HAL_Driver/Src/stm32h7xx_hal_flash_ex.c ****   /* Flash Mass Erase */
 862:Drivers/STM32H7xx_HAL_Driver/Src/stm32h7xx_hal_flash_ex.c ****   if((Banks & FLASH_BANK_BOTH) == FLASH_BANK_BOTH)
  34              		.loc 1 862 3 view .LVU3
  35              		.loc 1 862 13 is_stmt 0 view .LVU4
  36 0000 01F00303 		and	r3, r1, #3
  37              		.loc 1 862 5 view .LVU5
  38 0004 032B     		cmp	r3, #3
  39 0006 22D0     		beq	.L12
 863:Drivers/STM32H7xx_HAL_Driver/Src/stm32h7xx_hal_flash_ex.c ****   {
 864:Drivers/STM32H7xx_HAL_Driver/Src/stm32h7xx_hal_flash_ex.c **** #if defined (FLASH_CR_PSIZE)
 865:Drivers/STM32H7xx_HAL_Driver/Src/stm32h7xx_hal_flash_ex.c ****     /* Reset Program/erase VoltageRange for Bank1 and Bank2 */
 866:Drivers/STM32H7xx_HAL_Driver/Src/stm32h7xx_hal_flash_ex.c ****     FLASH->CR1 &= (~FLASH_CR_PSIZE);
 867:Drivers/STM32H7xx_HAL_Driver/Src/stm32h7xx_hal_flash_ex.c ****     FLASH->CR2 &= (~FLASH_CR_PSIZE);
 868:Drivers/STM32H7xx_HAL_Driver/Src/stm32h7xx_hal_flash_ex.c **** 
 869:Drivers/STM32H7xx_HAL_Driver/Src/stm32h7xx_hal_flash_ex.c ****     /* Set voltage range */
 870:Drivers/STM32H7xx_HAL_Driver/Src/stm32h7xx_hal_flash_ex.c ****     FLASH->CR1 |= VoltageRange;
 871:Drivers/STM32H7xx_HAL_Driver/Src/stm32h7xx_hal_flash_ex.c ****     FLASH->CR2 |= VoltageRange;
 872:Drivers/STM32H7xx_HAL_Driver/Src/stm32h7xx_hal_flash_ex.c **** #endif /* FLASH_CR_PSIZE */
 873:Drivers/STM32H7xx_HAL_Driver/Src/stm32h7xx_hal_flash_ex.c **** 
 874:Drivers/STM32H7xx_HAL_Driver/Src/stm32h7xx_hal_flash_ex.c ****     /* Set Mass Erase Bit */
ARM GAS  C:\Users\MadeuxS\AppData\Local\Temp\ccAPGHhR.s 			page 17


 875:Drivers/STM32H7xx_HAL_Driver/Src/stm32h7xx_hal_flash_ex.c ****     FLASH->OPTCR |= FLASH_OPTCR_MER;
 876:Drivers/STM32H7xx_HAL_Driver/Src/stm32h7xx_hal_flash_ex.c ****   }
 877:Drivers/STM32H7xx_HAL_Driver/Src/stm32h7xx_hal_flash_ex.c ****   else
 878:Drivers/STM32H7xx_HAL_Driver/Src/stm32h7xx_hal_flash_ex.c **** #endif /* DUAL_BANK */
 879:Drivers/STM32H7xx_HAL_Driver/Src/stm32h7xx_hal_flash_ex.c ****   {
 880:Drivers/STM32H7xx_HAL_Driver/Src/stm32h7xx_hal_flash_ex.c ****     /* Proceed to erase Flash Bank  */
 881:Drivers/STM32H7xx_HAL_Driver/Src/stm32h7xx_hal_flash_ex.c ****     if((Banks & FLASH_BANK_1) == FLASH_BANK_1)
  40              		.loc 1 881 5 is_stmt 1 view .LVU6
  41              		.loc 1 881 7 is_stmt 0 view .LVU7
  42 0008 CA07     		lsls	r2, r1, #31
  43 000a 0BD5     		bpl	.L4
 882:Drivers/STM32H7xx_HAL_Driver/Src/stm32h7xx_hal_flash_ex.c ****     {
 883:Drivers/STM32H7xx_HAL_Driver/Src/stm32h7xx_hal_flash_ex.c **** #if defined (FLASH_CR_PSIZE)
 884:Drivers/STM32H7xx_HAL_Driver/Src/stm32h7xx_hal_flash_ex.c ****       /* Set Program/erase VoltageRange for Bank1 */
 885:Drivers/STM32H7xx_HAL_Driver/Src/stm32h7xx_hal_flash_ex.c ****       FLASH->CR1 &= (~FLASH_CR_PSIZE);
  44              		.loc 1 885 7 is_stmt 1 view .LVU8
  45              		.loc 1 885 18 is_stmt 0 view .LVU9
  46 000c 1C4B     		ldr	r3, .L13
  47 000e DA68     		ldr	r2, [r3, #12]
  48 0010 22F03002 		bic	r2, r2, #48
  49 0014 DA60     		str	r2, [r3, #12]
 886:Drivers/STM32H7xx_HAL_Driver/Src/stm32h7xx_hal_flash_ex.c ****       FLASH->CR1 |=  VoltageRange;
  50              		.loc 1 886 7 is_stmt 1 view .LVU10
  51              		.loc 1 886 18 is_stmt 0 view .LVU11
  52 0016 DA68     		ldr	r2, [r3, #12]
  53 0018 0243     		orrs	r2, r2, r0
  54 001a DA60     		str	r2, [r3, #12]
 887:Drivers/STM32H7xx_HAL_Driver/Src/stm32h7xx_hal_flash_ex.c **** #endif /* FLASH_CR_PSIZE */
 888:Drivers/STM32H7xx_HAL_Driver/Src/stm32h7xx_hal_flash_ex.c **** 
 889:Drivers/STM32H7xx_HAL_Driver/Src/stm32h7xx_hal_flash_ex.c ****       /* Erase Bank1 */
 890:Drivers/STM32H7xx_HAL_Driver/Src/stm32h7xx_hal_flash_ex.c ****       FLASH->CR1 |= (FLASH_CR_BER | FLASH_CR_START);
  55              		.loc 1 890 7 is_stmt 1 view .LVU12
  56              		.loc 1 890 18 is_stmt 0 view .LVU13
  57 001c DA68     		ldr	r2, [r3, #12]
  58 001e 42F08802 		orr	r2, r2, #136
  59 0022 DA60     		str	r2, [r3, #12]
  60              	.L4:
 891:Drivers/STM32H7xx_HAL_Driver/Src/stm32h7xx_hal_flash_ex.c ****     }
 892:Drivers/STM32H7xx_HAL_Driver/Src/stm32h7xx_hal_flash_ex.c **** 
 893:Drivers/STM32H7xx_HAL_Driver/Src/stm32h7xx_hal_flash_ex.c **** #if defined (DUAL_BANK)
 894:Drivers/STM32H7xx_HAL_Driver/Src/stm32h7xx_hal_flash_ex.c ****     if((Banks & FLASH_BANK_2) == FLASH_BANK_2)
  61              		.loc 1 894 5 is_stmt 1 view .LVU14
  62              		.loc 1 894 7 is_stmt 0 view .LVU15
  63 0024 8B07     		lsls	r3, r1, #30
  64 0026 11D5     		bpl	.L1
  65              	.LVL1:
  66              	.LBB36:
  67              	.LBI36:
 850:Drivers/STM32H7xx_HAL_Driver/Src/stm32h7xx_hal_flash_ex.c **** {
  68              		.loc 1 850 13 is_stmt 1 view .LVU16
  69              	.LBB37:
 895:Drivers/STM32H7xx_HAL_Driver/Src/stm32h7xx_hal_flash_ex.c ****     {
 896:Drivers/STM32H7xx_HAL_Driver/Src/stm32h7xx_hal_flash_ex.c **** #if defined (FLASH_CR_PSIZE)
 897:Drivers/STM32H7xx_HAL_Driver/Src/stm32h7xx_hal_flash_ex.c ****       /* Set Program/erase VoltageRange for Bank2 */
 898:Drivers/STM32H7xx_HAL_Driver/Src/stm32h7xx_hal_flash_ex.c ****       FLASH->CR2 &= (~FLASH_CR_PSIZE);
  70              		.loc 1 898 7 view .LVU17
  71              		.loc 1 898 18 is_stmt 0 view .LVU18
ARM GAS  C:\Users\MadeuxS\AppData\Local\Temp\ccAPGHhR.s 			page 18


  72 0028 154B     		ldr	r3, .L13
  73 002a D3F80C21 		ldr	r2, [r3, #268]
  74 002e 22F03002 		bic	r2, r2, #48
  75 0032 C3F80C21 		str	r2, [r3, #268]
 899:Drivers/STM32H7xx_HAL_Driver/Src/stm32h7xx_hal_flash_ex.c ****       FLASH->CR2 |= VoltageRange;
  76              		.loc 1 899 7 is_stmt 1 view .LVU19
  77              		.loc 1 899 18 is_stmt 0 view .LVU20
  78 0036 D3F80C21 		ldr	r2, [r3, #268]
  79 003a 1043     		orrs	r0, r0, r2
  80              	.LVL2:
  81              		.loc 1 899 18 view .LVU21
  82 003c C3F80C01 		str	r0, [r3, #268]
 900:Drivers/STM32H7xx_HAL_Driver/Src/stm32h7xx_hal_flash_ex.c **** #endif /* FLASH_CR_PSIZE */
 901:Drivers/STM32H7xx_HAL_Driver/Src/stm32h7xx_hal_flash_ex.c **** 
 902:Drivers/STM32H7xx_HAL_Driver/Src/stm32h7xx_hal_flash_ex.c ****       /* Erase Bank2 */
 903:Drivers/STM32H7xx_HAL_Driver/Src/stm32h7xx_hal_flash_ex.c ****       FLASH->CR2 |= (FLASH_CR_BER | FLASH_CR_START);
  83              		.loc 1 903 7 is_stmt 1 view .LVU22
  84              		.loc 1 903 18 is_stmt 0 view .LVU23
  85 0040 D3F80C21 		ldr	r2, [r3, #268]
  86 0044 42F08802 		orr	r2, r2, #136
  87 0048 C3F80C21 		str	r2, [r3, #268]
  88              	.LVL3:
  89              	.L1:
  90              		.loc 1 903 18 view .LVU24
  91              	.LBE37:
  92              	.LBE36:
 904:Drivers/STM32H7xx_HAL_Driver/Src/stm32h7xx_hal_flash_ex.c ****     }
 905:Drivers/STM32H7xx_HAL_Driver/Src/stm32h7xx_hal_flash_ex.c **** #endif /* DUAL_BANK */
 906:Drivers/STM32H7xx_HAL_Driver/Src/stm32h7xx_hal_flash_ex.c ****   }
 907:Drivers/STM32H7xx_HAL_Driver/Src/stm32h7xx_hal_flash_ex.c **** }
  93              		.loc 1 907 1 view .LVU25
  94 004c 7047     		bx	lr
  95              	.LVL4:
  96              	.L12:
 866:Drivers/STM32H7xx_HAL_Driver/Src/stm32h7xx_hal_flash_ex.c ****     FLASH->CR2 &= (~FLASH_CR_PSIZE);
  97              		.loc 1 866 5 is_stmt 1 view .LVU26
 866:Drivers/STM32H7xx_HAL_Driver/Src/stm32h7xx_hal_flash_ex.c ****     FLASH->CR2 &= (~FLASH_CR_PSIZE);
  98              		.loc 1 866 16 is_stmt 0 view .LVU27
  99 004e 0C4B     		ldr	r3, .L13
 100 0050 DA68     		ldr	r2, [r3, #12]
 101 0052 22F03002 		bic	r2, r2, #48
 102 0056 DA60     		str	r2, [r3, #12]
 867:Drivers/STM32H7xx_HAL_Driver/Src/stm32h7xx_hal_flash_ex.c **** 
 103              		.loc 1 867 5 is_stmt 1 view .LVU28
 867:Drivers/STM32H7xx_HAL_Driver/Src/stm32h7xx_hal_flash_ex.c **** 
 104              		.loc 1 867 16 is_stmt 0 view .LVU29
 105 0058 D3F80C21 		ldr	r2, [r3, #268]
 106 005c 22F03002 		bic	r2, r2, #48
 107 0060 C3F80C21 		str	r2, [r3, #268]
 870:Drivers/STM32H7xx_HAL_Driver/Src/stm32h7xx_hal_flash_ex.c ****     FLASH->CR2 |= VoltageRange;
 108              		.loc 1 870 5 is_stmt 1 view .LVU30
 870:Drivers/STM32H7xx_HAL_Driver/Src/stm32h7xx_hal_flash_ex.c ****     FLASH->CR2 |= VoltageRange;
 109              		.loc 1 870 16 is_stmt 0 view .LVU31
 110 0064 DA68     		ldr	r2, [r3, #12]
 111 0066 0243     		orrs	r2, r2, r0
 112 0068 DA60     		str	r2, [r3, #12]
 871:Drivers/STM32H7xx_HAL_Driver/Src/stm32h7xx_hal_flash_ex.c **** #endif /* FLASH_CR_PSIZE */
ARM GAS  C:\Users\MadeuxS\AppData\Local\Temp\ccAPGHhR.s 			page 19


 113              		.loc 1 871 5 is_stmt 1 view .LVU32
 871:Drivers/STM32H7xx_HAL_Driver/Src/stm32h7xx_hal_flash_ex.c **** #endif /* FLASH_CR_PSIZE */
 114              		.loc 1 871 16 is_stmt 0 view .LVU33
 115 006a D3F80C21 		ldr	r2, [r3, #268]
 116 006e 1043     		orrs	r0, r0, r2
 117              	.LVL5:
 871:Drivers/STM32H7xx_HAL_Driver/Src/stm32h7xx_hal_flash_ex.c **** #endif /* FLASH_CR_PSIZE */
 118              		.loc 1 871 16 view .LVU34
 119 0070 C3F80C01 		str	r0, [r3, #268]
 875:Drivers/STM32H7xx_HAL_Driver/Src/stm32h7xx_hal_flash_ex.c ****   }
 120              		.loc 1 875 5 is_stmt 1 view .LVU35
 875:Drivers/STM32H7xx_HAL_Driver/Src/stm32h7xx_hal_flash_ex.c ****   }
 121              		.loc 1 875 18 is_stmt 0 view .LVU36
 122 0074 9A69     		ldr	r2, [r3, #24]
 123 0076 42F01002 		orr	r2, r2, #16
 124 007a 9A61     		str	r2, [r3, #24]
 125 007c 7047     		bx	lr
 126              	.L14:
 127 007e 00BF     		.align	2
 128              	.L13:
 129 0080 00200052 		.word	1375739904
 130              		.cfi_endproc
 131              	.LFE153:
 133              		.section	.text.HAL_FLASHEx_Erase,"ax",%progbits
 134              		.align	1
 135              		.p2align 2,,3
 136              		.global	HAL_FLASHEx_Erase
 137              		.syntax unified
 138              		.thumb
 139              		.thumb_func
 140              		.fpu fpv5-d16
 142              	HAL_FLASHEx_Erase:
 143              	.LVL6:
 144              	.LFB144:
 179:Drivers/STM32H7xx_HAL_Driver/Src/stm32h7xx_hal_flash_ex.c ****   HAL_StatusTypeDef status = HAL_OK;
 145              		.loc 1 179 1 is_stmt 1 view -0
 146              		.cfi_startproc
 147              		@ args = 0, pretend = 0, frame = 0
 148              		@ frame_needed = 0, uses_anonymous_args = 0
 180:Drivers/STM32H7xx_HAL_Driver/Src/stm32h7xx_hal_flash_ex.c ****   uint32_t sector_index;
 149              		.loc 1 180 3 view .LVU38
 181:Drivers/STM32H7xx_HAL_Driver/Src/stm32h7xx_hal_flash_ex.c **** 
 150              		.loc 1 181 3 view .LVU39
 184:Drivers/STM32H7xx_HAL_Driver/Src/stm32h7xx_hal_flash_ex.c ****   assert_param(IS_FLASH_BANK(pEraseInit->Banks));
 151              		.loc 1 184 3 view .LVU40
 185:Drivers/STM32H7xx_HAL_Driver/Src/stm32h7xx_hal_flash_ex.c **** 
 152              		.loc 1 185 3 view .LVU41
 188:Drivers/STM32H7xx_HAL_Driver/Src/stm32h7xx_hal_flash_ex.c **** 
 153              		.loc 1 188 3 view .LVU42
 188:Drivers/STM32H7xx_HAL_Driver/Src/stm32h7xx_hal_flash_ex.c **** 
 154              		.loc 1 188 3 view .LVU43
 179:Drivers/STM32H7xx_HAL_Driver/Src/stm32h7xx_hal_flash_ex.c ****   HAL_StatusTypeDef status = HAL_OK;
 155              		.loc 1 179 1 is_stmt 0 view .LVU44
 156 0000 2DE9F84F 		push	{r3, r4, r5, r6, r7, r8, r9, r10, fp, lr}
 157              	.LCFI0:
 158              		.cfi_def_cfa_offset 40
 159              		.cfi_offset 3, -40
ARM GAS  C:\Users\MadeuxS\AppData\Local\Temp\ccAPGHhR.s 			page 20


 160              		.cfi_offset 4, -36
 161              		.cfi_offset 5, -32
 162              		.cfi_offset 6, -28
 163              		.cfi_offset 7, -24
 164              		.cfi_offset 8, -20
 165              		.cfi_offset 9, -16
 166              		.cfi_offset 10, -12
 167              		.cfi_offset 11, -8
 168              		.cfi_offset 14, -4
 188:Drivers/STM32H7xx_HAL_Driver/Src/stm32h7xx_hal_flash_ex.c **** 
 169              		.loc 1 188 3 view .LVU45
 170 0004 644F     		ldr	r7, .L63
 171 0006 3B7D     		ldrb	r3, [r7, #20]	@ zero_extendqisi2
 172 0008 012B     		cmp	r3, #1
 173 000a 00F0B180 		beq	.L37
 188:Drivers/STM32H7xx_HAL_Driver/Src/stm32h7xx_hal_flash_ex.c **** 
 174              		.loc 1 188 3 is_stmt 1 discriminator 2 view .LVU46
 191:Drivers/STM32H7xx_HAL_Driver/Src/stm32h7xx_hal_flash_ex.c **** 
 175              		.loc 1 191 20 is_stmt 0 discriminator 2 view .LVU47
 176 000e 0023     		movs	r3, #0
 188:Drivers/STM32H7xx_HAL_Driver/Src/stm32h7xx_hal_flash_ex.c **** 
 177              		.loc 1 188 3 discriminator 2 view .LVU48
 178 0010 0126     		movs	r6, #1
 179 0012 8846     		mov	r8, r1
 180 0014 0546     		mov	r5, r0
 181 0016 3E75     		strb	r6, [r7, #20]
 188:Drivers/STM32H7xx_HAL_Driver/Src/stm32h7xx_hal_flash_ex.c **** 
 182              		.loc 1 188 3 is_stmt 1 discriminator 2 view .LVU49
 191:Drivers/STM32H7xx_HAL_Driver/Src/stm32h7xx_hal_flash_ex.c **** 
 183              		.loc 1 191 3 discriminator 2 view .LVU50
 191:Drivers/STM32H7xx_HAL_Driver/Src/stm32h7xx_hal_flash_ex.c **** 
 184              		.loc 1 191 20 is_stmt 0 discriminator 2 view .LVU51
 185 0018 BB61     		str	r3, [r7, #24]
 194:Drivers/STM32H7xx_HAL_Driver/Src/stm32h7xx_hal_flash_ex.c ****   {
 186              		.loc 1 194 3 is_stmt 1 discriminator 2 view .LVU52
 194:Drivers/STM32H7xx_HAL_Driver/Src/stm32h7xx_hal_flash_ex.c ****   {
 187              		.loc 1 194 17 is_stmt 0 discriminator 2 view .LVU53
 188 001a 4368     		ldr	r3, [r0, #4]
 194:Drivers/STM32H7xx_HAL_Driver/Src/stm32h7xx_hal_flash_ex.c ****   {
 189              		.loc 1 194 5 discriminator 2 view .LVU54
 190 001c D907     		lsls	r1, r3, #31
 191              	.LVL7:
 194:Drivers/STM32H7xx_HAL_Driver/Src/stm32h7xx_hal_flash_ex.c ****   {
 192              		.loc 1 194 5 discriminator 2 view .LVU55
 193 001e 7BD4     		bmi	.L59
 194              	.LVL8:
 195              	.L17:
 204:Drivers/STM32H7xx_HAL_Driver/Src/stm32h7xx_hal_flash_ex.c ****   {
 196              		.loc 1 204 3 is_stmt 1 view .LVU56
 204:Drivers/STM32H7xx_HAL_Driver/Src/stm32h7xx_hal_flash_ex.c ****   {
 197              		.loc 1 204 5 is_stmt 0 view .LVU57
 198 0020 9A07     		lsls	r2, r3, #30
 199 0022 0BD5     		bpl	.L20
 206:Drivers/STM32H7xx_HAL_Driver/Src/stm32h7xx_hal_flash_ex.c ****     {
 200              		.loc 1 206 5 is_stmt 1 view .LVU58
 206:Drivers/STM32H7xx_HAL_Driver/Src/stm32h7xx_hal_flash_ex.c ****     {
 201              		.loc 1 206 8 is_stmt 0 view .LVU59
ARM GAS  C:\Users\MadeuxS\AppData\Local\Temp\ccAPGHhR.s 			page 21


 202 0024 0221     		movs	r1, #2
 203 0026 4CF25030 		movw	r0, #50000
 204 002a FFF7FEFF 		bl	FLASH_WaitForLastOperation
 205              	.LVL9:
 206:Drivers/STM32H7xx_HAL_Driver/Src/stm32h7xx_hal_flash_ex.c ****     {
 206              		.loc 1 206 7 view .LVU60
 207 002e 28B1     		cbz	r0, .L20
 208              	.LVL10:
 209              	.L34:
 208:Drivers/STM32H7xx_HAL_Driver/Src/stm32h7xx_hal_flash_ex.c ****     }
 210              		.loc 1 208 14 view .LVU61
 211 0030 0126     		movs	r6, #1
 212              	.L19:
 213              	.LVL11:
 283:Drivers/STM32H7xx_HAL_Driver/Src/stm32h7xx_hal_flash_ex.c **** 
 214              		.loc 1 283 3 is_stmt 1 view .LVU62
 283:Drivers/STM32H7xx_HAL_Driver/Src/stm32h7xx_hal_flash_ex.c **** 
 215              		.loc 1 283 3 view .LVU63
 216 0032 0023     		movs	r3, #0
 286:Drivers/STM32H7xx_HAL_Driver/Src/stm32h7xx_hal_flash_ex.c **** 
 217              		.loc 1 286 1 is_stmt 0 view .LVU64
 218 0034 3046     		mov	r0, r6
 283:Drivers/STM32H7xx_HAL_Driver/Src/stm32h7xx_hal_flash_ex.c **** 
 219              		.loc 1 283 3 view .LVU65
 220 0036 3B75     		strb	r3, [r7, #20]
 283:Drivers/STM32H7xx_HAL_Driver/Src/stm32h7xx_hal_flash_ex.c **** 
 221              		.loc 1 283 3 is_stmt 1 view .LVU66
 285:Drivers/STM32H7xx_HAL_Driver/Src/stm32h7xx_hal_flash_ex.c **** }
 222              		.loc 1 285 3 view .LVU67
 286:Drivers/STM32H7xx_HAL_Driver/Src/stm32h7xx_hal_flash_ex.c **** 
 223              		.loc 1 286 1 is_stmt 0 view .LVU68
 224 0038 BDE8F88F 		pop	{r3, r4, r5, r6, r7, r8, r9, r10, fp, pc}
 225              	.LVL12:
 226              	.L20:
 215:Drivers/STM32H7xx_HAL_Driver/Src/stm32h7xx_hal_flash_ex.c ****     {
 227              		.loc 1 215 5 is_stmt 1 view .LVU69
 215:Drivers/STM32H7xx_HAL_Driver/Src/stm32h7xx_hal_flash_ex.c ****     {
 228              		.loc 1 215 7 is_stmt 0 view .LVU70
 229 003c 2C68     		ldr	r4, [r5]
 230 003e 012C     		cmp	r4, #1
 231 0040 7BD0     		beq	.L60
 246:Drivers/STM32H7xx_HAL_Driver/Src/stm32h7xx_hal_flash_ex.c **** 
 232              		.loc 1 246 7 is_stmt 1 view .LVU71
 246:Drivers/STM32H7xx_HAL_Driver/Src/stm32h7xx_hal_flash_ex.c **** 
 233              		.loc 1 246 20 is_stmt 0 view .LVU72
 234 0042 4FF0FF33 		mov	r3, #-1
 235 0046 C8F80030 		str	r3, [r8]
 249:Drivers/STM32H7xx_HAL_Driver/Src/stm32h7xx_hal_flash_ex.c ****       {
 236              		.loc 1 249 7 is_stmt 1 view .LVU73
 249:Drivers/STM32H7xx_HAL_Driver/Src/stm32h7xx_hal_flash_ex.c ****       {
 237              		.loc 1 249 24 is_stmt 0 view .LVU74
 238 004a A868     		ldr	r0, [r5, #8]
 249:Drivers/STM32H7xx_HAL_Driver/Src/stm32h7xx_hal_flash_ex.c ****       {
 239              		.loc 1 249 84 view .LVU75
 240 004c EE68     		ldr	r6, [r5, #12]
 249:Drivers/STM32H7xx_HAL_Driver/Src/stm32h7xx_hal_flash_ex.c ****       {
 241              		.loc 1 249 24 view .LVU76
ARM GAS  C:\Users\MadeuxS\AppData\Local\Temp\ccAPGHhR.s 			page 22


 242 004e 8246     		mov	r10, r0
 243              	.LVL13:
 249:Drivers/STM32H7xx_HAL_Driver/Src/stm32h7xx_hal_flash_ex.c ****       {
 244              		.loc 1 249 46 is_stmt 1 view .LVU77
 249:Drivers/STM32H7xx_HAL_Driver/Src/stm32h7xx_hal_flash_ex.c ****       {
 245              		.loc 1 249 84 is_stmt 0 view .LVU78
 246 0050 8319     		adds	r3, r0, r6
 249:Drivers/STM32H7xx_HAL_Driver/Src/stm32h7xx_hal_flash_ex.c ****       {
 247              		.loc 1 249 7 view .LVU79
 248 0052 9842     		cmp	r0, r3
 249 0054 3CD2     		bcs	.L30
 250 0056 4FEA002B 		lsl	fp, r0, #8
 251              	.LBB42:
 252              	.LBB43:
 253              	.LBB44:
 254              	.LBB45:
 908:Drivers/STM32H7xx_HAL_Driver/Src/stm32h7xx_hal_flash_ex.c **** 
 909:Drivers/STM32H7xx_HAL_Driver/Src/stm32h7xx_hal_flash_ex.c **** /**
 910:Drivers/STM32H7xx_HAL_Driver/Src/stm32h7xx_hal_flash_ex.c ****   * @brief  Erase the specified FLASH memory sector
 911:Drivers/STM32H7xx_HAL_Driver/Src/stm32h7xx_hal_flash_ex.c ****   * @param  Sector FLASH sector to erase
 912:Drivers/STM32H7xx_HAL_Driver/Src/stm32h7xx_hal_flash_ex.c ****   *          This parameter can be a value of @ref FLASH_Sectors
 913:Drivers/STM32H7xx_HAL_Driver/Src/stm32h7xx_hal_flash_ex.c ****   * @param  Banks Banks to be erased
 914:Drivers/STM32H7xx_HAL_Driver/Src/stm32h7xx_hal_flash_ex.c ****   *          This parameter can be one of the following values:
 915:Drivers/STM32H7xx_HAL_Driver/Src/stm32h7xx_hal_flash_ex.c ****   *            @arg FLASH_BANK_1: Bank1 to be erased
 916:Drivers/STM32H7xx_HAL_Driver/Src/stm32h7xx_hal_flash_ex.c ****   *            @arg FLASH_BANK_2: Bank2 to be erased
 917:Drivers/STM32H7xx_HAL_Driver/Src/stm32h7xx_hal_flash_ex.c ****   *            @arg FLASH_BANK_BOTH: Bank1 and Bank2 to be erased
 918:Drivers/STM32H7xx_HAL_Driver/Src/stm32h7xx_hal_flash_ex.c ****   * @param  VoltageRange The device program/erase parallelism.
 919:Drivers/STM32H7xx_HAL_Driver/Src/stm32h7xx_hal_flash_ex.c ****   *          This parameter can be one of the following values:
 920:Drivers/STM32H7xx_HAL_Driver/Src/stm32h7xx_hal_flash_ex.c ****   *            @arg FLASH_VOLTAGE_RANGE_1 : Flash program/erase by 8 bits
 921:Drivers/STM32H7xx_HAL_Driver/Src/stm32h7xx_hal_flash_ex.c ****   *            @arg FLASH_VOLTAGE_RANGE_2 : Flash program/erase by 16 bits
 922:Drivers/STM32H7xx_HAL_Driver/Src/stm32h7xx_hal_flash_ex.c ****   *            @arg FLASH_VOLTAGE_RANGE_3 : Flash program/erase by 32 bits
 923:Drivers/STM32H7xx_HAL_Driver/Src/stm32h7xx_hal_flash_ex.c ****   *            @arg FLASH_VOLTAGE_RANGE_4 : Flash program/erase by 64 bits
 924:Drivers/STM32H7xx_HAL_Driver/Src/stm32h7xx_hal_flash_ex.c ****   *
 925:Drivers/STM32H7xx_HAL_Driver/Src/stm32h7xx_hal_flash_ex.c ****   * @retval None
 926:Drivers/STM32H7xx_HAL_Driver/Src/stm32h7xx_hal_flash_ex.c ****   */
 927:Drivers/STM32H7xx_HAL_Driver/Src/stm32h7xx_hal_flash_ex.c **** void FLASH_Erase_Sector(uint32_t Sector, uint32_t Banks, uint32_t VoltageRange)
 928:Drivers/STM32H7xx_HAL_Driver/Src/stm32h7xx_hal_flash_ex.c **** {
 929:Drivers/STM32H7xx_HAL_Driver/Src/stm32h7xx_hal_flash_ex.c ****   assert_param(IS_FLASH_SECTOR(Sector));
 930:Drivers/STM32H7xx_HAL_Driver/Src/stm32h7xx_hal_flash_ex.c ****   assert_param(IS_FLASH_BANK_EXCLUSIVE(Banks));
 931:Drivers/STM32H7xx_HAL_Driver/Src/stm32h7xx_hal_flash_ex.c **** #if defined (FLASH_CR_PSIZE)
 932:Drivers/STM32H7xx_HAL_Driver/Src/stm32h7xx_hal_flash_ex.c ****   assert_param(IS_VOLTAGERANGE(VoltageRange));
 933:Drivers/STM32H7xx_HAL_Driver/Src/stm32h7xx_hal_flash_ex.c **** #else
 934:Drivers/STM32H7xx_HAL_Driver/Src/stm32h7xx_hal_flash_ex.c ****   UNUSED(VoltageRange);
 935:Drivers/STM32H7xx_HAL_Driver/Src/stm32h7xx_hal_flash_ex.c **** #endif /* FLASH_CR_PSIZE */
 936:Drivers/STM32H7xx_HAL_Driver/Src/stm32h7xx_hal_flash_ex.c **** 
 937:Drivers/STM32H7xx_HAL_Driver/Src/stm32h7xx_hal_flash_ex.c ****   if((Banks & FLASH_BANK_1) == FLASH_BANK_1)
 938:Drivers/STM32H7xx_HAL_Driver/Src/stm32h7xx_hal_flash_ex.c ****   {
 939:Drivers/STM32H7xx_HAL_Driver/Src/stm32h7xx_hal_flash_ex.c **** #if defined (FLASH_CR_PSIZE)
 940:Drivers/STM32H7xx_HAL_Driver/Src/stm32h7xx_hal_flash_ex.c ****     /* Reset Program/erase VoltageRange and Sector Number for Bank1 */
 941:Drivers/STM32H7xx_HAL_Driver/Src/stm32h7xx_hal_flash_ex.c ****     FLASH->CR1 &= ~(FLASH_CR_PSIZE | FLASH_CR_SNB);
 942:Drivers/STM32H7xx_HAL_Driver/Src/stm32h7xx_hal_flash_ex.c **** 
 943:Drivers/STM32H7xx_HAL_Driver/Src/stm32h7xx_hal_flash_ex.c ****     FLASH->CR1 |= (FLASH_CR_SER | VoltageRange | (Sector << FLASH_CR_SNB_Pos) | FLASH_CR_START);
 944:Drivers/STM32H7xx_HAL_Driver/Src/stm32h7xx_hal_flash_ex.c **** #else
 945:Drivers/STM32H7xx_HAL_Driver/Src/stm32h7xx_hal_flash_ex.c ****     /* Reset Sector Number for Bank1 */
 946:Drivers/STM32H7xx_HAL_Driver/Src/stm32h7xx_hal_flash_ex.c ****     FLASH->CR1 &= ~(FLASH_CR_SNB);
 947:Drivers/STM32H7xx_HAL_Driver/Src/stm32h7xx_hal_flash_ex.c **** 
 948:Drivers/STM32H7xx_HAL_Driver/Src/stm32h7xx_hal_flash_ex.c ****     FLASH->CR1 |= (FLASH_CR_SER | (Sector << FLASH_CR_SNB_Pos) | FLASH_CR_START);
ARM GAS  C:\Users\MadeuxS\AppData\Local\Temp\ccAPGHhR.s 			page 23


 949:Drivers/STM32H7xx_HAL_Driver/Src/stm32h7xx_hal_flash_ex.c **** #endif /* FLASH_CR_PSIZE */
 950:Drivers/STM32H7xx_HAL_Driver/Src/stm32h7xx_hal_flash_ex.c ****   }
 951:Drivers/STM32H7xx_HAL_Driver/Src/stm32h7xx_hal_flash_ex.c **** 
 952:Drivers/STM32H7xx_HAL_Driver/Src/stm32h7xx_hal_flash_ex.c **** #if defined (DUAL_BANK)
 953:Drivers/STM32H7xx_HAL_Driver/Src/stm32h7xx_hal_flash_ex.c ****   if((Banks & FLASH_BANK_2) == FLASH_BANK_2)
 954:Drivers/STM32H7xx_HAL_Driver/Src/stm32h7xx_hal_flash_ex.c ****   {
 955:Drivers/STM32H7xx_HAL_Driver/Src/stm32h7xx_hal_flash_ex.c **** #if defined (FLASH_CR_PSIZE)
 956:Drivers/STM32H7xx_HAL_Driver/Src/stm32h7xx_hal_flash_ex.c ****     /* Reset Program/erase VoltageRange and Sector Number for Bank2 */
 957:Drivers/STM32H7xx_HAL_Driver/Src/stm32h7xx_hal_flash_ex.c ****     FLASH->CR2 &= ~(FLASH_CR_PSIZE | FLASH_CR_SNB);
 255              		.loc 1 957 16 view .LVU80
 256 005a 504C     		ldr	r4, .L63+4
 257              	.LBE45:
 258              	.LBE44:
 259              	.LBE43:
 260              	.LBE42:
 268:Drivers/STM32H7xx_HAL_Driver/Src/stm32h7xx_hal_flash_ex.c ****         }
 261              		.loc 1 268 22 view .LVU81
 262 005c DFF84091 		ldr	r9, .L63+8
 263              	.LVL14:
 264              	.L29:
 251:Drivers/STM32H7xx_HAL_Driver/Src/stm32h7xx_hal_flash_ex.c **** 
 265              		.loc 1 251 9 is_stmt 1 view .LVU82
 266 0060 6968     		ldr	r1, [r5, #4]
 267 0062 2A69     		ldr	r2, [r5, #16]
 268              	.LVL15:
 269              	.LBB52:
 270              	.LBI42:
 927:Drivers/STM32H7xx_HAL_Driver/Src/stm32h7xx_hal_flash_ex.c **** {
 271              		.loc 1 927 6 view .LVU83
 272              	.LBB50:
 929:Drivers/STM32H7xx_HAL_Driver/Src/stm32h7xx_hal_flash_ex.c ****   assert_param(IS_FLASH_BANK_EXCLUSIVE(Banks));
 273              		.loc 1 929 3 view .LVU84
 930:Drivers/STM32H7xx_HAL_Driver/Src/stm32h7xx_hal_flash_ex.c **** #if defined (FLASH_CR_PSIZE)
 274              		.loc 1 930 3 view .LVU85
 932:Drivers/STM32H7xx_HAL_Driver/Src/stm32h7xx_hal_flash_ex.c **** #else
 275              		.loc 1 932 3 view .LVU86
 937:Drivers/STM32H7xx_HAL_Driver/Src/stm32h7xx_hal_flash_ex.c ****   {
 276              		.loc 1 937 3 view .LVU87
 937:Drivers/STM32H7xx_HAL_Driver/Src/stm32h7xx_hal_flash_ex.c ****   {
 277              		.loc 1 937 5 is_stmt 0 view .LVU88
 278 0064 CB07     		lsls	r3, r1, #31
 279 0066 35D5     		bpl	.L25
 941:Drivers/STM32H7xx_HAL_Driver/Src/stm32h7xx_hal_flash_ex.c **** 
 280              		.loc 1 941 5 is_stmt 1 view .LVU89
 941:Drivers/STM32H7xx_HAL_Driver/Src/stm32h7xx_hal_flash_ex.c **** 
 281              		.loc 1 941 16 is_stmt 0 view .LVU90
 282 0068 E368     		ldr	r3, [r4, #12]
 953:Drivers/STM32H7xx_HAL_Driver/Src/stm32h7xx_hal_flash_ex.c ****   {
 283              		.loc 1 953 5 view .LVU91
 284 006a 8E07     		lsls	r6, r1, #30
 941:Drivers/STM32H7xx_HAL_Driver/Src/stm32h7xx_hal_flash_ex.c **** 
 285              		.loc 1 941 16 view .LVU92
 286 006c 23F4E663 		bic	r3, r3, #1840
 287 0070 E360     		str	r3, [r4, #12]
 943:Drivers/STM32H7xx_HAL_Driver/Src/stm32h7xx_hal_flash_ex.c **** #else
 288              		.loc 1 943 5 is_stmt 1 view .LVU93
 943:Drivers/STM32H7xx_HAL_Driver/Src/stm32h7xx_hal_flash_ex.c **** #else
ARM GAS  C:\Users\MadeuxS\AppData\Local\Temp\ccAPGHhR.s 			page 24


 289              		.loc 1 943 16 is_stmt 0 view .LVU94
 290 0072 E368     		ldr	r3, [r4, #12]
 291 0074 43EA0B03 		orr	r3, r3, fp
 292 0078 43EA0203 		orr	r3, r3, r2
 293 007c 43F08403 		orr	r3, r3, #132
 294 0080 E360     		str	r3, [r4, #12]
 953:Drivers/STM32H7xx_HAL_Driver/Src/stm32h7xx_hal_flash_ex.c ****   {
 295              		.loc 1 953 3 is_stmt 1 view .LVU95
 953:Drivers/STM32H7xx_HAL_Driver/Src/stm32h7xx_hal_flash_ex.c ****   {
 296              		.loc 1 953 5 is_stmt 0 view .LVU96
 297 0082 0ED5     		bpl	.L36
 298              	.LVL16:
 299              	.LBB48:
 300              	.LBI44:
 927:Drivers/STM32H7xx_HAL_Driver/Src/stm32h7xx_hal_flash_ex.c **** {
 301              		.loc 1 927 6 is_stmt 1 view .LVU97
 302              	.LBB46:
 303              		.loc 1 957 5 view .LVU98
 304              		.loc 1 957 16 is_stmt 0 view .LVU99
 305 0084 D4F80C31 		ldr	r3, [r4, #268]
 306 0088 23F4E663 		bic	r3, r3, #1840
 307 008c C4F80C31 		str	r3, [r4, #268]
 958:Drivers/STM32H7xx_HAL_Driver/Src/stm32h7xx_hal_flash_ex.c **** 
 959:Drivers/STM32H7xx_HAL_Driver/Src/stm32h7xx_hal_flash_ex.c ****     FLASH->CR2 |= (FLASH_CR_SER | VoltageRange  | (Sector << FLASH_CR_SNB_Pos) | FLASH_CR_START);
 308              		.loc 1 959 5 is_stmt 1 view .LVU100
 309              		.loc 1 959 16 is_stmt 0 view .LVU101
 310 0090 D4F80C31 		ldr	r3, [r4, #268]
 311 0094 43EA0B03 		orr	r3, r3, fp
 312 0098 1343     		orrs	r3, r3, r2
 313 009a 43F08403 		orr	r3, r3, #132
 314 009e C4F80C31 		str	r3, [r4, #268]
 315              	.LVL17:
 316              		.loc 1 959 16 view .LVU102
 317              	.LBE46:
 318              	.LBE48:
 319              	.LBE50:
 320              	.LBE52:
 253:Drivers/STM32H7xx_HAL_Driver/Src/stm32h7xx_hal_flash_ex.c ****         {
 321              		.loc 1 253 9 is_stmt 1 view .LVU103
 322              	.L36:
 256:Drivers/STM32H7xx_HAL_Driver/Src/stm32h7xx_hal_flash_ex.c **** 
 323              		.loc 1 256 11 view .LVU104
 256:Drivers/STM32H7xx_HAL_Driver/Src/stm32h7xx_hal_flash_ex.c **** 
 324              		.loc 1 256 20 is_stmt 0 view .LVU105
 325 00a2 0121     		movs	r1, #1
 326 00a4 4CF25030 		movw	r0, #50000
 327 00a8 FFF7FEFF 		bl	FLASH_WaitForLastOperation
 328              	.LVL18:
 259:Drivers/STM32H7xx_HAL_Driver/Src/stm32h7xx_hal_flash_ex.c ****         }
 329              		.loc 1 259 22 view .LVU106
 330 00ac E368     		ldr	r3, [r4, #12]
 256:Drivers/STM32H7xx_HAL_Driver/Src/stm32h7xx_hal_flash_ex.c **** 
 331              		.loc 1 256 20 view .LVU107
 332 00ae 0646     		mov	r6, r0
 333              	.LVL19:
 259:Drivers/STM32H7xx_HAL_Driver/Src/stm32h7xx_hal_flash_ex.c ****         }
 334              		.loc 1 259 11 is_stmt 1 view .LVU108
ARM GAS  C:\Users\MadeuxS\AppData\Local\Temp\ccAPGHhR.s 			page 25


 259:Drivers/STM32H7xx_HAL_Driver/Src/stm32h7xx_hal_flash_ex.c ****         }
 335              		.loc 1 259 22 is_stmt 0 view .LVU109
 336 00b0 03EA0903 		and	r3, r3, r9
 337 00b4 E360     		str	r3, [r4, #12]
 262:Drivers/STM32H7xx_HAL_Driver/Src/stm32h7xx_hal_flash_ex.c ****         {
 338              		.loc 1 262 9 is_stmt 1 view .LVU110
 262:Drivers/STM32H7xx_HAL_Driver/Src/stm32h7xx_hal_flash_ex.c ****         {
 339              		.loc 1 262 31 is_stmt 0 view .LVU111
 340 00b6 6B68     		ldr	r3, [r5, #4]
 262:Drivers/STM32H7xx_HAL_Driver/Src/stm32h7xx_hal_flash_ex.c ****         {
 341              		.loc 1 262 11 view .LVU112
 342 00b8 9807     		lsls	r0, r3, #30
 343 00ba 1CD4     		bmi	.L35
 272:Drivers/STM32H7xx_HAL_Driver/Src/stm32h7xx_hal_flash_ex.c ****         {
 344              		.loc 1 272 9 is_stmt 1 view .LVU113
 272:Drivers/STM32H7xx_HAL_Driver/Src/stm32h7xx_hal_flash_ex.c ****         {
 345              		.loc 1 272 11 is_stmt 0 view .LVU114
 346 00bc 4EBB     		cbnz	r6, .L56
 347              	.L61:
 272:Drivers/STM32H7xx_HAL_Driver/Src/stm32h7xx_hal_flash_ex.c ****         {
 348              		.loc 1 272 11 view .LVU115
 349 00be D5E90206 		ldrd	r0, r6, [r5, #8]
 350              	.LVL20:
 351              	.L28:
 249:Drivers/STM32H7xx_HAL_Driver/Src/stm32h7xx_hal_flash_ex.c ****       {
 352              		.loc 1 249 107 is_stmt 1 view .LVU116
 249:Drivers/STM32H7xx_HAL_Driver/Src/stm32h7xx_hal_flash_ex.c ****       {
 353              		.loc 1 249 119 is_stmt 0 view .LVU117
 354 00c2 0AF1010A 		add	r10, r10, #1
 355              	.LVL21:
 249:Drivers/STM32H7xx_HAL_Driver/Src/stm32h7xx_hal_flash_ex.c ****       {
 356              		.loc 1 249 46 is_stmt 1 view .LVU118
 249:Drivers/STM32H7xx_HAL_Driver/Src/stm32h7xx_hal_flash_ex.c ****       {
 357              		.loc 1 249 84 is_stmt 0 view .LVU119
 358 00c6 3318     		adds	r3, r6, r0
 249:Drivers/STM32H7xx_HAL_Driver/Src/stm32h7xx_hal_flash_ex.c ****       {
 359              		.loc 1 249 7 view .LVU120
 360 00c8 0BF5807B 		add	fp, fp, #256
 361 00cc 5345     		cmp	r3, r10
 362 00ce C7D8     		bhi	.L29
 363              	.L30:
 208:Drivers/STM32H7xx_HAL_Driver/Src/stm32h7xx_hal_flash_ex.c ****     }
 364              		.loc 1 208 14 view .LVU121
 365 00d0 0026     		movs	r6, #0
 366 00d2 AEE7     		b	.L19
 367              	.LVL22:
 368              	.L25:
 369              	.LBB53:
 370              	.LBB51:
 953:Drivers/STM32H7xx_HAL_Driver/Src/stm32h7xx_hal_flash_ex.c ****   {
 371              		.loc 1 953 3 is_stmt 1 view .LVU122
 953:Drivers/STM32H7xx_HAL_Driver/Src/stm32h7xx_hal_flash_ex.c ****   {
 372              		.loc 1 953 5 is_stmt 0 view .LVU123
 373 00d4 8907     		lsls	r1, r1, #30
 374              	.LVL23:
 953:Drivers/STM32H7xx_HAL_Driver/Src/stm32h7xx_hal_flash_ex.c ****   {
 375              		.loc 1 953 5 view .LVU124
ARM GAS  C:\Users\MadeuxS\AppData\Local\Temp\ccAPGHhR.s 			page 26


 376 00d6 F4D5     		bpl	.L28
 377              	.LVL24:
 378              	.LBB49:
 927:Drivers/STM32H7xx_HAL_Driver/Src/stm32h7xx_hal_flash_ex.c **** {
 379              		.loc 1 927 6 is_stmt 1 view .LVU125
 380              	.LBB47:
 957:Drivers/STM32H7xx_HAL_Driver/Src/stm32h7xx_hal_flash_ex.c **** 
 381              		.loc 1 957 5 view .LVU126
 957:Drivers/STM32H7xx_HAL_Driver/Src/stm32h7xx_hal_flash_ex.c **** 
 382              		.loc 1 957 16 is_stmt 0 view .LVU127
 383 00d8 D4F80C31 		ldr	r3, [r4, #268]
 384 00dc 23F4E663 		bic	r3, r3, #1840
 385 00e0 C4F80C31 		str	r3, [r4, #268]
 386              	.LVL25:
 387              		.loc 1 959 5 is_stmt 1 view .LVU128
 388              		.loc 1 959 16 is_stmt 0 view .LVU129
 389 00e4 D4F80C31 		ldr	r3, [r4, #268]
 390 00e8 43EA0B03 		orr	r3, r3, fp
 391 00ec 1343     		orrs	r3, r3, r2
 392 00ee 43F08403 		orr	r3, r3, #132
 393 00f2 C4F80C31 		str	r3, [r4, #268]
 394              	.LVL26:
 395              		.loc 1 959 16 view .LVU130
 396              	.LBE47:
 397              	.LBE49:
 398              	.LBE51:
 399              	.LBE53:
 253:Drivers/STM32H7xx_HAL_Driver/Src/stm32h7xx_hal_flash_ex.c ****         {
 400              		.loc 1 253 9 is_stmt 1 view .LVU131
 262:Drivers/STM32H7xx_HAL_Driver/Src/stm32h7xx_hal_flash_ex.c ****         {
 401              		.loc 1 262 9 view .LVU132
 402              	.L35:
 265:Drivers/STM32H7xx_HAL_Driver/Src/stm32h7xx_hal_flash_ex.c **** 
 403              		.loc 1 265 11 view .LVU133
 265:Drivers/STM32H7xx_HAL_Driver/Src/stm32h7xx_hal_flash_ex.c **** 
 404              		.loc 1 265 20 is_stmt 0 view .LVU134
 405 00f6 0221     		movs	r1, #2
 406 00f8 4CF25030 		movw	r0, #50000
 407 00fc FFF7FEFF 		bl	FLASH_WaitForLastOperation
 408              	.LVL27:
 268:Drivers/STM32H7xx_HAL_Driver/Src/stm32h7xx_hal_flash_ex.c ****         }
 409              		.loc 1 268 22 view .LVU135
 410 0100 D4F80C31 		ldr	r3, [r4, #268]
 265:Drivers/STM32H7xx_HAL_Driver/Src/stm32h7xx_hal_flash_ex.c **** 
 411              		.loc 1 265 20 view .LVU136
 412 0104 0646     		mov	r6, r0
 413              	.LVL28:
 268:Drivers/STM32H7xx_HAL_Driver/Src/stm32h7xx_hal_flash_ex.c ****         }
 414              		.loc 1 268 11 is_stmt 1 view .LVU137
 268:Drivers/STM32H7xx_HAL_Driver/Src/stm32h7xx_hal_flash_ex.c ****         }
 415              		.loc 1 268 22 is_stmt 0 view .LVU138
 416 0106 03EA0903 		and	r3, r3, r9
 417 010a C4F80C31 		str	r3, [r4, #268]
 272:Drivers/STM32H7xx_HAL_Driver/Src/stm32h7xx_hal_flash_ex.c ****         {
 418              		.loc 1 272 9 is_stmt 1 view .LVU139
 272:Drivers/STM32H7xx_HAL_Driver/Src/stm32h7xx_hal_flash_ex.c ****         {
 419              		.loc 1 272 11 is_stmt 0 view .LVU140
ARM GAS  C:\Users\MadeuxS\AppData\Local\Temp\ccAPGHhR.s 			page 27


 420 010e 002E     		cmp	r6, #0
 421 0110 D5D0     		beq	.L61
 422              	.L56:
 275:Drivers/STM32H7xx_HAL_Driver/Src/stm32h7xx_hal_flash_ex.c ****           break;
 423              		.loc 1 275 11 is_stmt 1 view .LVU141
 275:Drivers/STM32H7xx_HAL_Driver/Src/stm32h7xx_hal_flash_ex.c ****           break;
 424              		.loc 1 275 24 is_stmt 0 view .LVU142
 425 0112 C8F800A0 		str	r10, [r8]
 276:Drivers/STM32H7xx_HAL_Driver/Src/stm32h7xx_hal_flash_ex.c ****         }
 426              		.loc 1 276 11 is_stmt 1 view .LVU143
 427 0116 8CE7     		b	.L19
 428              	.LVL29:
 429              	.L59:
 196:Drivers/STM32H7xx_HAL_Driver/Src/stm32h7xx_hal_flash_ex.c ****     {
 430              		.loc 1 196 5 view .LVU144
 196:Drivers/STM32H7xx_HAL_Driver/Src/stm32h7xx_hal_flash_ex.c ****     {
 431              		.loc 1 196 8 is_stmt 0 view .LVU145
 432 0118 3146     		mov	r1, r6
 433 011a 4CF25030 		movw	r0, #50000
 434              	.LVL30:
 196:Drivers/STM32H7xx_HAL_Driver/Src/stm32h7xx_hal_flash_ex.c ****     {
 435              		.loc 1 196 8 view .LVU146
 436 011e FFF7FEFF 		bl	FLASH_WaitForLastOperation
 437              	.LVL31:
 204:Drivers/STM32H7xx_HAL_Driver/Src/stm32h7xx_hal_flash_ex.c ****   {
 438              		.loc 1 204 25 view .LVU147
 439 0122 6B68     		ldr	r3, [r5, #4]
 196:Drivers/STM32H7xx_HAL_Driver/Src/stm32h7xx_hal_flash_ex.c ****     {
 440              		.loc 1 196 7 view .LVU148
 441 0124 0028     		cmp	r0, #0
 442 0126 3FF47BAF 		beq	.L17
 198:Drivers/STM32H7xx_HAL_Driver/Src/stm32h7xx_hal_flash_ex.c ****     }
 443              		.loc 1 198 7 is_stmt 1 view .LVU149
 444              	.LVL32:
 204:Drivers/STM32H7xx_HAL_Driver/Src/stm32h7xx_hal_flash_ex.c ****   {
 445              		.loc 1 204 3 view .LVU150
 204:Drivers/STM32H7xx_HAL_Driver/Src/stm32h7xx_hal_flash_ex.c ****   {
 446              		.loc 1 204 5 is_stmt 0 view .LVU151
 447 012a 9B07     		lsls	r3, r3, #30
 448 012c 80D5     		bpl	.L34
 206:Drivers/STM32H7xx_HAL_Driver/Src/stm32h7xx_hal_flash_ex.c ****     {
 449              		.loc 1 206 5 is_stmt 1 view .LVU152
 206:Drivers/STM32H7xx_HAL_Driver/Src/stm32h7xx_hal_flash_ex.c ****     {
 450              		.loc 1 206 8 is_stmt 0 view .LVU153
 451 012e 0221     		movs	r1, #2
 452 0130 4CF25030 		movw	r0, #50000
 453 0134 FFF7FEFF 		bl	FLASH_WaitForLastOperation
 454              	.LVL33:
 455 0138 7BE7     		b	.L19
 456              	.LVL34:
 457              	.L60:
 218:Drivers/STM32H7xx_HAL_Driver/Src/stm32h7xx_hal_flash_ex.c **** 
 458              		.loc 1 218 7 is_stmt 1 view .LVU154
 459 013a 6968     		ldr	r1, [r5, #4]
 460 013c 2869     		ldr	r0, [r5, #16]
 461 013e FFF7FEFF 		bl	FLASH_MassErase
 462              	.LVL35:
ARM GAS  C:\Users\MadeuxS\AppData\Local\Temp\ccAPGHhR.s 			page 28


 221:Drivers/STM32H7xx_HAL_Driver/Src/stm32h7xx_hal_flash_ex.c ****       {
 463              		.loc 1 221 7 view .LVU155
 221:Drivers/STM32H7xx_HAL_Driver/Src/stm32h7xx_hal_flash_ex.c ****       {
 464              		.loc 1 221 21 is_stmt 0 view .LVU156
 465 0142 6B68     		ldr	r3, [r5, #4]
 221:Drivers/STM32H7xx_HAL_Driver/Src/stm32h7xx_hal_flash_ex.c ****       {
 466              		.loc 1 221 9 view .LVU157
 467 0144 13F00106 		ands	r6, r3, #1
 468 0148 16D1     		bne	.L62
 469              	.L22:
 470              	.LVL36:
 232:Drivers/STM32H7xx_HAL_Driver/Src/stm32h7xx_hal_flash_ex.c ****       {
 471              		.loc 1 232 7 is_stmt 1 view .LVU158
 232:Drivers/STM32H7xx_HAL_Driver/Src/stm32h7xx_hal_flash_ex.c ****       {
 472              		.loc 1 232 9 is_stmt 0 view .LVU159
 473 014a 9A07     		lsls	r2, r3, #30
 474 014c 7FF571AF 		bpl	.L19
 234:Drivers/STM32H7xx_HAL_Driver/Src/stm32h7xx_hal_flash_ex.c ****         {
 475              		.loc 1 234 9 is_stmt 1 view .LVU160
 234:Drivers/STM32H7xx_HAL_Driver/Src/stm32h7xx_hal_flash_ex.c ****         {
 476              		.loc 1 234 12 is_stmt 0 view .LVU161
 477 0150 0221     		movs	r1, #2
 478 0152 4CF25030 		movw	r0, #50000
 479 0156 FFF7FEFF 		bl	FLASH_WaitForLastOperation
 480              	.LVL37:
 239:Drivers/STM32H7xx_HAL_Driver/Src/stm32h7xx_hal_flash_ex.c ****       }
 481              		.loc 1 239 20 view .LVU162
 482 015a 104A     		ldr	r2, .L63+4
 236:Drivers/STM32H7xx_HAL_Driver/Src/stm32h7xx_hal_flash_ex.c ****         }
 483              		.loc 1 236 18 view .LVU163
 484 015c 0028     		cmp	r0, #0
 239:Drivers/STM32H7xx_HAL_Driver/Src/stm32h7xx_hal_flash_ex.c ****       }
 485              		.loc 1 239 20 view .LVU164
 486 015e D2F80C31 		ldr	r3, [r2, #268]
 236:Drivers/STM32H7xx_HAL_Driver/Src/stm32h7xx_hal_flash_ex.c ****         }
 487              		.loc 1 236 18 view .LVU165
 488 0162 18BF     		it	ne
 489 0164 0126     		movne	r6, #1
 490              	.LVL38:
 239:Drivers/STM32H7xx_HAL_Driver/Src/stm32h7xx_hal_flash_ex.c ****       }
 491              		.loc 1 239 9 is_stmt 1 view .LVU166
 239:Drivers/STM32H7xx_HAL_Driver/Src/stm32h7xx_hal_flash_ex.c ****       }
 492              		.loc 1 239 20 is_stmt 0 view .LVU167
 493 0166 23F00803 		bic	r3, r3, #8
 494 016a C2F80C31 		str	r3, [r2, #268]
 495 016e 60E7     		b	.L19
 496              	.LVL39:
 497              	.L37:
 188:Drivers/STM32H7xx_HAL_Driver/Src/stm32h7xx_hal_flash_ex.c **** 
 498              		.loc 1 188 3 view .LVU168
 499 0170 0226     		movs	r6, #2
 286:Drivers/STM32H7xx_HAL_Driver/Src/stm32h7xx_hal_flash_ex.c **** 
 500              		.loc 1 286 1 view .LVU169
 501 0172 3046     		mov	r0, r6
 502              	.LVL40:
 286:Drivers/STM32H7xx_HAL_Driver/Src/stm32h7xx_hal_flash_ex.c **** 
 503              		.loc 1 286 1 view .LVU170
ARM GAS  C:\Users\MadeuxS\AppData\Local\Temp\ccAPGHhR.s 			page 29


 504 0174 BDE8F88F 		pop	{r3, r4, r5, r6, r7, r8, r9, r10, fp, pc}
 505              	.LVL41:
 506              	.L62:
 223:Drivers/STM32H7xx_HAL_Driver/Src/stm32h7xx_hal_flash_ex.c ****         {
 507              		.loc 1 223 9 is_stmt 1 view .LVU171
 223:Drivers/STM32H7xx_HAL_Driver/Src/stm32h7xx_hal_flash_ex.c ****         {
 508              		.loc 1 223 12 is_stmt 0 view .LVU172
 509 0178 2146     		mov	r1, r4
 510 017a 4CF25030 		movw	r0, #50000
 511 017e FFF7FEFF 		bl	FLASH_WaitForLastOperation
 512              	.LVL42:
 228:Drivers/STM32H7xx_HAL_Driver/Src/stm32h7xx_hal_flash_ex.c ****       }
 513              		.loc 1 228 20 view .LVU173
 514 0182 064A     		ldr	r2, .L63+4
 225:Drivers/STM32H7xx_HAL_Driver/Src/stm32h7xx_hal_flash_ex.c ****         }
 515              		.loc 1 225 18 view .LVU174
 516 0184 061E     		subs	r6, r0, #0
 228:Drivers/STM32H7xx_HAL_Driver/Src/stm32h7xx_hal_flash_ex.c ****       }
 517              		.loc 1 228 20 view .LVU175
 518 0186 D368     		ldr	r3, [r2, #12]
 225:Drivers/STM32H7xx_HAL_Driver/Src/stm32h7xx_hal_flash_ex.c ****         }
 519              		.loc 1 225 18 view .LVU176
 520 0188 18BF     		it	ne
 521 018a 0126     		movne	r6, #1
 522              	.LVL43:
 228:Drivers/STM32H7xx_HAL_Driver/Src/stm32h7xx_hal_flash_ex.c ****       }
 523              		.loc 1 228 9 is_stmt 1 view .LVU177
 228:Drivers/STM32H7xx_HAL_Driver/Src/stm32h7xx_hal_flash_ex.c ****       }
 524              		.loc 1 228 20 is_stmt 0 view .LVU178
 525 018c 23F00803 		bic	r3, r3, #8
 526 0190 D360     		str	r3, [r2, #12]
 232:Drivers/STM32H7xx_HAL_Driver/Src/stm32h7xx_hal_flash_ex.c ****       {
 527              		.loc 1 232 21 view .LVU179
 528 0192 6B68     		ldr	r3, [r5, #4]
 529 0194 D9E7     		b	.L22
 530              	.L64:
 531 0196 00BF     		.align	2
 532              	.L63:
 533 0198 00000000 		.word	pFlash
 534 019c 00200052 		.word	1375739904
 535 01a0 FBF8FFFF 		.word	-1797
 536              		.cfi_endproc
 537              	.LFE144:
 539              		.section	.text.HAL_FLASHEx_Erase_IT,"ax",%progbits
 540              		.align	1
 541              		.p2align 2,,3
 542              		.global	HAL_FLASHEx_Erase_IT
 543              		.syntax unified
 544              		.thumb
 545              		.thumb_func
 546              		.fpu fpv5-d16
 548              	HAL_FLASHEx_Erase_IT:
 549              	.LVL44:
 550              	.LFB145:
 296:Drivers/STM32H7xx_HAL_Driver/Src/stm32h7xx_hal_flash_ex.c ****   HAL_StatusTypeDef status = HAL_OK;
 551              		.loc 1 296 1 is_stmt 1 view -0
 552              		.cfi_startproc
ARM GAS  C:\Users\MadeuxS\AppData\Local\Temp\ccAPGHhR.s 			page 30


 553              		@ args = 0, pretend = 0, frame = 0
 554              		@ frame_needed = 0, uses_anonymous_args = 0
 297:Drivers/STM32H7xx_HAL_Driver/Src/stm32h7xx_hal_flash_ex.c **** 
 555              		.loc 1 297 3 view .LVU181
 300:Drivers/STM32H7xx_HAL_Driver/Src/stm32h7xx_hal_flash_ex.c ****   assert_param(IS_FLASH_BANK(pEraseInit->Banks));
 556              		.loc 1 300 3 view .LVU182
 301:Drivers/STM32H7xx_HAL_Driver/Src/stm32h7xx_hal_flash_ex.c **** 
 557              		.loc 1 301 3 view .LVU183
 304:Drivers/STM32H7xx_HAL_Driver/Src/stm32h7xx_hal_flash_ex.c **** 
 558              		.loc 1 304 3 view .LVU184
 304:Drivers/STM32H7xx_HAL_Driver/Src/stm32h7xx_hal_flash_ex.c **** 
 559              		.loc 1 304 3 view .LVU185
 296:Drivers/STM32H7xx_HAL_Driver/Src/stm32h7xx_hal_flash_ex.c ****   HAL_StatusTypeDef status = HAL_OK;
 560              		.loc 1 296 1 is_stmt 0 view .LVU186
 561 0000 70B5     		push	{r4, r5, r6, lr}
 562              	.LCFI1:
 563              		.cfi_def_cfa_offset 16
 564              		.cfi_offset 4, -16
 565              		.cfi_offset 5, -12
 566              		.cfi_offset 6, -8
 567              		.cfi_offset 14, -4
 304:Drivers/STM32H7xx_HAL_Driver/Src/stm32h7xx_hal_flash_ex.c **** 
 568              		.loc 1 304 3 view .LVU187
 569 0002 484D     		ldr	r5, .L107
 570 0004 2B7D     		ldrb	r3, [r5, #20]	@ zero_extendqisi2
 571 0006 012B     		cmp	r3, #1
 572 0008 7ED0     		beq	.L85
 304:Drivers/STM32H7xx_HAL_Driver/Src/stm32h7xx_hal_flash_ex.c **** 
 573              		.loc 1 304 3 is_stmt 1 discriminator 2 view .LVU188
 574 000a 0121     		movs	r1, #1
 575 000c 0446     		mov	r4, r0
 307:Drivers/STM32H7xx_HAL_Driver/Src/stm32h7xx_hal_flash_ex.c **** 
 576              		.loc 1 307 20 is_stmt 0 discriminator 2 view .LVU189
 577 000e 0022     		movs	r2, #0
 304:Drivers/STM32H7xx_HAL_Driver/Src/stm32h7xx_hal_flash_ex.c **** 
 578              		.loc 1 304 3 discriminator 2 view .LVU190
 579 0010 2975     		strb	r1, [r5, #20]
 304:Drivers/STM32H7xx_HAL_Driver/Src/stm32h7xx_hal_flash_ex.c **** 
 580              		.loc 1 304 3 is_stmt 1 discriminator 2 view .LVU191
 307:Drivers/STM32H7xx_HAL_Driver/Src/stm32h7xx_hal_flash_ex.c **** 
 581              		.loc 1 307 3 discriminator 2 view .LVU192
 310:Drivers/STM32H7xx_HAL_Driver/Src/stm32h7xx_hal_flash_ex.c ****   {
 582              		.loc 1 310 17 is_stmt 0 discriminator 2 view .LVU193
 583 0012 4368     		ldr	r3, [r0, #4]
 307:Drivers/STM32H7xx_HAL_Driver/Src/stm32h7xx_hal_flash_ex.c **** 
 584              		.loc 1 307 20 discriminator 2 view .LVU194
 585 0014 AA61     		str	r2, [r5, #24]
 310:Drivers/STM32H7xx_HAL_Driver/Src/stm32h7xx_hal_flash_ex.c ****   {
 586              		.loc 1 310 3 is_stmt 1 discriminator 2 view .LVU195
 310:Drivers/STM32H7xx_HAL_Driver/Src/stm32h7xx_hal_flash_ex.c ****   {
 587              		.loc 1 310 5 is_stmt 0 discriminator 2 view .LVU196
 588 0016 D807     		lsls	r0, r3, #31
 589              	.LVL45:
 310:Drivers/STM32H7xx_HAL_Driver/Src/stm32h7xx_hal_flash_ex.c ****   {
 590              		.loc 1 310 5 discriminator 2 view .LVU197
 591 0018 29D4     		bmi	.L102
 320:Drivers/STM32H7xx_HAL_Driver/Src/stm32h7xx_hal_flash_ex.c ****   {
ARM GAS  C:\Users\MadeuxS\AppData\Local\Temp\ccAPGHhR.s 			page 31


 592              		.loc 1 320 3 is_stmt 1 view .LVU198
 320:Drivers/STM32H7xx_HAL_Driver/Src/stm32h7xx_hal_flash_ex.c ****   {
 593              		.loc 1 320 5 is_stmt 0 view .LVU199
 594 001a 13F00202 		ands	r2, r3, #2
 595 001e 3CD0     		beq	.L74
 596              	.L84:
 322:Drivers/STM32H7xx_HAL_Driver/Src/stm32h7xx_hal_flash_ex.c ****     {
 597              		.loc 1 322 5 is_stmt 1 view .LVU200
 322:Drivers/STM32H7xx_HAL_Driver/Src/stm32h7xx_hal_flash_ex.c ****     {
 598              		.loc 1 322 8 is_stmt 0 view .LVU201
 599 0020 0221     		movs	r1, #2
 600 0022 4CF25030 		movw	r0, #50000
 601 0026 FFF7FEFF 		bl	FLASH_WaitForLastOperation
 602              	.LVL46:
 322:Drivers/STM32H7xx_HAL_Driver/Src/stm32h7xx_hal_flash_ex.c ****     {
 603              		.loc 1 322 7 view .LVU202
 604 002a 40BB     		cbnz	r0, .L71
 605              	.LVL47:
 336:Drivers/STM32H7xx_HAL_Driver/Src/stm32h7xx_hal_flash_ex.c ****     {
 606              		.loc 1 336 5 is_stmt 1 view .LVU203
 336:Drivers/STM32H7xx_HAL_Driver/Src/stm32h7xx_hal_flash_ex.c ****     {
 607              		.loc 1 336 19 is_stmt 0 view .LVU204
 608 002c 6368     		ldr	r3, [r4, #4]
 336:Drivers/STM32H7xx_HAL_Driver/Src/stm32h7xx_hal_flash_ex.c ****     {
 609              		.loc 1 336 7 view .LVU205
 610 002e 13F00102 		ands	r2, r3, #1
 348:Drivers/STM32H7xx_HAL_Driver/Src/stm32h7xx_hal_flash_ex.c ****     {
 611              		.loc 1 348 27 view .LVU206
 612 0032 03F00200 		and	r0, r3, #2
 336:Drivers/STM32H7xx_HAL_Driver/Src/stm32h7xx_hal_flash_ex.c ****     {
 613              		.loc 1 336 7 view .LVU207
 614 0036 04D0     		beq	.L73
 340:Drivers/STM32H7xx_HAL_Driver/Src/stm32h7xx_hal_flash_ex.c ****                                   FLASH_IT_STRBERR_BANK1 | FLASH_IT_INCERR_BANK1 | FLASH_IT_OPERR_B
 615              		.loc 1 340 7 is_stmt 1 view .LVU208
 616 0038 3B4E     		ldr	r6, .L107+4
 617 003a F168     		ldr	r1, [r6, #12]
 618 003c 41F4DE01 		orr	r1, r1, #7274496
 619 0040 F160     		str	r1, [r6, #12]
 620              	.L73:
 348:Drivers/STM32H7xx_HAL_Driver/Src/stm32h7xx_hal_flash_ex.c ****     {
 621              		.loc 1 348 5 view .LVU209
 348:Drivers/STM32H7xx_HAL_Driver/Src/stm32h7xx_hal_flash_ex.c ****     {
 622              		.loc 1 348 7 is_stmt 0 view .LVU210
 623 0042 50B3     		cbz	r0, .L74
 352:Drivers/STM32H7xx_HAL_Driver/Src/stm32h7xx_hal_flash_ex.c ****                                   FLASH_IT_STRBERR_BANK2 | FLASH_IT_INCERR_BANK2 | FLASH_IT_OPERR_B
 624              		.loc 1 352 7 is_stmt 1 view .LVU211
 625 0044 384E     		ldr	r6, .L107+4
 626 0046 D6F80C11 		ldr	r1, [r6, #268]
 627 004a 41F4DE01 		orr	r1, r1, #7274496
 628 004e C6F80C11 		str	r1, [r6, #268]
 361:Drivers/STM32H7xx_HAL_Driver/Src/stm32h7xx_hal_flash_ex.c ****     {
 629              		.loc 1 361 5 view .LVU212
 361:Drivers/STM32H7xx_HAL_Driver/Src/stm32h7xx_hal_flash_ex.c ****     {
 630              		.loc 1 361 7 is_stmt 0 view .LVU213
 631 0052 2168     		ldr	r1, [r4]
 632 0054 0129     		cmp	r1, #1
 633 0056 24D1     		bne	.L76
ARM GAS  C:\Users\MadeuxS\AppData\Local\Temp\ccAPGHhR.s 			page 32


 634              	.L75:
 369:Drivers/STM32H7xx_HAL_Driver/Src/stm32h7xx_hal_flash_ex.c ****       {
 635              		.loc 1 369 12 is_stmt 1 view .LVU214
 369:Drivers/STM32H7xx_HAL_Driver/Src/stm32h7xx_hal_flash_ex.c ****       {
 636              		.loc 1 369 14 is_stmt 0 view .LVU215
 637 0058 022B     		cmp	r3, #2
 371:Drivers/STM32H7xx_HAL_Driver/Src/stm32h7xx_hal_flash_ex.c ****       }
 638              		.loc 1 371 9 is_stmt 1 view .LVU216
 371:Drivers/STM32H7xx_HAL_Driver/Src/stm32h7xx_hal_flash_ex.c ****       }
 639              		.loc 1 371 33 is_stmt 0 view .LVU217
 640 005a 0CBF     		ite	eq
 641 005c 0522     		moveq	r2, #5
 376:Drivers/STM32H7xx_HAL_Driver/Src/stm32h7xx_hal_flash_ex.c ****       }
 642              		.loc 1 376 9 is_stmt 1 view .LVU218
 376:Drivers/STM32H7xx_HAL_Driver/Src/stm32h7xx_hal_flash_ex.c ****       }
 643              		.loc 1 376 33 is_stmt 0 view .LVU219
 644 005e 0722     		movne	r2, #7
 645 0060 2A70     		strb	r2, [r5]
 646              	.L77:
 379:Drivers/STM32H7xx_HAL_Driver/Src/stm32h7xx_hal_flash_ex.c ****     }
 647              		.loc 1 379 7 is_stmt 1 view .LVU220
 648 0062 2069     		ldr	r0, [r4, #16]
 649 0064 1946     		mov	r1, r3
 650 0066 FFF7FEFF 		bl	FLASH_MassErase
 651              	.LVL48:
 652 006a 0020     		movs	r0, #0
 653              	.L100:
 407:Drivers/STM32H7xx_HAL_Driver/Src/stm32h7xx_hal_flash_ex.c **** 
 654              		.loc 1 407 1 is_stmt 0 view .LVU221
 655 006c 70BD     		pop	{r4, r5, r6, pc}
 656              	.LVL49:
 657              	.L102:
 312:Drivers/STM32H7xx_HAL_Driver/Src/stm32h7xx_hal_flash_ex.c ****     {
 658              		.loc 1 312 5 is_stmt 1 view .LVU222
 312:Drivers/STM32H7xx_HAL_Driver/Src/stm32h7xx_hal_flash_ex.c ****     {
 659              		.loc 1 312 8 is_stmt 0 view .LVU223
 660 006e 4CF25030 		movw	r0, #50000
 661 0072 FFF7FEFF 		bl	FLASH_WaitForLastOperation
 662              	.LVL50:
 320:Drivers/STM32H7xx_HAL_Driver/Src/stm32h7xx_hal_flash_ex.c ****   {
 663              		.loc 1 320 25 view .LVU224
 664 0076 6368     		ldr	r3, [r4, #4]
 312:Drivers/STM32H7xx_HAL_Driver/Src/stm32h7xx_hal_flash_ex.c ****     {
 665              		.loc 1 312 7 view .LVU225
 666 0078 28B1     		cbz	r0, .L103
 314:Drivers/STM32H7xx_HAL_Driver/Src/stm32h7xx_hal_flash_ex.c ****     }
 667              		.loc 1 314 7 is_stmt 1 view .LVU226
 668              	.LVL51:
 320:Drivers/STM32H7xx_HAL_Driver/Src/stm32h7xx_hal_flash_ex.c ****   {
 669              		.loc 1 320 3 view .LVU227
 320:Drivers/STM32H7xx_HAL_Driver/Src/stm32h7xx_hal_flash_ex.c ****   {
 670              		.loc 1 320 5 is_stmt 0 view .LVU228
 671 007a 9B07     		lsls	r3, r3, #30
 672 007c 4BD4     		bmi	.L104
 673              	.LVL52:
 674              	.L71:
 332:Drivers/STM32H7xx_HAL_Driver/Src/stm32h7xx_hal_flash_ex.c ****   }
ARM GAS  C:\Users\MadeuxS\AppData\Local\Temp\ccAPGHhR.s 			page 33


 675              		.loc 1 332 5 is_stmt 1 view .LVU229
 332:Drivers/STM32H7xx_HAL_Driver/Src/stm32h7xx_hal_flash_ex.c ****   }
 676              		.loc 1 332 5 view .LVU230
 677 007e 0023     		movs	r3, #0
 678 0080 0120     		movs	r0, #1
 679 0082 2B75     		strb	r3, [r5, #20]
 332:Drivers/STM32H7xx_HAL_Driver/Src/stm32h7xx_hal_flash_ex.c ****   }
 680              		.loc 1 332 5 view .LVU231
 407:Drivers/STM32H7xx_HAL_Driver/Src/stm32h7xx_hal_flash_ex.c **** 
 681              		.loc 1 407 1 is_stmt 0 view .LVU232
 682 0084 70BD     		pop	{r4, r5, r6, pc}
 683              	.LVL53:
 684              	.L103:
 320:Drivers/STM32H7xx_HAL_Driver/Src/stm32h7xx_hal_flash_ex.c ****   {
 685              		.loc 1 320 3 is_stmt 1 view .LVU233
 320:Drivers/STM32H7xx_HAL_Driver/Src/stm32h7xx_hal_flash_ex.c ****   {
 686              		.loc 1 320 5 is_stmt 0 view .LVU234
 687 0086 9A07     		lsls	r2, r3, #30
 688 0088 CAD4     		bmi	.L84
 689              	.LVL54:
 336:Drivers/STM32H7xx_HAL_Driver/Src/stm32h7xx_hal_flash_ex.c ****     {
 690              		.loc 1 336 5 is_stmt 1 view .LVU235
 336:Drivers/STM32H7xx_HAL_Driver/Src/stm32h7xx_hal_flash_ex.c ****     {
 691              		.loc 1 336 7 is_stmt 0 view .LVU236
 692 008a 13F00102 		ands	r2, r3, #1
 693 008e 04D0     		beq	.L74
 340:Drivers/STM32H7xx_HAL_Driver/Src/stm32h7xx_hal_flash_ex.c ****                                   FLASH_IT_STRBERR_BANK1 | FLASH_IT_INCERR_BANK1 | FLASH_IT_OPERR_B
 694              		.loc 1 340 7 is_stmt 1 view .LVU237
 695 0090 2548     		ldr	r0, .L107+4
 696 0092 C168     		ldr	r1, [r0, #12]
 697 0094 41F4DE01 		orr	r1, r1, #7274496
 698 0098 C160     		str	r1, [r0, #12]
 348:Drivers/STM32H7xx_HAL_Driver/Src/stm32h7xx_hal_flash_ex.c ****     {
 699              		.loc 1 348 5 view .LVU238
 700              	.L74:
 361:Drivers/STM32H7xx_HAL_Driver/Src/stm32h7xx_hal_flash_ex.c ****     {
 701              		.loc 1 361 5 view .LVU239
 361:Drivers/STM32H7xx_HAL_Driver/Src/stm32h7xx_hal_flash_ex.c ****     {
 702              		.loc 1 361 7 is_stmt 0 view .LVU240
 703 009a 2168     		ldr	r1, [r4]
 704 009c 0129     		cmp	r1, #1
 705 009e 35D0     		beq	.L105
 706 00a0 0020     		movs	r0, #0
 707              	.L76:
 385:Drivers/STM32H7xx_HAL_Driver/Src/stm32h7xx_hal_flash_ex.c ****       {
 708              		.loc 1 385 7 is_stmt 1 view .LVU241
 385:Drivers/STM32H7xx_HAL_Driver/Src/stm32h7xx_hal_flash_ex.c ****       {
 709              		.loc 1 385 9 is_stmt 0 view .LVU242
 710 00a2 012B     		cmp	r3, #1
 711 00a4 1CD0     		beq	.L106
 391:Drivers/STM32H7xx_HAL_Driver/Src/stm32h7xx_hal_flash_ex.c ****       }
 712              		.loc 1 391 9 is_stmt 1 view .LVU243
 391:Drivers/STM32H7xx_HAL_Driver/Src/stm32h7xx_hal_flash_ex.c ****       }
 713              		.loc 1 391 33 is_stmt 0 view .LVU244
 714 00a6 0423     		movs	r3, #4
 398:Drivers/STM32H7xx_HAL_Driver/Src/stm32h7xx_hal_flash_ex.c ****       pFlash.VoltageForErase = pEraseInit->VoltageRange;
 715              		.loc 1 398 33 view .LVU245
ARM GAS  C:\Users\MadeuxS\AppData\Local\Temp\ccAPGHhR.s 			page 34


 716 00a8 A668     		ldr	r6, [r4, #8]
 399:Drivers/STM32H7xx_HAL_Driver/Src/stm32h7xx_hal_flash_ex.c **** 
 717              		.loc 1 399 42 view .LVU246
 718 00aa 2169     		ldr	r1, [r4, #16]
 391:Drivers/STM32H7xx_HAL_Driver/Src/stm32h7xx_hal_flash_ex.c ****       }
 719              		.loc 1 391 33 view .LVU247
 720 00ac 2B70     		strb	r3, [r5]
 397:Drivers/STM32H7xx_HAL_Driver/Src/stm32h7xx_hal_flash_ex.c ****       pFlash.Sector = pEraseInit->Sector;
 721              		.loc 1 397 7 is_stmt 1 view .LVU248
 397:Drivers/STM32H7xx_HAL_Driver/Src/stm32h7xx_hal_flash_ex.c ****       pFlash.Sector = pEraseInit->Sector;
 722              		.loc 1 397 43 is_stmt 0 view .LVU249
 723 00ae E368     		ldr	r3, [r4, #12]
 397:Drivers/STM32H7xx_HAL_Driver/Src/stm32h7xx_hal_flash_ex.c ****       pFlash.Sector = pEraseInit->Sector;
 724              		.loc 1 397 31 view .LVU250
 725 00b0 6B60     		str	r3, [r5, #4]
 398:Drivers/STM32H7xx_HAL_Driver/Src/stm32h7xx_hal_flash_ex.c ****       pFlash.VoltageForErase = pEraseInit->VoltageRange;
 726              		.loc 1 398 7 is_stmt 1 view .LVU251
 398:Drivers/STM32H7xx_HAL_Driver/Src/stm32h7xx_hal_flash_ex.c ****       pFlash.VoltageForErase = pEraseInit->VoltageRange;
 727              		.loc 1 398 21 is_stmt 0 view .LVU252
 728 00b2 EE60     		str	r6, [r5, #12]
 399:Drivers/STM32H7xx_HAL_Driver/Src/stm32h7xx_hal_flash_ex.c **** 
 729              		.loc 1 399 7 is_stmt 1 view .LVU253
 399:Drivers/STM32H7xx_HAL_Driver/Src/stm32h7xx_hal_flash_ex.c **** 
 730              		.loc 1 399 30 is_stmt 0 view .LVU254
 731 00b4 A960     		str	r1, [r5, #8]
 402:Drivers/STM32H7xx_HAL_Driver/Src/stm32h7xx_hal_flash_ex.c ****     }
 732              		.loc 1 402 7 is_stmt 1 view .LVU255
 733              	.LVL55:
 734              	.LBB58:
 735              	.LBI58:
 927:Drivers/STM32H7xx_HAL_Driver/Src/stm32h7xx_hal_flash_ex.c **** {
 736              		.loc 1 927 6 view .LVU256
 737              	.LBB59:
 929:Drivers/STM32H7xx_HAL_Driver/Src/stm32h7xx_hal_flash_ex.c ****   assert_param(IS_FLASH_BANK_EXCLUSIVE(Banks));
 738              		.loc 1 929 3 view .LVU257
 930:Drivers/STM32H7xx_HAL_Driver/Src/stm32h7xx_hal_flash_ex.c **** #if defined (FLASH_CR_PSIZE)
 739              		.loc 1 930 3 view .LVU258
 932:Drivers/STM32H7xx_HAL_Driver/Src/stm32h7xx_hal_flash_ex.c **** #else
 740              		.loc 1 932 3 view .LVU259
 937:Drivers/STM32H7xx_HAL_Driver/Src/stm32h7xx_hal_flash_ex.c ****   {
 741              		.loc 1 937 3 view .LVU260
 937:Drivers/STM32H7xx_HAL_Driver/Src/stm32h7xx_hal_flash_ex.c ****   {
 742              		.loc 1 937 5 is_stmt 0 view .LVU261
 743 00b6 D2B9     		cbnz	r2, .L80
 744              	.L81:
 953:Drivers/STM32H7xx_HAL_Driver/Src/stm32h7xx_hal_flash_ex.c ****   {
 745              		.loc 1 953 3 is_stmt 1 view .LVU262
 953:Drivers/STM32H7xx_HAL_Driver/Src/stm32h7xx_hal_flash_ex.c ****   {
 746              		.loc 1 953 5 is_stmt 0 view .LVU263
 747 00b8 0028     		cmp	r0, #0
 748 00ba D7D0     		beq	.L100
 749              	.LVL56:
 750              	.LBB60:
 751              	.LBI60:
 927:Drivers/STM32H7xx_HAL_Driver/Src/stm32h7xx_hal_flash_ex.c **** {
 752              		.loc 1 927 6 is_stmt 1 view .LVU264
 753              	.LBB61:
ARM GAS  C:\Users\MadeuxS\AppData\Local\Temp\ccAPGHhR.s 			page 35


 957:Drivers/STM32H7xx_HAL_Driver/Src/stm32h7xx_hal_flash_ex.c **** 
 754              		.loc 1 957 5 view .LVU265
 957:Drivers/STM32H7xx_HAL_Driver/Src/stm32h7xx_hal_flash_ex.c **** 
 755              		.loc 1 957 16 is_stmt 0 view .LVU266
 756 00bc 1A4A     		ldr	r2, .L107+4
 960:Drivers/STM32H7xx_HAL_Driver/Src/stm32h7xx_hal_flash_ex.c **** #else
 961:Drivers/STM32H7xx_HAL_Driver/Src/stm32h7xx_hal_flash_ex.c ****     /* Reset Sector Number for Bank2 */
 962:Drivers/STM32H7xx_HAL_Driver/Src/stm32h7xx_hal_flash_ex.c ****     FLASH->CR2 &= ~(FLASH_CR_SNB);
 963:Drivers/STM32H7xx_HAL_Driver/Src/stm32h7xx_hal_flash_ex.c **** 
 964:Drivers/STM32H7xx_HAL_Driver/Src/stm32h7xx_hal_flash_ex.c ****     FLASH->CR2 |= (FLASH_CR_SER | (Sector << FLASH_CR_SNB_Pos) | FLASH_CR_START);
 965:Drivers/STM32H7xx_HAL_Driver/Src/stm32h7xx_hal_flash_ex.c **** #endif /* FLASH_CR_PSIZE */
 966:Drivers/STM32H7xx_HAL_Driver/Src/stm32h7xx_hal_flash_ex.c ****   }
 967:Drivers/STM32H7xx_HAL_Driver/Src/stm32h7xx_hal_flash_ex.c **** #endif /* DUAL_BANK */
 968:Drivers/STM32H7xx_HAL_Driver/Src/stm32h7xx_hal_flash_ex.c **** }
 757              		.loc 1 968 1 view .LVU267
 758 00be 0020     		movs	r0, #0
 957:Drivers/STM32H7xx_HAL_Driver/Src/stm32h7xx_hal_flash_ex.c **** 
 759              		.loc 1 957 16 view .LVU268
 760 00c0 D2F80C31 		ldr	r3, [r2, #268]
 761 00c4 23F4E663 		bic	r3, r3, #1840
 762 00c8 C2F80C31 		str	r3, [r2, #268]
 959:Drivers/STM32H7xx_HAL_Driver/Src/stm32h7xx_hal_flash_ex.c **** #else
 763              		.loc 1 959 5 is_stmt 1 view .LVU269
 959:Drivers/STM32H7xx_HAL_Driver/Src/stm32h7xx_hal_flash_ex.c **** #else
 764              		.loc 1 959 16 is_stmt 0 view .LVU270
 765 00cc D2F80C31 		ldr	r3, [r2, #268]
 766 00d0 43EA0623 		orr	r3, r3, r6, lsl #8
 767 00d4 0B43     		orrs	r3, r3, r1
 768 00d6 43F08403 		orr	r3, r3, #132
 769 00da C2F80C31 		str	r3, [r2, #268]
 770              	.LBE61:
 771              	.LBE60:
 772              	.LBE59:
 773              	.LBE58:
 407:Drivers/STM32H7xx_HAL_Driver/Src/stm32h7xx_hal_flash_ex.c **** 
 774              		.loc 1 407 1 view .LVU271
 775 00de 70BD     		pop	{r4, r5, r6, pc}
 776              	.LVL57:
 777              	.L106:
 387:Drivers/STM32H7xx_HAL_Driver/Src/stm32h7xx_hal_flash_ex.c ****       }
 778              		.loc 1 387 9 is_stmt 1 view .LVU272
 397:Drivers/STM32H7xx_HAL_Driver/Src/stm32h7xx_hal_flash_ex.c ****       pFlash.Sector = pEraseInit->Sector;
 779              		.loc 1 397 43 is_stmt 0 view .LVU273
 780 00e0 E268     		ldr	r2, [r4, #12]
 398:Drivers/STM32H7xx_HAL_Driver/Src/stm32h7xx_hal_flash_ex.c ****       pFlash.VoltageForErase = pEraseInit->VoltageRange;
 781              		.loc 1 398 33 view .LVU274
 782 00e2 A668     		ldr	r6, [r4, #8]
 399:Drivers/STM32H7xx_HAL_Driver/Src/stm32h7xx_hal_flash_ex.c **** 
 783              		.loc 1 399 42 view .LVU275
 784 00e4 2169     		ldr	r1, [r4, #16]
 387:Drivers/STM32H7xx_HAL_Driver/Src/stm32h7xx_hal_flash_ex.c ****       }
 785              		.loc 1 387 33 view .LVU276
 786 00e6 2B70     		strb	r3, [r5]
 397:Drivers/STM32H7xx_HAL_Driver/Src/stm32h7xx_hal_flash_ex.c ****       pFlash.Sector = pEraseInit->Sector;
 787              		.loc 1 397 7 is_stmt 1 view .LVU277
 397:Drivers/STM32H7xx_HAL_Driver/Src/stm32h7xx_hal_flash_ex.c ****       pFlash.Sector = pEraseInit->Sector;
 788              		.loc 1 397 31 is_stmt 0 view .LVU278
ARM GAS  C:\Users\MadeuxS\AppData\Local\Temp\ccAPGHhR.s 			page 36


 789 00e8 6A60     		str	r2, [r5, #4]
 398:Drivers/STM32H7xx_HAL_Driver/Src/stm32h7xx_hal_flash_ex.c ****       pFlash.VoltageForErase = pEraseInit->VoltageRange;
 790              		.loc 1 398 7 is_stmt 1 view .LVU279
 398:Drivers/STM32H7xx_HAL_Driver/Src/stm32h7xx_hal_flash_ex.c ****       pFlash.VoltageForErase = pEraseInit->VoltageRange;
 791              		.loc 1 398 21 is_stmt 0 view .LVU280
 792 00ea EE60     		str	r6, [r5, #12]
 399:Drivers/STM32H7xx_HAL_Driver/Src/stm32h7xx_hal_flash_ex.c **** 
 793              		.loc 1 399 7 is_stmt 1 view .LVU281
 399:Drivers/STM32H7xx_HAL_Driver/Src/stm32h7xx_hal_flash_ex.c **** 
 794              		.loc 1 399 30 is_stmt 0 view .LVU282
 795 00ec A960     		str	r1, [r5, #8]
 402:Drivers/STM32H7xx_HAL_Driver/Src/stm32h7xx_hal_flash_ex.c ****     }
 796              		.loc 1 402 7 is_stmt 1 view .LVU283
 797              	.LVL58:
 798              	.LBB63:
 927:Drivers/STM32H7xx_HAL_Driver/Src/stm32h7xx_hal_flash_ex.c **** {
 799              		.loc 1 927 6 view .LVU284
 800              	.LBB62:
 929:Drivers/STM32H7xx_HAL_Driver/Src/stm32h7xx_hal_flash_ex.c ****   assert_param(IS_FLASH_BANK_EXCLUSIVE(Banks));
 801              		.loc 1 929 3 view .LVU285
 930:Drivers/STM32H7xx_HAL_Driver/Src/stm32h7xx_hal_flash_ex.c **** #if defined (FLASH_CR_PSIZE)
 802              		.loc 1 930 3 view .LVU286
 932:Drivers/STM32H7xx_HAL_Driver/Src/stm32h7xx_hal_flash_ex.c **** #else
 803              		.loc 1 932 3 view .LVU287
 937:Drivers/STM32H7xx_HAL_Driver/Src/stm32h7xx_hal_flash_ex.c ****   {
 804              		.loc 1 937 3 view .LVU288
 805              	.L80:
 941:Drivers/STM32H7xx_HAL_Driver/Src/stm32h7xx_hal_flash_ex.c **** 
 806              		.loc 1 941 5 view .LVU289
 941:Drivers/STM32H7xx_HAL_Driver/Src/stm32h7xx_hal_flash_ex.c **** 
 807              		.loc 1 941 16 is_stmt 0 view .LVU290
 808 00ee 0E4B     		ldr	r3, .L107+4
 809 00f0 DA68     		ldr	r2, [r3, #12]
 810 00f2 22F4E662 		bic	r2, r2, #1840
 811 00f6 DA60     		str	r2, [r3, #12]
 943:Drivers/STM32H7xx_HAL_Driver/Src/stm32h7xx_hal_flash_ex.c **** #else
 812              		.loc 1 943 5 is_stmt 1 view .LVU291
 943:Drivers/STM32H7xx_HAL_Driver/Src/stm32h7xx_hal_flash_ex.c **** #else
 813              		.loc 1 943 16 is_stmt 0 view .LVU292
 814 00f8 DA68     		ldr	r2, [r3, #12]
 815 00fa 42EA0622 		orr	r2, r2, r6, lsl #8
 816 00fe 0A43     		orrs	r2, r2, r1
 817 0100 42F08402 		orr	r2, r2, #132
 818 0104 DA60     		str	r2, [r3, #12]
 819 0106 D7E7     		b	.L81
 820              	.LVL59:
 821              	.L85:
 943:Drivers/STM32H7xx_HAL_Driver/Src/stm32h7xx_hal_flash_ex.c **** #else
 822              		.loc 1 943 16 view .LVU293
 823              	.LBE62:
 824              	.LBE63:
 304:Drivers/STM32H7xx_HAL_Driver/Src/stm32h7xx_hal_flash_ex.c **** 
 825              		.loc 1 304 3 view .LVU294
 826 0108 0220     		movs	r0, #2
 827              	.LVL60:
 407:Drivers/STM32H7xx_HAL_Driver/Src/stm32h7xx_hal_flash_ex.c **** 
 828              		.loc 1 407 1 view .LVU295
ARM GAS  C:\Users\MadeuxS\AppData\Local\Temp\ccAPGHhR.s 			page 37


 829 010a 70BD     		pop	{r4, r5, r6, pc}
 830              	.LVL61:
 831              	.L105:
 364:Drivers/STM32H7xx_HAL_Driver/Src/stm32h7xx_hal_flash_ex.c ****       {
 832              		.loc 1 364 7 is_stmt 1 view .LVU296
 364:Drivers/STM32H7xx_HAL_Driver/Src/stm32h7xx_hal_flash_ex.c ****       {
 833              		.loc 1 364 9 is_stmt 0 view .LVU297
 834 010c 012B     		cmp	r3, #1
 835 010e A3D1     		bne	.L75
 366:Drivers/STM32H7xx_HAL_Driver/Src/stm32h7xx_hal_flash_ex.c ****       }
 836              		.loc 1 366 9 is_stmt 1 view .LVU298
 366:Drivers/STM32H7xx_HAL_Driver/Src/stm32h7xx_hal_flash_ex.c ****       }
 837              		.loc 1 366 33 is_stmt 0 view .LVU299
 838 0110 0222     		movs	r2, #2
 839 0112 2A70     		strb	r2, [r5]
 840 0114 A5E7     		b	.L77
 841              	.LVL62:
 842              	.L104:
 322:Drivers/STM32H7xx_HAL_Driver/Src/stm32h7xx_hal_flash_ex.c ****     {
 843              		.loc 1 322 5 is_stmt 1 view .LVU300
 322:Drivers/STM32H7xx_HAL_Driver/Src/stm32h7xx_hal_flash_ex.c ****     {
 844              		.loc 1 322 8 is_stmt 0 view .LVU301
 845 0116 0221     		movs	r1, #2
 846 0118 4CF25030 		movw	r0, #50000
 847 011c FFF7FEFF 		bl	FLASH_WaitForLastOperation
 848              	.LVL63:
 849 0120 ADE7     		b	.L71
 850              	.L108:
 851 0122 00BF     		.align	2
 852              	.L107:
 853 0124 00000000 		.word	pFlash
 854 0128 00200052 		.word	1375739904
 855              		.cfi_endproc
 856              	.LFE145:
 858              		.section	.text.HAL_FLASHEx_OBProgram,"ax",%progbits
 859              		.align	1
 860              		.p2align 2,,3
 861              		.global	HAL_FLASHEx_OBProgram
 862              		.syntax unified
 863              		.thumb
 864              		.thumb_func
 865              		.fpu fpv5-d16
 867              	HAL_FLASHEx_OBProgram:
 868              	.LVL64:
 869              	.LFB146:
 417:Drivers/STM32H7xx_HAL_Driver/Src/stm32h7xx_hal_flash_ex.c ****   HAL_StatusTypeDef status;
 870              		.loc 1 417 1 is_stmt 1 view -0
 871              		.cfi_startproc
 872              		@ args = 0, pretend = 0, frame = 0
 873              		@ frame_needed = 0, uses_anonymous_args = 0
 418:Drivers/STM32H7xx_HAL_Driver/Src/stm32h7xx_hal_flash_ex.c **** 
 874              		.loc 1 418 3 view .LVU303
 421:Drivers/STM32H7xx_HAL_Driver/Src/stm32h7xx_hal_flash_ex.c **** 
 875              		.loc 1 421 3 view .LVU304
 424:Drivers/STM32H7xx_HAL_Driver/Src/stm32h7xx_hal_flash_ex.c **** 
 876              		.loc 1 424 3 view .LVU305
 424:Drivers/STM32H7xx_HAL_Driver/Src/stm32h7xx_hal_flash_ex.c **** 
ARM GAS  C:\Users\MadeuxS\AppData\Local\Temp\ccAPGHhR.s 			page 38


 877              		.loc 1 424 3 view .LVU306
 417:Drivers/STM32H7xx_HAL_Driver/Src/stm32h7xx_hal_flash_ex.c ****   HAL_StatusTypeDef status;
 878              		.loc 1 417 1 is_stmt 0 view .LVU307
 879 0000 F8B5     		push	{r3, r4, r5, r6, r7, lr}
 880              	.LCFI2:
 881              		.cfi_def_cfa_offset 24
 882              		.cfi_offset 3, -24
 883              		.cfi_offset 4, -20
 884              		.cfi_offset 5, -16
 885              		.cfi_offset 6, -12
 886              		.cfi_offset 7, -8
 887              		.cfi_offset 14, -4
 424:Drivers/STM32H7xx_HAL_Driver/Src/stm32h7xx_hal_flash_ex.c **** 
 888              		.loc 1 424 3 view .LVU308
 889 0002 8B4C     		ldr	r4, .L212
 890 0004 237D     		ldrb	r3, [r4, #20]	@ zero_extendqisi2
 891 0006 012B     		cmp	r3, #1
 892 0008 00F08580 		beq	.L143
 424:Drivers/STM32H7xx_HAL_Driver/Src/stm32h7xx_hal_flash_ex.c **** 
 893              		.loc 1 424 3 is_stmt 1 discriminator 2 view .LVU309
 894 000c 0121     		movs	r1, #1
 427:Drivers/STM32H7xx_HAL_Driver/Src/stm32h7xx_hal_flash_ex.c **** 
 895              		.loc 1 427 20 is_stmt 0 discriminator 2 view .LVU310
 896 000e 0023     		movs	r3, #0
 897 0010 0546     		mov	r5, r0
 430:Drivers/STM32H7xx_HAL_Driver/Src/stm32h7xx_hal_flash_ex.c ****   {
 898              		.loc 1 430 6 discriminator 2 view .LVU311
 899 0012 4CF25030 		movw	r0, #50000
 900              	.LVL65:
 424:Drivers/STM32H7xx_HAL_Driver/Src/stm32h7xx_hal_flash_ex.c **** 
 901              		.loc 1 424 3 discriminator 2 view .LVU312
 902 0016 2175     		strb	r1, [r4, #20]
 424:Drivers/STM32H7xx_HAL_Driver/Src/stm32h7xx_hal_flash_ex.c **** 
 903              		.loc 1 424 3 is_stmt 1 discriminator 2 view .LVU313
 427:Drivers/STM32H7xx_HAL_Driver/Src/stm32h7xx_hal_flash_ex.c **** 
 904              		.loc 1 427 3 discriminator 2 view .LVU314
 427:Drivers/STM32H7xx_HAL_Driver/Src/stm32h7xx_hal_flash_ex.c **** 
 905              		.loc 1 427 20 is_stmt 0 discriminator 2 view .LVU315
 906 0018 A361     		str	r3, [r4, #24]
 430:Drivers/STM32H7xx_HAL_Driver/Src/stm32h7xx_hal_flash_ex.c ****   {
 907              		.loc 1 430 3 is_stmt 1 discriminator 2 view .LVU316
 430:Drivers/STM32H7xx_HAL_Driver/Src/stm32h7xx_hal_flash_ex.c ****   {
 908              		.loc 1 430 6 is_stmt 0 discriminator 2 view .LVU317
 909 001a FFF7FEFF 		bl	FLASH_WaitForLastOperation
 910              	.LVL66:
 430:Drivers/STM32H7xx_HAL_Driver/Src/stm32h7xx_hal_flash_ex.c ****   {
 911              		.loc 1 430 5 discriminator 2 view .LVU318
 912 001e 18B1     		cbz	r0, .L111
 913              	.L113:
 432:Drivers/STM32H7xx_HAL_Driver/Src/stm32h7xx_hal_flash_ex.c ****   }
 914              		.loc 1 432 12 view .LVU319
 915 0020 0120     		movs	r0, #1
 916              	.LVL67:
 917              	.L112:
 545:Drivers/STM32H7xx_HAL_Driver/Src/stm32h7xx_hal_flash_ex.c **** 
 918              		.loc 1 545 3 is_stmt 1 view .LVU320
 545:Drivers/STM32H7xx_HAL_Driver/Src/stm32h7xx_hal_flash_ex.c **** 
ARM GAS  C:\Users\MadeuxS\AppData\Local\Temp\ccAPGHhR.s 			page 39


 919              		.loc 1 545 3 view .LVU321
 920 0022 0023     		movs	r3, #0
 921 0024 2375     		strb	r3, [r4, #20]
 545:Drivers/STM32H7xx_HAL_Driver/Src/stm32h7xx_hal_flash_ex.c **** 
 922              		.loc 1 545 3 view .LVU322
 547:Drivers/STM32H7xx_HAL_Driver/Src/stm32h7xx_hal_flash_ex.c **** }
 923              		.loc 1 547 3 view .LVU323
 548:Drivers/STM32H7xx_HAL_Driver/Src/stm32h7xx_hal_flash_ex.c **** 
 924              		.loc 1 548 1 is_stmt 0 view .LVU324
 925 0026 F8BD     		pop	{r3, r4, r5, r6, r7, pc}
 926              	.LVL68:
 927              	.L111:
 435:Drivers/STM32H7xx_HAL_Driver/Src/stm32h7xx_hal_flash_ex.c ****   {
 928              		.loc 1 435 8 is_stmt 1 view .LVU325
 435:Drivers/STM32H7xx_HAL_Driver/Src/stm32h7xx_hal_flash_ex.c ****   {
 929              		.loc 1 435 11 is_stmt 0 view .LVU326
 930 0028 0221     		movs	r1, #2
 931 002a 4CF25030 		movw	r0, #50000
 932 002e FFF7FEFF 		bl	FLASH_WaitForLastOperation
 933              	.LVL69:
 435:Drivers/STM32H7xx_HAL_Driver/Src/stm32h7xx_hal_flash_ex.c ****   {
 934              		.loc 1 435 10 view .LVU327
 935 0032 0028     		cmp	r0, #0
 936 0034 F4D1     		bne	.L113
 442:Drivers/STM32H7xx_HAL_Driver/Src/stm32h7xx_hal_flash_ex.c ****   }
 937              		.loc 1 442 5 is_stmt 1 view .LVU328
 938              	.LVL70:
 445:Drivers/STM32H7xx_HAL_Driver/Src/stm32h7xx_hal_flash_ex.c ****   {
 939              		.loc 1 445 3 view .LVU329
 448:Drivers/STM32H7xx_HAL_Driver/Src/stm32h7xx_hal_flash_ex.c ****     {
 940              		.loc 1 448 5 view .LVU330
 448:Drivers/STM32H7xx_HAL_Driver/Src/stm32h7xx_hal_flash_ex.c ****     {
 941              		.loc 1 448 16 is_stmt 0 view .LVU331
 942 0036 2B68     		ldr	r3, [r5]
 448:Drivers/STM32H7xx_HAL_Driver/Src/stm32h7xx_hal_flash_ex.c ****     {
 943              		.loc 1 448 7 view .LVU332
 944 0038 DF07     		lsls	r7, r3, #31
 945 003a 16D5     		bpl	.L115
 450:Drivers/STM32H7xx_HAL_Driver/Src/stm32h7xx_hal_flash_ex.c **** 
 946              		.loc 1 450 7 is_stmt 1 view .LVU333
 452:Drivers/STM32H7xx_HAL_Driver/Src/stm32h7xx_hal_flash_ex.c ****       {
 947              		.loc 1 452 7 view .LVU334
 452:Drivers/STM32H7xx_HAL_Driver/Src/stm32h7xx_hal_flash_ex.c ****       {
 948              		.loc 1 452 9 is_stmt 0 view .LVU335
 949 003c 6A68     		ldr	r2, [r5, #4]
 950 003e 012A     		cmp	r2, #1
 951 0040 6BD0     		beq	.L209
 460:Drivers/STM32H7xx_HAL_Driver/Src/stm32h7xx_hal_flash_ex.c ****       }
 952              		.loc 1 460 9 is_stmt 1 view .LVU336
 953 0042 E969     		ldr	r1, [r5, #28]
 954 0044 AA68     		ldr	r2, [r5, #8]
 955              	.LVL71:
 956              	.LBB80:
 957              	.LBI80:
 969:Drivers/STM32H7xx_HAL_Driver/Src/stm32h7xx_hal_flash_ex.c **** 
 970:Drivers/STM32H7xx_HAL_Driver/Src/stm32h7xx_hal_flash_ex.c **** /**
 971:Drivers/STM32H7xx_HAL_Driver/Src/stm32h7xx_hal_flash_ex.c ****   * @brief  Enable the write protection of the desired bank1 or bank 2 sectors
ARM GAS  C:\Users\MadeuxS\AppData\Local\Temp\ccAPGHhR.s 			page 40


 972:Drivers/STM32H7xx_HAL_Driver/Src/stm32h7xx_hal_flash_ex.c ****   * @param  WRPSector specifies the sector(s) to be write protected.
 973:Drivers/STM32H7xx_HAL_Driver/Src/stm32h7xx_hal_flash_ex.c ****   *          This parameter can be one of the following values:
 974:Drivers/STM32H7xx_HAL_Driver/Src/stm32h7xx_hal_flash_ex.c ****   *            @arg WRPSector:  A combination of OB_WRP_SECTOR_0 to OB_WRP_SECTOR_7 or OB_WRP_SECTO
 975:Drivers/STM32H7xx_HAL_Driver/Src/stm32h7xx_hal_flash_ex.c ****   *
 976:Drivers/STM32H7xx_HAL_Driver/Src/stm32h7xx_hal_flash_ex.c ****   * @param  Banks the specific bank to apply WRP sectors
 977:Drivers/STM32H7xx_HAL_Driver/Src/stm32h7xx_hal_flash_ex.c ****   *          This parameter can be one of the following values:
 978:Drivers/STM32H7xx_HAL_Driver/Src/stm32h7xx_hal_flash_ex.c ****   *            @arg FLASH_BANK_1: enable WRP on specified bank1 sectors
 979:Drivers/STM32H7xx_HAL_Driver/Src/stm32h7xx_hal_flash_ex.c ****   *            @arg FLASH_BANK_2: enable WRP on specified bank2 sectors
 980:Drivers/STM32H7xx_HAL_Driver/Src/stm32h7xx_hal_flash_ex.c ****   *            @arg FLASH_BANK_BOTH: enable WRP on both bank1 and bank2 specified sectors
 981:Drivers/STM32H7xx_HAL_Driver/Src/stm32h7xx_hal_flash_ex.c ****   *
 982:Drivers/STM32H7xx_HAL_Driver/Src/stm32h7xx_hal_flash_ex.c ****   * @retval HAL FLASH State
 983:Drivers/STM32H7xx_HAL_Driver/Src/stm32h7xx_hal_flash_ex.c ****   */
 984:Drivers/STM32H7xx_HAL_Driver/Src/stm32h7xx_hal_flash_ex.c **** static void FLASH_OB_EnableWRP(uint32_t WRPSector, uint32_t Banks)
 985:Drivers/STM32H7xx_HAL_Driver/Src/stm32h7xx_hal_flash_ex.c **** {
 986:Drivers/STM32H7xx_HAL_Driver/Src/stm32h7xx_hal_flash_ex.c ****   /* Check the parameters */
 987:Drivers/STM32H7xx_HAL_Driver/Src/stm32h7xx_hal_flash_ex.c ****   assert_param(IS_OB_WRP_SECTOR(WRPSector));
 988:Drivers/STM32H7xx_HAL_Driver/Src/stm32h7xx_hal_flash_ex.c ****   assert_param(IS_FLASH_BANK(Banks));
 989:Drivers/STM32H7xx_HAL_Driver/Src/stm32h7xx_hal_flash_ex.c **** 
 990:Drivers/STM32H7xx_HAL_Driver/Src/stm32h7xx_hal_flash_ex.c ****   if((Banks & FLASH_BANK_1) == FLASH_BANK_1)
 991:Drivers/STM32H7xx_HAL_Driver/Src/stm32h7xx_hal_flash_ex.c ****   {
 992:Drivers/STM32H7xx_HAL_Driver/Src/stm32h7xx_hal_flash_ex.c ****     /* Enable Write Protection for bank 1 */
 993:Drivers/STM32H7xx_HAL_Driver/Src/stm32h7xx_hal_flash_ex.c ****     FLASH->WPSN_PRG1 &= (~(WRPSector & FLASH_WPSN_WRPSN));
 994:Drivers/STM32H7xx_HAL_Driver/Src/stm32h7xx_hal_flash_ex.c ****   }
 995:Drivers/STM32H7xx_HAL_Driver/Src/stm32h7xx_hal_flash_ex.c **** 
 996:Drivers/STM32H7xx_HAL_Driver/Src/stm32h7xx_hal_flash_ex.c **** #if defined (DUAL_BANK)
 997:Drivers/STM32H7xx_HAL_Driver/Src/stm32h7xx_hal_flash_ex.c ****   if((Banks & FLASH_BANK_2) == FLASH_BANK_2)
 998:Drivers/STM32H7xx_HAL_Driver/Src/stm32h7xx_hal_flash_ex.c ****   {
 999:Drivers/STM32H7xx_HAL_Driver/Src/stm32h7xx_hal_flash_ex.c ****     /* Enable Write Protection for bank 2 */
1000:Drivers/STM32H7xx_HAL_Driver/Src/stm32h7xx_hal_flash_ex.c ****     FLASH->WPSN_PRG2 &= (~(WRPSector & FLASH_WPSN_WRPSN));
1001:Drivers/STM32H7xx_HAL_Driver/Src/stm32h7xx_hal_flash_ex.c ****   }
1002:Drivers/STM32H7xx_HAL_Driver/Src/stm32h7xx_hal_flash_ex.c **** #endif /* DUAL_BANK */
1003:Drivers/STM32H7xx_HAL_Driver/Src/stm32h7xx_hal_flash_ex.c **** }
1004:Drivers/STM32H7xx_HAL_Driver/Src/stm32h7xx_hal_flash_ex.c **** 
1005:Drivers/STM32H7xx_HAL_Driver/Src/stm32h7xx_hal_flash_ex.c **** /**
1006:Drivers/STM32H7xx_HAL_Driver/Src/stm32h7xx_hal_flash_ex.c ****   * @brief  Disable the write protection of the desired bank1 or bank 2 sectors
1007:Drivers/STM32H7xx_HAL_Driver/Src/stm32h7xx_hal_flash_ex.c ****   * @param  WRPSector specifies the sector(s) to disable write protection.
1008:Drivers/STM32H7xx_HAL_Driver/Src/stm32h7xx_hal_flash_ex.c ****   *          This parameter can be one of the following values:
1009:Drivers/STM32H7xx_HAL_Driver/Src/stm32h7xx_hal_flash_ex.c ****   *            @arg WRPSector:  A combination of FLASH_OB_WRP_SECTOR_0 to FLASH_OB_WRP_SECTOR_7 or 
1010:Drivers/STM32H7xx_HAL_Driver/Src/stm32h7xx_hal_flash_ex.c ****   *
1011:Drivers/STM32H7xx_HAL_Driver/Src/stm32h7xx_hal_flash_ex.c ****   * @param  Banks the specific bank to apply WRP sectors
1012:Drivers/STM32H7xx_HAL_Driver/Src/stm32h7xx_hal_flash_ex.c ****   *          This parameter can be one of the following values:
1013:Drivers/STM32H7xx_HAL_Driver/Src/stm32h7xx_hal_flash_ex.c ****   *            @arg FLASH_BANK_1: disable WRP on specified bank1 sectors
1014:Drivers/STM32H7xx_HAL_Driver/Src/stm32h7xx_hal_flash_ex.c ****   *            @arg FLASH_BANK_2: disable WRP on specified bank2 sectors
1015:Drivers/STM32H7xx_HAL_Driver/Src/stm32h7xx_hal_flash_ex.c ****   *            @arg FLASH_BANK_BOTH: disable WRP on both bank1 and bank2 specified sectors
1016:Drivers/STM32H7xx_HAL_Driver/Src/stm32h7xx_hal_flash_ex.c ****   *
1017:Drivers/STM32H7xx_HAL_Driver/Src/stm32h7xx_hal_flash_ex.c ****   * @retval HAL FLASH State
1018:Drivers/STM32H7xx_HAL_Driver/Src/stm32h7xx_hal_flash_ex.c ****   */
1019:Drivers/STM32H7xx_HAL_Driver/Src/stm32h7xx_hal_flash_ex.c **** static void FLASH_OB_DisableWRP(uint32_t WRPSector, uint32_t Banks)
 958              		.loc 1 1019 13 view .LVU337
 959              	.LBB81:
1020:Drivers/STM32H7xx_HAL_Driver/Src/stm32h7xx_hal_flash_ex.c **** {
1021:Drivers/STM32H7xx_HAL_Driver/Src/stm32h7xx_hal_flash_ex.c ****   /* Check the parameters */
1022:Drivers/STM32H7xx_HAL_Driver/Src/stm32h7xx_hal_flash_ex.c ****   assert_param(IS_OB_WRP_SECTOR(WRPSector));
 960              		.loc 1 1022 3 view .LVU338
1023:Drivers/STM32H7xx_HAL_Driver/Src/stm32h7xx_hal_flash_ex.c ****   assert_param(IS_FLASH_BANK(Banks));
 961              		.loc 1 1023 3 view .LVU339
1024:Drivers/STM32H7xx_HAL_Driver/Src/stm32h7xx_hal_flash_ex.c **** 
ARM GAS  C:\Users\MadeuxS\AppData\Local\Temp\ccAPGHhR.s 			page 41


1025:Drivers/STM32H7xx_HAL_Driver/Src/stm32h7xx_hal_flash_ex.c ****   if((Banks & FLASH_BANK_1) == FLASH_BANK_1)
 962              		.loc 1 1025 3 view .LVU340
 963              		.loc 1 1025 5 is_stmt 0 view .LVU341
 964 0046 CF07     		lsls	r7, r1, #31
 965 0048 06D5     		bpl	.L119
1026:Drivers/STM32H7xx_HAL_Driver/Src/stm32h7xx_hal_flash_ex.c ****   {
1027:Drivers/STM32H7xx_HAL_Driver/Src/stm32h7xx_hal_flash_ex.c ****     /* Disable Write Protection for bank 1 */
1028:Drivers/STM32H7xx_HAL_Driver/Src/stm32h7xx_hal_flash_ex.c ****     FLASH->WPSN_PRG1 |= (WRPSector & FLASH_WPSN_WRPSN);
 966              		.loc 1 1028 5 is_stmt 1 view .LVU342
 967              		.loc 1 1028 22 is_stmt 0 view .LVU343
 968 004a 7A4F     		ldr	r7, .L212+4
 969              		.loc 1 1028 36 view .LVU344
 970 004c D6B2     		uxtb	r6, r2
 971              		.loc 1 1028 22 view .LVU345
 972 004e D7F83CC0 		ldr	ip, [r7, #60]
 973 0052 46EA0C06 		orr	r6, r6, ip
 974 0056 FE63     		str	r6, [r7, #60]
 975              	.L119:
1029:Drivers/STM32H7xx_HAL_Driver/Src/stm32h7xx_hal_flash_ex.c ****   }
1030:Drivers/STM32H7xx_HAL_Driver/Src/stm32h7xx_hal_flash_ex.c **** 
1031:Drivers/STM32H7xx_HAL_Driver/Src/stm32h7xx_hal_flash_ex.c **** #if defined (DUAL_BANK)
1032:Drivers/STM32H7xx_HAL_Driver/Src/stm32h7xx_hal_flash_ex.c ****   if((Banks & FLASH_BANK_2) == FLASH_BANK_2)
 976              		.loc 1 1032 3 is_stmt 1 view .LVU346
 977              		.loc 1 1032 5 is_stmt 0 view .LVU347
 978 0058 8E07     		lsls	r6, r1, #30
 979 005a 06D5     		bpl	.L115
1033:Drivers/STM32H7xx_HAL_Driver/Src/stm32h7xx_hal_flash_ex.c ****   {
1034:Drivers/STM32H7xx_HAL_Driver/Src/stm32h7xx_hal_flash_ex.c ****     /* Disable Write Protection for bank 2 */
1035:Drivers/STM32H7xx_HAL_Driver/Src/stm32h7xx_hal_flash_ex.c ****     FLASH->WPSN_PRG2 |= (WRPSector & FLASH_WPSN_WRPSN);
 980              		.loc 1 1035 5 is_stmt 1 view .LVU348
 981              		.loc 1 1035 22 is_stmt 0 view .LVU349
 982 005c 7549     		ldr	r1, .L212+4
 983              	.LVL72:
 984              		.loc 1 1035 36 view .LVU350
 985 005e D2B2     		uxtb	r2, r2
 986              	.LVL73:
 987              		.loc 1 1035 22 view .LVU351
 988 0060 D1F83C61 		ldr	r6, [r1, #316]
 989 0064 3243     		orrs	r2, r2, r6
 990 0066 C1F83C21 		str	r2, [r1, #316]
 991              	.L115:
 992              		.loc 1 1035 22 view .LVU352
 993              	.LBE81:
 994              	.LBE80:
 465:Drivers/STM32H7xx_HAL_Driver/Src/stm32h7xx_hal_flash_ex.c ****     {
 995              		.loc 1 465 5 is_stmt 1 view .LVU353
 465:Drivers/STM32H7xx_HAL_Driver/Src/stm32h7xx_hal_flash_ex.c ****     {
 996              		.loc 1 465 7 is_stmt 0 view .LVU354
 997 006a 9907     		lsls	r1, r3, #30
 998 006c 06D5     		bpl	.L120
 468:Drivers/STM32H7xx_HAL_Driver/Src/stm32h7xx_hal_flash_ex.c ****     }
 999              		.loc 1 468 7 is_stmt 1 view .LVU355
 1000              	.LVL74:
 1001              	.LBB82:
 1002              	.LBI82:
1036:Drivers/STM32H7xx_HAL_Driver/Src/stm32h7xx_hal_flash_ex.c ****   }
1037:Drivers/STM32H7xx_HAL_Driver/Src/stm32h7xx_hal_flash_ex.c **** #endif /* DUAL_BANK */
ARM GAS  C:\Users\MadeuxS\AppData\Local\Temp\ccAPGHhR.s 			page 42


1038:Drivers/STM32H7xx_HAL_Driver/Src/stm32h7xx_hal_flash_ex.c **** }
1039:Drivers/STM32H7xx_HAL_Driver/Src/stm32h7xx_hal_flash_ex.c **** 
1040:Drivers/STM32H7xx_HAL_Driver/Src/stm32h7xx_hal_flash_ex.c **** /**
1041:Drivers/STM32H7xx_HAL_Driver/Src/stm32h7xx_hal_flash_ex.c ****   * @brief  Get the write protection of the given bank 1 or bank 2 sectors
1042:Drivers/STM32H7xx_HAL_Driver/Src/stm32h7xx_hal_flash_ex.c ****   * @param  WRPState gives the write protection state on the given bank.
1043:Drivers/STM32H7xx_HAL_Driver/Src/stm32h7xx_hal_flash_ex.c ****   *          This parameter can be one of the following values:
1044:Drivers/STM32H7xx_HAL_Driver/Src/stm32h7xx_hal_flash_ex.c ****   *          @arg WRPState: OB_WRPSTATE_DISABLE or OB_WRPSTATE_ENABLE
1045:Drivers/STM32H7xx_HAL_Driver/Src/stm32h7xx_hal_flash_ex.c **** 
1046:Drivers/STM32H7xx_HAL_Driver/Src/stm32h7xx_hal_flash_ex.c ****   * @param  WRPSector gives the write protected sector(s) on the given bank .
1047:Drivers/STM32H7xx_HAL_Driver/Src/stm32h7xx_hal_flash_ex.c ****   *          This parameter can be one of the following values:
1048:Drivers/STM32H7xx_HAL_Driver/Src/stm32h7xx_hal_flash_ex.c ****   *          @arg WRPSector: A combination of FLASH_OB_WRP_SECTOR_0 to FLASH_OB_WRP_SECTOR_7 or FLA
1049:Drivers/STM32H7xx_HAL_Driver/Src/stm32h7xx_hal_flash_ex.c ****   *
1050:Drivers/STM32H7xx_HAL_Driver/Src/stm32h7xx_hal_flash_ex.c ****   * @param  Bank the specific bank to apply WRP sectors
1051:Drivers/STM32H7xx_HAL_Driver/Src/stm32h7xx_hal_flash_ex.c ****   *          This parameter can be exclusively one of the following values:
1052:Drivers/STM32H7xx_HAL_Driver/Src/stm32h7xx_hal_flash_ex.c ****   *            @arg FLASH_BANK_1: Get bank1 WRP sectors
1053:Drivers/STM32H7xx_HAL_Driver/Src/stm32h7xx_hal_flash_ex.c ****   *            @arg FLASH_BANK_2: Get bank2 WRP sectors
1054:Drivers/STM32H7xx_HAL_Driver/Src/stm32h7xx_hal_flash_ex.c ****   *            @arg FLASH_BANK_BOTH: note allowed in this functions
1055:Drivers/STM32H7xx_HAL_Driver/Src/stm32h7xx_hal_flash_ex.c ****   *
1056:Drivers/STM32H7xx_HAL_Driver/Src/stm32h7xx_hal_flash_ex.c ****   * @retval HAL FLASH State
1057:Drivers/STM32H7xx_HAL_Driver/Src/stm32h7xx_hal_flash_ex.c ****   */
1058:Drivers/STM32H7xx_HAL_Driver/Src/stm32h7xx_hal_flash_ex.c **** static void FLASH_OB_GetWRP(uint32_t *WRPState, uint32_t *WRPSector, uint32_t Bank)
1059:Drivers/STM32H7xx_HAL_Driver/Src/stm32h7xx_hal_flash_ex.c **** {
1060:Drivers/STM32H7xx_HAL_Driver/Src/stm32h7xx_hal_flash_ex.c ****   uint32_t regvalue = 0U;
1061:Drivers/STM32H7xx_HAL_Driver/Src/stm32h7xx_hal_flash_ex.c **** 
1062:Drivers/STM32H7xx_HAL_Driver/Src/stm32h7xx_hal_flash_ex.c ****   if(Bank == FLASH_BANK_1)
1063:Drivers/STM32H7xx_HAL_Driver/Src/stm32h7xx_hal_flash_ex.c ****   {
1064:Drivers/STM32H7xx_HAL_Driver/Src/stm32h7xx_hal_flash_ex.c ****     regvalue = FLASH->WPSN_CUR1;
1065:Drivers/STM32H7xx_HAL_Driver/Src/stm32h7xx_hal_flash_ex.c ****   }
1066:Drivers/STM32H7xx_HAL_Driver/Src/stm32h7xx_hal_flash_ex.c **** 
1067:Drivers/STM32H7xx_HAL_Driver/Src/stm32h7xx_hal_flash_ex.c **** #if defined (DUAL_BANK)
1068:Drivers/STM32H7xx_HAL_Driver/Src/stm32h7xx_hal_flash_ex.c ****   if(Bank == FLASH_BANK_2)
1069:Drivers/STM32H7xx_HAL_Driver/Src/stm32h7xx_hal_flash_ex.c ****   {
1070:Drivers/STM32H7xx_HAL_Driver/Src/stm32h7xx_hal_flash_ex.c ****     regvalue = FLASH->WPSN_CUR2;
1071:Drivers/STM32H7xx_HAL_Driver/Src/stm32h7xx_hal_flash_ex.c ****   }
1072:Drivers/STM32H7xx_HAL_Driver/Src/stm32h7xx_hal_flash_ex.c **** #endif /* DUAL_BANK */
1073:Drivers/STM32H7xx_HAL_Driver/Src/stm32h7xx_hal_flash_ex.c **** 
1074:Drivers/STM32H7xx_HAL_Driver/Src/stm32h7xx_hal_flash_ex.c ****   (*WRPSector) = (~regvalue) & FLASH_WPSN_WRPSN;
1075:Drivers/STM32H7xx_HAL_Driver/Src/stm32h7xx_hal_flash_ex.c **** 
1076:Drivers/STM32H7xx_HAL_Driver/Src/stm32h7xx_hal_flash_ex.c ****   if(*WRPSector == 0U)
1077:Drivers/STM32H7xx_HAL_Driver/Src/stm32h7xx_hal_flash_ex.c ****   {
1078:Drivers/STM32H7xx_HAL_Driver/Src/stm32h7xx_hal_flash_ex.c ****     (*WRPState) = OB_WRPSTATE_DISABLE;
1079:Drivers/STM32H7xx_HAL_Driver/Src/stm32h7xx_hal_flash_ex.c ****   }
1080:Drivers/STM32H7xx_HAL_Driver/Src/stm32h7xx_hal_flash_ex.c ****   else
1081:Drivers/STM32H7xx_HAL_Driver/Src/stm32h7xx_hal_flash_ex.c ****   {
1082:Drivers/STM32H7xx_HAL_Driver/Src/stm32h7xx_hal_flash_ex.c ****     (*WRPState) = OB_WRPSTATE_ENABLE;
1083:Drivers/STM32H7xx_HAL_Driver/Src/stm32h7xx_hal_flash_ex.c ****   }
1084:Drivers/STM32H7xx_HAL_Driver/Src/stm32h7xx_hal_flash_ex.c **** }
1085:Drivers/STM32H7xx_HAL_Driver/Src/stm32h7xx_hal_flash_ex.c **** 
1086:Drivers/STM32H7xx_HAL_Driver/Src/stm32h7xx_hal_flash_ex.c **** /**
1087:Drivers/STM32H7xx_HAL_Driver/Src/stm32h7xx_hal_flash_ex.c ****   * @brief  Set the read protection level.
1088:Drivers/STM32H7xx_HAL_Driver/Src/stm32h7xx_hal_flash_ex.c ****   *
1089:Drivers/STM32H7xx_HAL_Driver/Src/stm32h7xx_hal_flash_ex.c ****   * @note   To configure the RDP level, the option lock bit OPTLOCK must be
1090:Drivers/STM32H7xx_HAL_Driver/Src/stm32h7xx_hal_flash_ex.c ****   *         cleared with the call of the HAL_FLASH_OB_Unlock() function.
1091:Drivers/STM32H7xx_HAL_Driver/Src/stm32h7xx_hal_flash_ex.c ****   * @note   To validate the RDP level, the option bytes must be reloaded
1092:Drivers/STM32H7xx_HAL_Driver/Src/stm32h7xx_hal_flash_ex.c ****   *         through the call of the HAL_FLASH_OB_Launch() function.
1093:Drivers/STM32H7xx_HAL_Driver/Src/stm32h7xx_hal_flash_ex.c ****   * @note   !!! Warning : When enabling OB_RDP level 2 it's no more possible
1094:Drivers/STM32H7xx_HAL_Driver/Src/stm32h7xx_hal_flash_ex.c ****   *         to go back to level 1 or 0 !!!
ARM GAS  C:\Users\MadeuxS\AppData\Local\Temp\ccAPGHhR.s 			page 43


1095:Drivers/STM32H7xx_HAL_Driver/Src/stm32h7xx_hal_flash_ex.c ****   *
1096:Drivers/STM32H7xx_HAL_Driver/Src/stm32h7xx_hal_flash_ex.c ****   * @param  RDPLevel specifies the read protection level.
1097:Drivers/STM32H7xx_HAL_Driver/Src/stm32h7xx_hal_flash_ex.c ****   *         This parameter can be one of the following values:
1098:Drivers/STM32H7xx_HAL_Driver/Src/stm32h7xx_hal_flash_ex.c ****   *            @arg OB_RDP_LEVEL_0: No protection
1099:Drivers/STM32H7xx_HAL_Driver/Src/stm32h7xx_hal_flash_ex.c ****   *            @arg OB_RDP_LEVEL_1: Read protection of the memory
1100:Drivers/STM32H7xx_HAL_Driver/Src/stm32h7xx_hal_flash_ex.c ****   *            @arg OB_RDP_LEVEL_2: Full chip protection
1101:Drivers/STM32H7xx_HAL_Driver/Src/stm32h7xx_hal_flash_ex.c ****   *
1102:Drivers/STM32H7xx_HAL_Driver/Src/stm32h7xx_hal_flash_ex.c ****   * @retval HAL status
1103:Drivers/STM32H7xx_HAL_Driver/Src/stm32h7xx_hal_flash_ex.c ****   */
1104:Drivers/STM32H7xx_HAL_Driver/Src/stm32h7xx_hal_flash_ex.c **** static void FLASH_OB_RDPConfig(uint32_t RDPLevel)
 1003              		.loc 1 1104 13 view .LVU356
 1004              	.LBB83:
1105:Drivers/STM32H7xx_HAL_Driver/Src/stm32h7xx_hal_flash_ex.c **** {
1106:Drivers/STM32H7xx_HAL_Driver/Src/stm32h7xx_hal_flash_ex.c ****   /* Check the parameters */
1107:Drivers/STM32H7xx_HAL_Driver/Src/stm32h7xx_hal_flash_ex.c ****   assert_param(IS_OB_RDP_LEVEL(RDPLevel));
 1005              		.loc 1 1107 3 view .LVU357
1108:Drivers/STM32H7xx_HAL_Driver/Src/stm32h7xx_hal_flash_ex.c **** 
1109:Drivers/STM32H7xx_HAL_Driver/Src/stm32h7xx_hal_flash_ex.c ****   /* Configure the RDP level in the option bytes register */
1110:Drivers/STM32H7xx_HAL_Driver/Src/stm32h7xx_hal_flash_ex.c ****   MODIFY_REG(FLASH->OPTSR_PRG, FLASH_OPTSR_RDP, RDPLevel);
 1006              		.loc 1 1110 3 view .LVU358
 1007 006e 7149     		ldr	r1, .L212+4
 1008 0070 EE68     		ldr	r6, [r5, #12]
 1009 0072 0A6A     		ldr	r2, [r1, #32]
 1010 0074 22F47F42 		bic	r2, r2, #65280
 1011 0078 3243     		orrs	r2, r2, r6
 1012 007a 0A62     		str	r2, [r1, #32]
 1013              	.LVL75:
 1014              	.L120:
 1015              		.loc 1 1110 3 is_stmt 0 view .LVU359
 1016              	.LBE83:
 1017              	.LBE82:
 472:Drivers/STM32H7xx_HAL_Driver/Src/stm32h7xx_hal_flash_ex.c ****     {
 1018              		.loc 1 472 5 is_stmt 1 view .LVU360
 472:Drivers/STM32H7xx_HAL_Driver/Src/stm32h7xx_hal_flash_ex.c ****     {
 1019              		.loc 1 472 7 is_stmt 0 view .LVU361
 1020 007c 5A07     		lsls	r2, r3, #29
 1021 007e 00F18A80 		bmi	.L210
 1022              	.L121:
 479:Drivers/STM32H7xx_HAL_Driver/Src/stm32h7xx_hal_flash_ex.c ****     {
 1023              		.loc 1 479 5 is_stmt 1 view .LVU362
 479:Drivers/STM32H7xx_HAL_Driver/Src/stm32h7xx_hal_flash_ex.c ****     {
 1024              		.loc 1 479 7 is_stmt 0 view .LVU363
 1025 0082 1A07     		lsls	r2, r3, #28
 1026 0084 61D4     		bmi	.L211
 1027              	.L132:
 488:Drivers/STM32H7xx_HAL_Driver/Src/stm32h7xx_hal_flash_ex.c ****     {
 1028              		.loc 1 488 5 is_stmt 1 view .LVU364
 488:Drivers/STM32H7xx_HAL_Driver/Src/stm32h7xx_hal_flash_ex.c ****     {
 1029              		.loc 1 488 7 is_stmt 0 view .LVU365
 1030 0086 DA06     		lsls	r2, r3, #27
 1031 0088 06D5     		bpl	.L135
 490:Drivers/STM32H7xx_HAL_Driver/Src/stm32h7xx_hal_flash_ex.c ****     }
 1032              		.loc 1 490 7 is_stmt 1 view .LVU366
 1033              	.LVL76:
 1034              	.LBB84:
 1035              	.LBI84:
1111:Drivers/STM32H7xx_HAL_Driver/Src/stm32h7xx_hal_flash_ex.c **** }
ARM GAS  C:\Users\MadeuxS\AppData\Local\Temp\ccAPGHhR.s 			page 44


1112:Drivers/STM32H7xx_HAL_Driver/Src/stm32h7xx_hal_flash_ex.c **** 
1113:Drivers/STM32H7xx_HAL_Driver/Src/stm32h7xx_hal_flash_ex.c **** /**
1114:Drivers/STM32H7xx_HAL_Driver/Src/stm32h7xx_hal_flash_ex.c ****   * @brief  Get the read protection level.
1115:Drivers/STM32H7xx_HAL_Driver/Src/stm32h7xx_hal_flash_ex.c ****   * @retval RDPLevel specifies the read protection level.
1116:Drivers/STM32H7xx_HAL_Driver/Src/stm32h7xx_hal_flash_ex.c ****   *         This return value can be one of the following values:
1117:Drivers/STM32H7xx_HAL_Driver/Src/stm32h7xx_hal_flash_ex.c ****   *            @arg OB_RDP_LEVEL_0: No protection
1118:Drivers/STM32H7xx_HAL_Driver/Src/stm32h7xx_hal_flash_ex.c ****   *            @arg OB_RDP_LEVEL_1: Read protection of the memory
1119:Drivers/STM32H7xx_HAL_Driver/Src/stm32h7xx_hal_flash_ex.c ****   *            @arg OB_RDP_LEVEL_2: Full chip protection
1120:Drivers/STM32H7xx_HAL_Driver/Src/stm32h7xx_hal_flash_ex.c ****   */
1121:Drivers/STM32H7xx_HAL_Driver/Src/stm32h7xx_hal_flash_ex.c **** static uint32_t FLASH_OB_GetRDP(void)
1122:Drivers/STM32H7xx_HAL_Driver/Src/stm32h7xx_hal_flash_ex.c **** {
1123:Drivers/STM32H7xx_HAL_Driver/Src/stm32h7xx_hal_flash_ex.c ****   uint32_t rdp_level = READ_BIT(FLASH->OPTSR_CUR, FLASH_OPTSR_RDP);
1124:Drivers/STM32H7xx_HAL_Driver/Src/stm32h7xx_hal_flash_ex.c ****   
1125:Drivers/STM32H7xx_HAL_Driver/Src/stm32h7xx_hal_flash_ex.c ****   if ((rdp_level != OB_RDP_LEVEL_0) && (rdp_level != OB_RDP_LEVEL_2))
1126:Drivers/STM32H7xx_HAL_Driver/Src/stm32h7xx_hal_flash_ex.c ****   {
1127:Drivers/STM32H7xx_HAL_Driver/Src/stm32h7xx_hal_flash_ex.c ****     return (OB_RDP_LEVEL_1);
1128:Drivers/STM32H7xx_HAL_Driver/Src/stm32h7xx_hal_flash_ex.c ****   }
1129:Drivers/STM32H7xx_HAL_Driver/Src/stm32h7xx_hal_flash_ex.c ****   else
1130:Drivers/STM32H7xx_HAL_Driver/Src/stm32h7xx_hal_flash_ex.c ****   {
1131:Drivers/STM32H7xx_HAL_Driver/Src/stm32h7xx_hal_flash_ex.c ****     return rdp_level;
1132:Drivers/STM32H7xx_HAL_Driver/Src/stm32h7xx_hal_flash_ex.c ****   }
1133:Drivers/STM32H7xx_HAL_Driver/Src/stm32h7xx_hal_flash_ex.c **** }
1134:Drivers/STM32H7xx_HAL_Driver/Src/stm32h7xx_hal_flash_ex.c **** 
1135:Drivers/STM32H7xx_HAL_Driver/Src/stm32h7xx_hal_flash_ex.c **** #if defined(DUAL_CORE)
1136:Drivers/STM32H7xx_HAL_Driver/Src/stm32h7xx_hal_flash_ex.c **** /**
1137:Drivers/STM32H7xx_HAL_Driver/Src/stm32h7xx_hal_flash_ex.c ****   * @brief  Program the FLASH User Option Byte.
1138:Drivers/STM32H7xx_HAL_Driver/Src/stm32h7xx_hal_flash_ex.c ****   *
1139:Drivers/STM32H7xx_HAL_Driver/Src/stm32h7xx_hal_flash_ex.c ****   * @note   To configure the user option bytes, the option lock bit OPTLOCK must
1140:Drivers/STM32H7xx_HAL_Driver/Src/stm32h7xx_hal_flash_ex.c ****   *         be cleared with the call of the HAL_FLASH_OB_Unlock() function.
1141:Drivers/STM32H7xx_HAL_Driver/Src/stm32h7xx_hal_flash_ex.c ****   *
1142:Drivers/STM32H7xx_HAL_Driver/Src/stm32h7xx_hal_flash_ex.c ****   * @note   To validate the user option bytes, the option bytes must be reloaded
1143:Drivers/STM32H7xx_HAL_Driver/Src/stm32h7xx_hal_flash_ex.c ****   *         through the call of the HAL_FLASH_OB_Launch() function.
1144:Drivers/STM32H7xx_HAL_Driver/Src/stm32h7xx_hal_flash_ex.c ****   *
1145:Drivers/STM32H7xx_HAL_Driver/Src/stm32h7xx_hal_flash_ex.c ****   * @param  UserType The FLASH User Option Bytes to be modified :
1146:Drivers/STM32H7xx_HAL_Driver/Src/stm32h7xx_hal_flash_ex.c ****   *                   a combination of @ref FLASHEx_OB_USER_Type
1147:Drivers/STM32H7xx_HAL_Driver/Src/stm32h7xx_hal_flash_ex.c ****   *
1148:Drivers/STM32H7xx_HAL_Driver/Src/stm32h7xx_hal_flash_ex.c ****   * @param  UserConfig The FLASH User Option Bytes values:
1149:Drivers/STM32H7xx_HAL_Driver/Src/stm32h7xx_hal_flash_ex.c ****   *         IWDG1_SW(Bit4), IWDG2_SW(Bit 5), nRST_STOP_D1(Bit 6), nRST_STDY_D1(Bit 7),
1150:Drivers/STM32H7xx_HAL_Driver/Src/stm32h7xx_hal_flash_ex.c ****   *         FZ_IWDG_STOP(Bit 17), FZ_IWDG_SDBY(Bit 18), ST_RAM_SIZE(Bit[19:20]),
1151:Drivers/STM32H7xx_HAL_Driver/Src/stm32h7xx_hal_flash_ex.c ****   *         SECURITY(Bit 21), BCM4(Bit 22), BCM7(Bit 23), nRST_STOP_D2(Bit 24),
1152:Drivers/STM32H7xx_HAL_Driver/Src/stm32h7xx_hal_flash_ex.c ****   *         nRST_STDY_D2(Bit 25), IO_HSLV (Bit 29) and SWAP_BANK_OPT(Bit 31).
1153:Drivers/STM32H7xx_HAL_Driver/Src/stm32h7xx_hal_flash_ex.c ****   *
1154:Drivers/STM32H7xx_HAL_Driver/Src/stm32h7xx_hal_flash_ex.c ****   * @retval HAL status
1155:Drivers/STM32H7xx_HAL_Driver/Src/stm32h7xx_hal_flash_ex.c ****   */
1156:Drivers/STM32H7xx_HAL_Driver/Src/stm32h7xx_hal_flash_ex.c **** #else
1157:Drivers/STM32H7xx_HAL_Driver/Src/stm32h7xx_hal_flash_ex.c **** /**
1158:Drivers/STM32H7xx_HAL_Driver/Src/stm32h7xx_hal_flash_ex.c ****   * @brief  Program the FLASH User Option Byte.
1159:Drivers/STM32H7xx_HAL_Driver/Src/stm32h7xx_hal_flash_ex.c ****   *
1160:Drivers/STM32H7xx_HAL_Driver/Src/stm32h7xx_hal_flash_ex.c ****   * @note   To configure the user option bytes, the option lock bit OPTLOCK must
1161:Drivers/STM32H7xx_HAL_Driver/Src/stm32h7xx_hal_flash_ex.c ****   *         be cleared with the call of the HAL_FLASH_OB_Unlock() function.
1162:Drivers/STM32H7xx_HAL_Driver/Src/stm32h7xx_hal_flash_ex.c ****   *
1163:Drivers/STM32H7xx_HAL_Driver/Src/stm32h7xx_hal_flash_ex.c ****   * @note   To validate the user option bytes, the option bytes must be reloaded
1164:Drivers/STM32H7xx_HAL_Driver/Src/stm32h7xx_hal_flash_ex.c ****   *         through the call of the HAL_FLASH_OB_Launch() function.
1165:Drivers/STM32H7xx_HAL_Driver/Src/stm32h7xx_hal_flash_ex.c ****   *
1166:Drivers/STM32H7xx_HAL_Driver/Src/stm32h7xx_hal_flash_ex.c ****   * @param  UserType The FLASH User Option Bytes to be modified :
1167:Drivers/STM32H7xx_HAL_Driver/Src/stm32h7xx_hal_flash_ex.c ****   *                   a combination of @arg FLASHEx_OB_USER_Type
1168:Drivers/STM32H7xx_HAL_Driver/Src/stm32h7xx_hal_flash_ex.c ****   *
ARM GAS  C:\Users\MadeuxS\AppData\Local\Temp\ccAPGHhR.s 			page 45


1169:Drivers/STM32H7xx_HAL_Driver/Src/stm32h7xx_hal_flash_ex.c ****   * @param  UserConfig The FLASH User Option Bytes values:
1170:Drivers/STM32H7xx_HAL_Driver/Src/stm32h7xx_hal_flash_ex.c ****   *         IWDG_SW(Bit4), nRST_STOP_D1(Bit 6), nRST_STDY_D1(Bit 7),
1171:Drivers/STM32H7xx_HAL_Driver/Src/stm32h7xx_hal_flash_ex.c ****   *         FZ_IWDG_STOP(Bit 17), FZ_IWDG_SDBY(Bit 18), ST_RAM_SIZE(Bit[19:20]),
1172:Drivers/STM32H7xx_HAL_Driver/Src/stm32h7xx_hal_flash_ex.c ****   *         SECURITY(Bit 21), IO_HSLV (Bit 29) and SWAP_BANK_OPT(Bit 31).
1173:Drivers/STM32H7xx_HAL_Driver/Src/stm32h7xx_hal_flash_ex.c ****   *
1174:Drivers/STM32H7xx_HAL_Driver/Src/stm32h7xx_hal_flash_ex.c ****   * @retval HAL status
1175:Drivers/STM32H7xx_HAL_Driver/Src/stm32h7xx_hal_flash_ex.c ****   */
1176:Drivers/STM32H7xx_HAL_Driver/Src/stm32h7xx_hal_flash_ex.c **** #endif /*DUAL_CORE*/
1177:Drivers/STM32H7xx_HAL_Driver/Src/stm32h7xx_hal_flash_ex.c **** static void FLASH_OB_UserConfig(uint32_t UserType, uint32_t UserConfig)
1178:Drivers/STM32H7xx_HAL_Driver/Src/stm32h7xx_hal_flash_ex.c **** {
1179:Drivers/STM32H7xx_HAL_Driver/Src/stm32h7xx_hal_flash_ex.c ****   uint32_t optr_reg_val = 0;
1180:Drivers/STM32H7xx_HAL_Driver/Src/stm32h7xx_hal_flash_ex.c ****   uint32_t optr_reg_mask = 0;
1181:Drivers/STM32H7xx_HAL_Driver/Src/stm32h7xx_hal_flash_ex.c **** 
1182:Drivers/STM32H7xx_HAL_Driver/Src/stm32h7xx_hal_flash_ex.c ****   /* Check the parameters */
1183:Drivers/STM32H7xx_HAL_Driver/Src/stm32h7xx_hal_flash_ex.c ****   assert_param(IS_OB_USER_TYPE(UserType));
1184:Drivers/STM32H7xx_HAL_Driver/Src/stm32h7xx_hal_flash_ex.c **** 
1185:Drivers/STM32H7xx_HAL_Driver/Src/stm32h7xx_hal_flash_ex.c ****   if((UserType & OB_USER_IWDG1_SW) != 0U)
1186:Drivers/STM32H7xx_HAL_Driver/Src/stm32h7xx_hal_flash_ex.c ****   {
1187:Drivers/STM32H7xx_HAL_Driver/Src/stm32h7xx_hal_flash_ex.c ****     /* IWDG_HW option byte should be modified */
1188:Drivers/STM32H7xx_HAL_Driver/Src/stm32h7xx_hal_flash_ex.c ****     assert_param(IS_OB_IWDG1_SOURCE(UserConfig & FLASH_OPTSR_IWDG1_SW));
1189:Drivers/STM32H7xx_HAL_Driver/Src/stm32h7xx_hal_flash_ex.c **** 
1190:Drivers/STM32H7xx_HAL_Driver/Src/stm32h7xx_hal_flash_ex.c ****     /* Set value and mask for IWDG_HW option byte */
1191:Drivers/STM32H7xx_HAL_Driver/Src/stm32h7xx_hal_flash_ex.c ****     optr_reg_val |= (UserConfig & FLASH_OPTSR_IWDG1_SW);
1192:Drivers/STM32H7xx_HAL_Driver/Src/stm32h7xx_hal_flash_ex.c ****     optr_reg_mask |= FLASH_OPTSR_IWDG1_SW;
1193:Drivers/STM32H7xx_HAL_Driver/Src/stm32h7xx_hal_flash_ex.c ****   }
1194:Drivers/STM32H7xx_HAL_Driver/Src/stm32h7xx_hal_flash_ex.c **** #if defined(DUAL_CORE)
1195:Drivers/STM32H7xx_HAL_Driver/Src/stm32h7xx_hal_flash_ex.c ****   if((UserType & OB_USER_IWDG2_SW) != 0U)
1196:Drivers/STM32H7xx_HAL_Driver/Src/stm32h7xx_hal_flash_ex.c ****   {
1197:Drivers/STM32H7xx_HAL_Driver/Src/stm32h7xx_hal_flash_ex.c ****     /* IWDG2_SW option byte should be modified */
1198:Drivers/STM32H7xx_HAL_Driver/Src/stm32h7xx_hal_flash_ex.c ****     assert_param(IS_OB_IWDG2_SOURCE(UserConfig & FLASH_OPTSR_IWDG2_SW));
1199:Drivers/STM32H7xx_HAL_Driver/Src/stm32h7xx_hal_flash_ex.c **** 
1200:Drivers/STM32H7xx_HAL_Driver/Src/stm32h7xx_hal_flash_ex.c ****     /* Set value and mask for IWDG2_SW option byte */
1201:Drivers/STM32H7xx_HAL_Driver/Src/stm32h7xx_hal_flash_ex.c ****     optr_reg_val |= (UserConfig & FLASH_OPTSR_IWDG2_SW);
1202:Drivers/STM32H7xx_HAL_Driver/Src/stm32h7xx_hal_flash_ex.c ****     optr_reg_mask |= FLASH_OPTSR_IWDG2_SW;
1203:Drivers/STM32H7xx_HAL_Driver/Src/stm32h7xx_hal_flash_ex.c ****   }
1204:Drivers/STM32H7xx_HAL_Driver/Src/stm32h7xx_hal_flash_ex.c **** #endif /*DUAL_CORE*/
1205:Drivers/STM32H7xx_HAL_Driver/Src/stm32h7xx_hal_flash_ex.c ****   if((UserType & OB_USER_NRST_STOP_D1) != 0U)
1206:Drivers/STM32H7xx_HAL_Driver/Src/stm32h7xx_hal_flash_ex.c ****   {
1207:Drivers/STM32H7xx_HAL_Driver/Src/stm32h7xx_hal_flash_ex.c ****     /* NRST_STOP option byte should be modified */
1208:Drivers/STM32H7xx_HAL_Driver/Src/stm32h7xx_hal_flash_ex.c ****     assert_param(IS_OB_STOP_D1_RESET(UserConfig & FLASH_OPTSR_NRST_STOP_D1));
1209:Drivers/STM32H7xx_HAL_Driver/Src/stm32h7xx_hal_flash_ex.c **** 
1210:Drivers/STM32H7xx_HAL_Driver/Src/stm32h7xx_hal_flash_ex.c ****     /* Set value and mask for NRST_STOP option byte */
1211:Drivers/STM32H7xx_HAL_Driver/Src/stm32h7xx_hal_flash_ex.c ****     optr_reg_val |= (UserConfig & FLASH_OPTSR_NRST_STOP_D1);
1212:Drivers/STM32H7xx_HAL_Driver/Src/stm32h7xx_hal_flash_ex.c ****     optr_reg_mask |= FLASH_OPTSR_NRST_STOP_D1;
1213:Drivers/STM32H7xx_HAL_Driver/Src/stm32h7xx_hal_flash_ex.c ****   }
1214:Drivers/STM32H7xx_HAL_Driver/Src/stm32h7xx_hal_flash_ex.c **** 
1215:Drivers/STM32H7xx_HAL_Driver/Src/stm32h7xx_hal_flash_ex.c ****   if((UserType & OB_USER_NRST_STDBY_D1) != 0U)
1216:Drivers/STM32H7xx_HAL_Driver/Src/stm32h7xx_hal_flash_ex.c ****   {
1217:Drivers/STM32H7xx_HAL_Driver/Src/stm32h7xx_hal_flash_ex.c ****     /* NRST_STDBY option byte should be modified */
1218:Drivers/STM32H7xx_HAL_Driver/Src/stm32h7xx_hal_flash_ex.c ****     assert_param(IS_OB_STDBY_D1_RESET(UserConfig & FLASH_OPTSR_NRST_STBY_D1));
1219:Drivers/STM32H7xx_HAL_Driver/Src/stm32h7xx_hal_flash_ex.c **** 
1220:Drivers/STM32H7xx_HAL_Driver/Src/stm32h7xx_hal_flash_ex.c ****     /* Set value and mask for NRST_STDBY option byte */
1221:Drivers/STM32H7xx_HAL_Driver/Src/stm32h7xx_hal_flash_ex.c ****     optr_reg_val |= (UserConfig & FLASH_OPTSR_NRST_STBY_D1);
1222:Drivers/STM32H7xx_HAL_Driver/Src/stm32h7xx_hal_flash_ex.c ****     optr_reg_mask |= FLASH_OPTSR_NRST_STBY_D1;
1223:Drivers/STM32H7xx_HAL_Driver/Src/stm32h7xx_hal_flash_ex.c ****   }
1224:Drivers/STM32H7xx_HAL_Driver/Src/stm32h7xx_hal_flash_ex.c **** 
1225:Drivers/STM32H7xx_HAL_Driver/Src/stm32h7xx_hal_flash_ex.c ****   if((UserType & OB_USER_IWDG_STOP) != 0U)
ARM GAS  C:\Users\MadeuxS\AppData\Local\Temp\ccAPGHhR.s 			page 46


1226:Drivers/STM32H7xx_HAL_Driver/Src/stm32h7xx_hal_flash_ex.c ****   {
1227:Drivers/STM32H7xx_HAL_Driver/Src/stm32h7xx_hal_flash_ex.c ****     /* IWDG_STOP option byte should be modified */
1228:Drivers/STM32H7xx_HAL_Driver/Src/stm32h7xx_hal_flash_ex.c ****     assert_param(IS_OB_USER_IWDG_STOP(UserConfig & FLASH_OPTSR_FZ_IWDG_STOP));
1229:Drivers/STM32H7xx_HAL_Driver/Src/stm32h7xx_hal_flash_ex.c **** 
1230:Drivers/STM32H7xx_HAL_Driver/Src/stm32h7xx_hal_flash_ex.c ****     /* Set value and mask for IWDG_STOP option byte */
1231:Drivers/STM32H7xx_HAL_Driver/Src/stm32h7xx_hal_flash_ex.c ****     optr_reg_val |= (UserConfig & FLASH_OPTSR_FZ_IWDG_STOP);
1232:Drivers/STM32H7xx_HAL_Driver/Src/stm32h7xx_hal_flash_ex.c ****     optr_reg_mask |= FLASH_OPTSR_FZ_IWDG_STOP;
1233:Drivers/STM32H7xx_HAL_Driver/Src/stm32h7xx_hal_flash_ex.c ****   }
1234:Drivers/STM32H7xx_HAL_Driver/Src/stm32h7xx_hal_flash_ex.c **** 
1235:Drivers/STM32H7xx_HAL_Driver/Src/stm32h7xx_hal_flash_ex.c ****   if((UserType & OB_USER_IWDG_STDBY) != 0U)
1236:Drivers/STM32H7xx_HAL_Driver/Src/stm32h7xx_hal_flash_ex.c ****   {
1237:Drivers/STM32H7xx_HAL_Driver/Src/stm32h7xx_hal_flash_ex.c ****     /* IWDG_STDBY option byte should be modified */
1238:Drivers/STM32H7xx_HAL_Driver/Src/stm32h7xx_hal_flash_ex.c ****     assert_param(IS_OB_USER_IWDG_STDBY(UserConfig & FLASH_OPTSR_FZ_IWDG_SDBY));
1239:Drivers/STM32H7xx_HAL_Driver/Src/stm32h7xx_hal_flash_ex.c **** 
1240:Drivers/STM32H7xx_HAL_Driver/Src/stm32h7xx_hal_flash_ex.c ****     /* Set value and mask for IWDG_STDBY option byte */
1241:Drivers/STM32H7xx_HAL_Driver/Src/stm32h7xx_hal_flash_ex.c ****     optr_reg_val |= (UserConfig & FLASH_OPTSR_FZ_IWDG_SDBY);
1242:Drivers/STM32H7xx_HAL_Driver/Src/stm32h7xx_hal_flash_ex.c ****     optr_reg_mask |= FLASH_OPTSR_FZ_IWDG_SDBY;
1243:Drivers/STM32H7xx_HAL_Driver/Src/stm32h7xx_hal_flash_ex.c ****   }
1244:Drivers/STM32H7xx_HAL_Driver/Src/stm32h7xx_hal_flash_ex.c **** 
1245:Drivers/STM32H7xx_HAL_Driver/Src/stm32h7xx_hal_flash_ex.c ****   if((UserType & OB_USER_ST_RAM_SIZE) != 0U)
1246:Drivers/STM32H7xx_HAL_Driver/Src/stm32h7xx_hal_flash_ex.c ****   {
1247:Drivers/STM32H7xx_HAL_Driver/Src/stm32h7xx_hal_flash_ex.c ****     /* ST_RAM_SIZE option byte should be modified */
1248:Drivers/STM32H7xx_HAL_Driver/Src/stm32h7xx_hal_flash_ex.c ****     assert_param(IS_OB_USER_ST_RAM_SIZE(UserConfig & FLASH_OPTSR_ST_RAM_SIZE));
1249:Drivers/STM32H7xx_HAL_Driver/Src/stm32h7xx_hal_flash_ex.c **** 
1250:Drivers/STM32H7xx_HAL_Driver/Src/stm32h7xx_hal_flash_ex.c ****     /* Set value and mask for ST_RAM_SIZE option byte */
1251:Drivers/STM32H7xx_HAL_Driver/Src/stm32h7xx_hal_flash_ex.c ****     optr_reg_val |= (UserConfig & FLASH_OPTSR_ST_RAM_SIZE);
1252:Drivers/STM32H7xx_HAL_Driver/Src/stm32h7xx_hal_flash_ex.c ****     optr_reg_mask |= FLASH_OPTSR_ST_RAM_SIZE;
1253:Drivers/STM32H7xx_HAL_Driver/Src/stm32h7xx_hal_flash_ex.c ****   }
1254:Drivers/STM32H7xx_HAL_Driver/Src/stm32h7xx_hal_flash_ex.c **** 
1255:Drivers/STM32H7xx_HAL_Driver/Src/stm32h7xx_hal_flash_ex.c ****   if((UserType & OB_USER_SECURITY) != 0U)
1256:Drivers/STM32H7xx_HAL_Driver/Src/stm32h7xx_hal_flash_ex.c ****   {
1257:Drivers/STM32H7xx_HAL_Driver/Src/stm32h7xx_hal_flash_ex.c ****     /* SECURITY option byte should be modified */
1258:Drivers/STM32H7xx_HAL_Driver/Src/stm32h7xx_hal_flash_ex.c ****     assert_param(IS_OB_USER_SECURITY(UserConfig & FLASH_OPTSR_SECURITY));
1259:Drivers/STM32H7xx_HAL_Driver/Src/stm32h7xx_hal_flash_ex.c **** 
1260:Drivers/STM32H7xx_HAL_Driver/Src/stm32h7xx_hal_flash_ex.c ****     /* Set value and mask for SECURITY option byte */
1261:Drivers/STM32H7xx_HAL_Driver/Src/stm32h7xx_hal_flash_ex.c ****     optr_reg_val |= (UserConfig & FLASH_OPTSR_SECURITY);
1262:Drivers/STM32H7xx_HAL_Driver/Src/stm32h7xx_hal_flash_ex.c ****     optr_reg_mask |= FLASH_OPTSR_SECURITY;
1263:Drivers/STM32H7xx_HAL_Driver/Src/stm32h7xx_hal_flash_ex.c ****   }
1264:Drivers/STM32H7xx_HAL_Driver/Src/stm32h7xx_hal_flash_ex.c **** 
1265:Drivers/STM32H7xx_HAL_Driver/Src/stm32h7xx_hal_flash_ex.c **** #if defined(DUAL_CORE)
1266:Drivers/STM32H7xx_HAL_Driver/Src/stm32h7xx_hal_flash_ex.c ****   if((UserType & OB_USER_BCM4) != 0U)
1267:Drivers/STM32H7xx_HAL_Driver/Src/stm32h7xx_hal_flash_ex.c ****   {
1268:Drivers/STM32H7xx_HAL_Driver/Src/stm32h7xx_hal_flash_ex.c ****     /* BCM4 option byte should be modified */
1269:Drivers/STM32H7xx_HAL_Driver/Src/stm32h7xx_hal_flash_ex.c ****     assert_param(IS_OB_USER_BCM4(UserConfig & FLASH_OPTSR_BCM4));
1270:Drivers/STM32H7xx_HAL_Driver/Src/stm32h7xx_hal_flash_ex.c **** 
1271:Drivers/STM32H7xx_HAL_Driver/Src/stm32h7xx_hal_flash_ex.c ****     /* Set value and mask for BCM4 option byte */
1272:Drivers/STM32H7xx_HAL_Driver/Src/stm32h7xx_hal_flash_ex.c ****     optr_reg_val |= (UserConfig & FLASH_OPTSR_BCM4);
1273:Drivers/STM32H7xx_HAL_Driver/Src/stm32h7xx_hal_flash_ex.c ****     optr_reg_mask |= FLASH_OPTSR_BCM4;
1274:Drivers/STM32H7xx_HAL_Driver/Src/stm32h7xx_hal_flash_ex.c ****   }
1275:Drivers/STM32H7xx_HAL_Driver/Src/stm32h7xx_hal_flash_ex.c **** 
1276:Drivers/STM32H7xx_HAL_Driver/Src/stm32h7xx_hal_flash_ex.c ****   if((UserType & OB_USER_BCM7) != 0U)
1277:Drivers/STM32H7xx_HAL_Driver/Src/stm32h7xx_hal_flash_ex.c ****   {
1278:Drivers/STM32H7xx_HAL_Driver/Src/stm32h7xx_hal_flash_ex.c ****     /* BCM7 option byte should be modified */
1279:Drivers/STM32H7xx_HAL_Driver/Src/stm32h7xx_hal_flash_ex.c ****     assert_param(IS_OB_USER_BCM7(UserConfig & FLASH_OPTSR_BCM7));
1280:Drivers/STM32H7xx_HAL_Driver/Src/stm32h7xx_hal_flash_ex.c **** 
1281:Drivers/STM32H7xx_HAL_Driver/Src/stm32h7xx_hal_flash_ex.c ****     /* Set value and mask for BCM7 option byte */
1282:Drivers/STM32H7xx_HAL_Driver/Src/stm32h7xx_hal_flash_ex.c ****     optr_reg_val |= (UserConfig & FLASH_OPTSR_BCM7);
ARM GAS  C:\Users\MadeuxS\AppData\Local\Temp\ccAPGHhR.s 			page 47


1283:Drivers/STM32H7xx_HAL_Driver/Src/stm32h7xx_hal_flash_ex.c ****     optr_reg_mask |= FLASH_OPTSR_BCM7;
1284:Drivers/STM32H7xx_HAL_Driver/Src/stm32h7xx_hal_flash_ex.c ****   }
1285:Drivers/STM32H7xx_HAL_Driver/Src/stm32h7xx_hal_flash_ex.c **** #endif /* DUAL_CORE */
1286:Drivers/STM32H7xx_HAL_Driver/Src/stm32h7xx_hal_flash_ex.c **** 
1287:Drivers/STM32H7xx_HAL_Driver/Src/stm32h7xx_hal_flash_ex.c **** #if defined (FLASH_OPTSR_NRST_STOP_D2)
1288:Drivers/STM32H7xx_HAL_Driver/Src/stm32h7xx_hal_flash_ex.c ****   if((UserType & OB_USER_NRST_STOP_D2) != 0U)
1289:Drivers/STM32H7xx_HAL_Driver/Src/stm32h7xx_hal_flash_ex.c ****   {
1290:Drivers/STM32H7xx_HAL_Driver/Src/stm32h7xx_hal_flash_ex.c ****     /* NRST_STOP option byte should be modified */
1291:Drivers/STM32H7xx_HAL_Driver/Src/stm32h7xx_hal_flash_ex.c ****     assert_param(IS_OB_STOP_D2_RESET(UserConfig & FLASH_OPTSR_NRST_STOP_D2));
1292:Drivers/STM32H7xx_HAL_Driver/Src/stm32h7xx_hal_flash_ex.c **** 
1293:Drivers/STM32H7xx_HAL_Driver/Src/stm32h7xx_hal_flash_ex.c ****     /* Set value and mask for NRST_STOP option byte */
1294:Drivers/STM32H7xx_HAL_Driver/Src/stm32h7xx_hal_flash_ex.c ****     optr_reg_val |= (UserConfig & FLASH_OPTSR_NRST_STOP_D2);
1295:Drivers/STM32H7xx_HAL_Driver/Src/stm32h7xx_hal_flash_ex.c ****     optr_reg_mask |= FLASH_OPTSR_NRST_STOP_D2;
1296:Drivers/STM32H7xx_HAL_Driver/Src/stm32h7xx_hal_flash_ex.c ****   }
1297:Drivers/STM32H7xx_HAL_Driver/Src/stm32h7xx_hal_flash_ex.c **** 
1298:Drivers/STM32H7xx_HAL_Driver/Src/stm32h7xx_hal_flash_ex.c ****   if((UserType & OB_USER_NRST_STDBY_D2) != 0U)
1299:Drivers/STM32H7xx_HAL_Driver/Src/stm32h7xx_hal_flash_ex.c ****   {
1300:Drivers/STM32H7xx_HAL_Driver/Src/stm32h7xx_hal_flash_ex.c ****     /* NRST_STDBY option byte should be modified */
1301:Drivers/STM32H7xx_HAL_Driver/Src/stm32h7xx_hal_flash_ex.c ****     assert_param(IS_OB_STDBY_D2_RESET(UserConfig & FLASH_OPTSR_NRST_STBY_D2));
1302:Drivers/STM32H7xx_HAL_Driver/Src/stm32h7xx_hal_flash_ex.c **** 
1303:Drivers/STM32H7xx_HAL_Driver/Src/stm32h7xx_hal_flash_ex.c ****     /* Set value and mask for NRST_STDBY option byte */
1304:Drivers/STM32H7xx_HAL_Driver/Src/stm32h7xx_hal_flash_ex.c ****     optr_reg_val |= (UserConfig & FLASH_OPTSR_NRST_STBY_D2);
1305:Drivers/STM32H7xx_HAL_Driver/Src/stm32h7xx_hal_flash_ex.c ****     optr_reg_mask |= FLASH_OPTSR_NRST_STBY_D2;
1306:Drivers/STM32H7xx_HAL_Driver/Src/stm32h7xx_hal_flash_ex.c ****   }
1307:Drivers/STM32H7xx_HAL_Driver/Src/stm32h7xx_hal_flash_ex.c **** #endif /* FLASH_OPTSR_NRST_STOP_D2 */
1308:Drivers/STM32H7xx_HAL_Driver/Src/stm32h7xx_hal_flash_ex.c **** 
1309:Drivers/STM32H7xx_HAL_Driver/Src/stm32h7xx_hal_flash_ex.c **** #if defined (DUAL_BANK)
1310:Drivers/STM32H7xx_HAL_Driver/Src/stm32h7xx_hal_flash_ex.c ****   if((UserType & OB_USER_SWAP_BANK) != 0U)
1311:Drivers/STM32H7xx_HAL_Driver/Src/stm32h7xx_hal_flash_ex.c ****   {
1312:Drivers/STM32H7xx_HAL_Driver/Src/stm32h7xx_hal_flash_ex.c ****     /* SWAP_BANK_OPT option byte should be modified */
1313:Drivers/STM32H7xx_HAL_Driver/Src/stm32h7xx_hal_flash_ex.c ****     assert_param(IS_OB_USER_SWAP_BANK(UserConfig & FLASH_OPTSR_SWAP_BANK_OPT));
1314:Drivers/STM32H7xx_HAL_Driver/Src/stm32h7xx_hal_flash_ex.c **** 
1315:Drivers/STM32H7xx_HAL_Driver/Src/stm32h7xx_hal_flash_ex.c ****     /* Set value and mask for SWAP_BANK_OPT option byte */
1316:Drivers/STM32H7xx_HAL_Driver/Src/stm32h7xx_hal_flash_ex.c ****     optr_reg_val |= (UserConfig & FLASH_OPTSR_SWAP_BANK_OPT);
1317:Drivers/STM32H7xx_HAL_Driver/Src/stm32h7xx_hal_flash_ex.c ****     optr_reg_mask |= FLASH_OPTSR_SWAP_BANK_OPT;
1318:Drivers/STM32H7xx_HAL_Driver/Src/stm32h7xx_hal_flash_ex.c ****   }
1319:Drivers/STM32H7xx_HAL_Driver/Src/stm32h7xx_hal_flash_ex.c **** #endif /* DUAL_BANK */
1320:Drivers/STM32H7xx_HAL_Driver/Src/stm32h7xx_hal_flash_ex.c **** 
1321:Drivers/STM32H7xx_HAL_Driver/Src/stm32h7xx_hal_flash_ex.c ****   if((UserType & OB_USER_IOHSLV) != 0U)
1322:Drivers/STM32H7xx_HAL_Driver/Src/stm32h7xx_hal_flash_ex.c ****   {
1323:Drivers/STM32H7xx_HAL_Driver/Src/stm32h7xx_hal_flash_ex.c ****     /* IOHSLV_OPT option byte should be modified */
1324:Drivers/STM32H7xx_HAL_Driver/Src/stm32h7xx_hal_flash_ex.c ****     assert_param(IS_OB_USER_IOHSLV(UserConfig & FLASH_OPTSR_IO_HSLV));
1325:Drivers/STM32H7xx_HAL_Driver/Src/stm32h7xx_hal_flash_ex.c **** 
1326:Drivers/STM32H7xx_HAL_Driver/Src/stm32h7xx_hal_flash_ex.c ****     /* Set value and mask for IOHSLV_OPT option byte */
1327:Drivers/STM32H7xx_HAL_Driver/Src/stm32h7xx_hal_flash_ex.c ****     optr_reg_val |= (UserConfig & FLASH_OPTSR_IO_HSLV);
1328:Drivers/STM32H7xx_HAL_Driver/Src/stm32h7xx_hal_flash_ex.c ****     optr_reg_mask |= FLASH_OPTSR_IO_HSLV;
1329:Drivers/STM32H7xx_HAL_Driver/Src/stm32h7xx_hal_flash_ex.c ****   }
1330:Drivers/STM32H7xx_HAL_Driver/Src/stm32h7xx_hal_flash_ex.c **** 
1331:Drivers/STM32H7xx_HAL_Driver/Src/stm32h7xx_hal_flash_ex.c **** #if defined (FLASH_OPTSR_VDDMMC_HSLV)
1332:Drivers/STM32H7xx_HAL_Driver/Src/stm32h7xx_hal_flash_ex.c ****   if((UserType & OB_USER_VDDMMC_HSLV) != 0U)
1333:Drivers/STM32H7xx_HAL_Driver/Src/stm32h7xx_hal_flash_ex.c ****   {
1334:Drivers/STM32H7xx_HAL_Driver/Src/stm32h7xx_hal_flash_ex.c ****     /* VDDMMC_HSLV option byte should be modified */
1335:Drivers/STM32H7xx_HAL_Driver/Src/stm32h7xx_hal_flash_ex.c ****     assert_param(IS_OB_USER_VDDMMC_HSLV(UserConfig & FLASH_OPTSR_VDDMMC_HSLV));
1336:Drivers/STM32H7xx_HAL_Driver/Src/stm32h7xx_hal_flash_ex.c **** 
1337:Drivers/STM32H7xx_HAL_Driver/Src/stm32h7xx_hal_flash_ex.c ****     /* Set value and mask for VDDMMC_HSLV option byte */
1338:Drivers/STM32H7xx_HAL_Driver/Src/stm32h7xx_hal_flash_ex.c ****     optr_reg_val |= (UserConfig & FLASH_OPTSR_VDDMMC_HSLV);
1339:Drivers/STM32H7xx_HAL_Driver/Src/stm32h7xx_hal_flash_ex.c ****     optr_reg_mask |= FLASH_OPTSR_VDDMMC_HSLV;
ARM GAS  C:\Users\MadeuxS\AppData\Local\Temp\ccAPGHhR.s 			page 48


1340:Drivers/STM32H7xx_HAL_Driver/Src/stm32h7xx_hal_flash_ex.c ****   }
1341:Drivers/STM32H7xx_HAL_Driver/Src/stm32h7xx_hal_flash_ex.c **** #endif /* FLASH_OPTSR_VDDMMC_HSLV */
1342:Drivers/STM32H7xx_HAL_Driver/Src/stm32h7xx_hal_flash_ex.c **** 
1343:Drivers/STM32H7xx_HAL_Driver/Src/stm32h7xx_hal_flash_ex.c ****   /* Configure the option bytes register */
1344:Drivers/STM32H7xx_HAL_Driver/Src/stm32h7xx_hal_flash_ex.c ****   MODIFY_REG(FLASH->OPTSR_PRG, optr_reg_mask, optr_reg_val);
1345:Drivers/STM32H7xx_HAL_Driver/Src/stm32h7xx_hal_flash_ex.c **** }
1346:Drivers/STM32H7xx_HAL_Driver/Src/stm32h7xx_hal_flash_ex.c **** 
1347:Drivers/STM32H7xx_HAL_Driver/Src/stm32h7xx_hal_flash_ex.c **** #if defined(DUAL_CORE)
1348:Drivers/STM32H7xx_HAL_Driver/Src/stm32h7xx_hal_flash_ex.c **** /**
1349:Drivers/STM32H7xx_HAL_Driver/Src/stm32h7xx_hal_flash_ex.c ****   * @brief  Return the FLASH User Option Byte value.
1350:Drivers/STM32H7xx_HAL_Driver/Src/stm32h7xx_hal_flash_ex.c ****   * @retval The FLASH User Option Bytes values
1351:Drivers/STM32H7xx_HAL_Driver/Src/stm32h7xx_hal_flash_ex.c ****   *         IWDG1_SW(Bit4), IWDG2_SW(Bit 5), nRST_STOP_D1(Bit 6), nRST_STDY_D1(Bit 7),
1352:Drivers/STM32H7xx_HAL_Driver/Src/stm32h7xx_hal_flash_ex.c ****   *         FZ_IWDG_STOP(Bit 17), FZ_IWDG_SDBY(Bit 18), ST_RAM_SIZE(Bit[19:20]),
1353:Drivers/STM32H7xx_HAL_Driver/Src/stm32h7xx_hal_flash_ex.c ****   *         SECURITY(Bit 21), BCM4(Bit 22), BCM7(Bit 23), nRST_STOP_D2(Bit 24),
1354:Drivers/STM32H7xx_HAL_Driver/Src/stm32h7xx_hal_flash_ex.c ****   *         nRST_STDY_D2(Bit 25), IO_HSLV (Bit 29) and SWAP_BANK_OPT(Bit 31).
1355:Drivers/STM32H7xx_HAL_Driver/Src/stm32h7xx_hal_flash_ex.c ****   */
1356:Drivers/STM32H7xx_HAL_Driver/Src/stm32h7xx_hal_flash_ex.c **** #else
1357:Drivers/STM32H7xx_HAL_Driver/Src/stm32h7xx_hal_flash_ex.c **** /**
1358:Drivers/STM32H7xx_HAL_Driver/Src/stm32h7xx_hal_flash_ex.c ****   * @brief  Return the FLASH User Option Byte value.
1359:Drivers/STM32H7xx_HAL_Driver/Src/stm32h7xx_hal_flash_ex.c ****   * @retval The FLASH User Option Bytes values
1360:Drivers/STM32H7xx_HAL_Driver/Src/stm32h7xx_hal_flash_ex.c ****   *         IWDG_SW(Bit4), nRST_STOP_D1(Bit 6), nRST_STDY_D1(Bit 7),
1361:Drivers/STM32H7xx_HAL_Driver/Src/stm32h7xx_hal_flash_ex.c ****   *         FZ_IWDG_STOP(Bit 17), FZ_IWDG_SDBY(Bit 18), ST_RAM_SIZE(Bit[19:20]),
1362:Drivers/STM32H7xx_HAL_Driver/Src/stm32h7xx_hal_flash_ex.c ****   *         SECURITY(Bit 21), IO_HSLV (Bit 29) and SWAP_BANK_OPT(Bit 31).
1363:Drivers/STM32H7xx_HAL_Driver/Src/stm32h7xx_hal_flash_ex.c ****   */
1364:Drivers/STM32H7xx_HAL_Driver/Src/stm32h7xx_hal_flash_ex.c **** #endif /*DUAL_CORE*/
1365:Drivers/STM32H7xx_HAL_Driver/Src/stm32h7xx_hal_flash_ex.c **** static uint32_t FLASH_OB_GetUser(void)
1366:Drivers/STM32H7xx_HAL_Driver/Src/stm32h7xx_hal_flash_ex.c **** {
1367:Drivers/STM32H7xx_HAL_Driver/Src/stm32h7xx_hal_flash_ex.c ****   uint32_t userConfig = READ_REG(FLASH->OPTSR_CUR);
1368:Drivers/STM32H7xx_HAL_Driver/Src/stm32h7xx_hal_flash_ex.c ****   userConfig &= (~(FLASH_OPTSR_BOR_LEV | FLASH_OPTSR_RDP));
1369:Drivers/STM32H7xx_HAL_Driver/Src/stm32h7xx_hal_flash_ex.c **** 
1370:Drivers/STM32H7xx_HAL_Driver/Src/stm32h7xx_hal_flash_ex.c ****   return userConfig;
1371:Drivers/STM32H7xx_HAL_Driver/Src/stm32h7xx_hal_flash_ex.c **** }
1372:Drivers/STM32H7xx_HAL_Driver/Src/stm32h7xx_hal_flash_ex.c **** 
1373:Drivers/STM32H7xx_HAL_Driver/Src/stm32h7xx_hal_flash_ex.c **** /**
1374:Drivers/STM32H7xx_HAL_Driver/Src/stm32h7xx_hal_flash_ex.c ****   * @brief  Configure the Proprietary code readout protection of the desired addresses
1375:Drivers/STM32H7xx_HAL_Driver/Src/stm32h7xx_hal_flash_ex.c ****   *
1376:Drivers/STM32H7xx_HAL_Driver/Src/stm32h7xx_hal_flash_ex.c ****   * @note   To configure the PCROP options, the option lock bit OPTLOCK must be
1377:Drivers/STM32H7xx_HAL_Driver/Src/stm32h7xx_hal_flash_ex.c ****   *         cleared with the call of the HAL_FLASH_OB_Unlock() function.
1378:Drivers/STM32H7xx_HAL_Driver/Src/stm32h7xx_hal_flash_ex.c ****   * @note   To validate the PCROP options, the option bytes must be reloaded
1379:Drivers/STM32H7xx_HAL_Driver/Src/stm32h7xx_hal_flash_ex.c ****   *         through the call of the HAL_FLASH_OB_Launch() function.
1380:Drivers/STM32H7xx_HAL_Driver/Src/stm32h7xx_hal_flash_ex.c ****   *
1381:Drivers/STM32H7xx_HAL_Driver/Src/stm32h7xx_hal_flash_ex.c ****   * @param  PCROPConfig specifies if the PCROP area for the given Bank shall be erased or not
1382:Drivers/STM32H7xx_HAL_Driver/Src/stm32h7xx_hal_flash_ex.c ****   *         when RDP level decreased from Level 1 to Level 0, or after a bank erase with protection
1383:Drivers/STM32H7xx_HAL_Driver/Src/stm32h7xx_hal_flash_ex.c ****   *         This parameter must be a value of @arg FLASHEx_OB_PCROP_RDP enumeration
1384:Drivers/STM32H7xx_HAL_Driver/Src/stm32h7xx_hal_flash_ex.c ****   *
1385:Drivers/STM32H7xx_HAL_Driver/Src/stm32h7xx_hal_flash_ex.c ****   * @param  PCROPStartAddr specifies the start address of the Proprietary code readout protection
1386:Drivers/STM32H7xx_HAL_Driver/Src/stm32h7xx_hal_flash_ex.c ****   *          This parameter can be an address between begin and end of the bank
1387:Drivers/STM32H7xx_HAL_Driver/Src/stm32h7xx_hal_flash_ex.c ****   *
1388:Drivers/STM32H7xx_HAL_Driver/Src/stm32h7xx_hal_flash_ex.c ****   * @param  PCROPEndAddr specifies the end address of the Proprietary code readout protection
1389:Drivers/STM32H7xx_HAL_Driver/Src/stm32h7xx_hal_flash_ex.c ****   *          This parameter can be an address between PCROPStartAddr and end of the bank
1390:Drivers/STM32H7xx_HAL_Driver/Src/stm32h7xx_hal_flash_ex.c ****   *
1391:Drivers/STM32H7xx_HAL_Driver/Src/stm32h7xx_hal_flash_ex.c ****   * @param  Banks the specific bank to apply PCROP protection
1392:Drivers/STM32H7xx_HAL_Driver/Src/stm32h7xx_hal_flash_ex.c ****   *          This parameter can be one of the following values:
1393:Drivers/STM32H7xx_HAL_Driver/Src/stm32h7xx_hal_flash_ex.c ****   *            @arg FLASH_BANK_1: PCROP on specified bank1 area
1394:Drivers/STM32H7xx_HAL_Driver/Src/stm32h7xx_hal_flash_ex.c ****   *            @arg FLASH_BANK_2: PCROP on specified bank2 area
1395:Drivers/STM32H7xx_HAL_Driver/Src/stm32h7xx_hal_flash_ex.c ****   *            @arg FLASH_BANK_BOTH: PCROP on specified bank1 and bank2 area (same config will be a
1396:Drivers/STM32H7xx_HAL_Driver/Src/stm32h7xx_hal_flash_ex.c ****   *
ARM GAS  C:\Users\MadeuxS\AppData\Local\Temp\ccAPGHhR.s 			page 49


1397:Drivers/STM32H7xx_HAL_Driver/Src/stm32h7xx_hal_flash_ex.c ****   * @retval None
1398:Drivers/STM32H7xx_HAL_Driver/Src/stm32h7xx_hal_flash_ex.c ****   */
1399:Drivers/STM32H7xx_HAL_Driver/Src/stm32h7xx_hal_flash_ex.c **** static void FLASH_OB_PCROPConfig(uint32_t PCROPConfig, uint32_t PCROPStartAddr, uint32_t PCROPEndAd
1400:Drivers/STM32H7xx_HAL_Driver/Src/stm32h7xx_hal_flash_ex.c **** {
1401:Drivers/STM32H7xx_HAL_Driver/Src/stm32h7xx_hal_flash_ex.c ****   /* Check the parameters */
1402:Drivers/STM32H7xx_HAL_Driver/Src/stm32h7xx_hal_flash_ex.c ****   assert_param(IS_FLASH_BANK(Banks));
1403:Drivers/STM32H7xx_HAL_Driver/Src/stm32h7xx_hal_flash_ex.c ****   assert_param(IS_OB_PCROP_RDP(PCROPConfig));
1404:Drivers/STM32H7xx_HAL_Driver/Src/stm32h7xx_hal_flash_ex.c **** 
1405:Drivers/STM32H7xx_HAL_Driver/Src/stm32h7xx_hal_flash_ex.c ****   if((Banks & FLASH_BANK_1) == FLASH_BANK_1)
1406:Drivers/STM32H7xx_HAL_Driver/Src/stm32h7xx_hal_flash_ex.c ****   {
1407:Drivers/STM32H7xx_HAL_Driver/Src/stm32h7xx_hal_flash_ex.c ****     assert_param(IS_FLASH_PROGRAM_ADDRESS_BANK1(PCROPStartAddr));
1408:Drivers/STM32H7xx_HAL_Driver/Src/stm32h7xx_hal_flash_ex.c ****     assert_param(IS_FLASH_PROGRAM_ADDRESS_BANK1(PCROPEndAddr));
1409:Drivers/STM32H7xx_HAL_Driver/Src/stm32h7xx_hal_flash_ex.c **** 
1410:Drivers/STM32H7xx_HAL_Driver/Src/stm32h7xx_hal_flash_ex.c ****     /* Configure the Proprietary code readout protection */
1411:Drivers/STM32H7xx_HAL_Driver/Src/stm32h7xx_hal_flash_ex.c ****     FLASH->PRAR_PRG1 = ((PCROPStartAddr - FLASH_BANK1_BASE) >> 8)                                 |
1412:Drivers/STM32H7xx_HAL_Driver/Src/stm32h7xx_hal_flash_ex.c ****                        (((PCROPEndAddr - FLASH_BANK1_BASE) >> 8) << FLASH_PRAR_PROT_AREA_END_Pos) |
1413:Drivers/STM32H7xx_HAL_Driver/Src/stm32h7xx_hal_flash_ex.c ****                        PCROPConfig;
1414:Drivers/STM32H7xx_HAL_Driver/Src/stm32h7xx_hal_flash_ex.c ****   }
1415:Drivers/STM32H7xx_HAL_Driver/Src/stm32h7xx_hal_flash_ex.c **** 
1416:Drivers/STM32H7xx_HAL_Driver/Src/stm32h7xx_hal_flash_ex.c **** #if defined (DUAL_BANK)
1417:Drivers/STM32H7xx_HAL_Driver/Src/stm32h7xx_hal_flash_ex.c ****   if((Banks & FLASH_BANK_2) == FLASH_BANK_2)
1418:Drivers/STM32H7xx_HAL_Driver/Src/stm32h7xx_hal_flash_ex.c ****   {
1419:Drivers/STM32H7xx_HAL_Driver/Src/stm32h7xx_hal_flash_ex.c ****     assert_param(IS_FLASH_PROGRAM_ADDRESS_BANK2(PCROPStartAddr));
1420:Drivers/STM32H7xx_HAL_Driver/Src/stm32h7xx_hal_flash_ex.c ****     assert_param(IS_FLASH_PROGRAM_ADDRESS_BANK2(PCROPEndAddr));
1421:Drivers/STM32H7xx_HAL_Driver/Src/stm32h7xx_hal_flash_ex.c **** 
1422:Drivers/STM32H7xx_HAL_Driver/Src/stm32h7xx_hal_flash_ex.c ****     /* Configure the Proprietary code readout protection */
1423:Drivers/STM32H7xx_HAL_Driver/Src/stm32h7xx_hal_flash_ex.c ****     FLASH->PRAR_PRG2 = ((PCROPStartAddr - FLASH_BANK2_BASE) >> 8)                                 |
1424:Drivers/STM32H7xx_HAL_Driver/Src/stm32h7xx_hal_flash_ex.c ****                        (((PCROPEndAddr - FLASH_BANK2_BASE) >> 8) << FLASH_PRAR_PROT_AREA_END_Pos) |
1425:Drivers/STM32H7xx_HAL_Driver/Src/stm32h7xx_hal_flash_ex.c ****                        PCROPConfig;
1426:Drivers/STM32H7xx_HAL_Driver/Src/stm32h7xx_hal_flash_ex.c ****   }
1427:Drivers/STM32H7xx_HAL_Driver/Src/stm32h7xx_hal_flash_ex.c **** #endif /* DUAL_BANK */
1428:Drivers/STM32H7xx_HAL_Driver/Src/stm32h7xx_hal_flash_ex.c **** }
1429:Drivers/STM32H7xx_HAL_Driver/Src/stm32h7xx_hal_flash_ex.c **** 
1430:Drivers/STM32H7xx_HAL_Driver/Src/stm32h7xx_hal_flash_ex.c **** /**
1431:Drivers/STM32H7xx_HAL_Driver/Src/stm32h7xx_hal_flash_ex.c ****   * @brief  Get the Proprietary code readout protection configuration on a given Bank
1432:Drivers/STM32H7xx_HAL_Driver/Src/stm32h7xx_hal_flash_ex.c ****   *
1433:Drivers/STM32H7xx_HAL_Driver/Src/stm32h7xx_hal_flash_ex.c ****   * @param  PCROPConfig indicates if the PCROP area for the given Bank shall be erased or not
1434:Drivers/STM32H7xx_HAL_Driver/Src/stm32h7xx_hal_flash_ex.c ****   *         when RDP level decreased from Level 1 to Level 0 or after a bank erase with protection 
1435:Drivers/STM32H7xx_HAL_Driver/Src/stm32h7xx_hal_flash_ex.c ****   *
1436:Drivers/STM32H7xx_HAL_Driver/Src/stm32h7xx_hal_flash_ex.c ****   * @param  PCROPStartAddr gives the start address of the Proprietary code readout protection of th
1437:Drivers/STM32H7xx_HAL_Driver/Src/stm32h7xx_hal_flash_ex.c ****   *
1438:Drivers/STM32H7xx_HAL_Driver/Src/stm32h7xx_hal_flash_ex.c ****   * @param  PCROPEndAddr gives the end address of the Proprietary code readout protection of the ba
1439:Drivers/STM32H7xx_HAL_Driver/Src/stm32h7xx_hal_flash_ex.c ****   *
1440:Drivers/STM32H7xx_HAL_Driver/Src/stm32h7xx_hal_flash_ex.c ****   * @param  Bank the specific bank to apply PCROP protection
1441:Drivers/STM32H7xx_HAL_Driver/Src/stm32h7xx_hal_flash_ex.c ****   *          This parameter can be exclusively one of the following values:
1442:Drivers/STM32H7xx_HAL_Driver/Src/stm32h7xx_hal_flash_ex.c ****   *            @arg FLASH_BANK_1: PCROP on specified bank1 area
1443:Drivers/STM32H7xx_HAL_Driver/Src/stm32h7xx_hal_flash_ex.c ****   *            @arg FLASH_BANK_2: PCROP on specified bank2 area
1444:Drivers/STM32H7xx_HAL_Driver/Src/stm32h7xx_hal_flash_ex.c ****   *            @arg FLASH_BANK_BOTH: is  not allowed here
1445:Drivers/STM32H7xx_HAL_Driver/Src/stm32h7xx_hal_flash_ex.c ****   *
1446:Drivers/STM32H7xx_HAL_Driver/Src/stm32h7xx_hal_flash_ex.c ****   * @retval None
1447:Drivers/STM32H7xx_HAL_Driver/Src/stm32h7xx_hal_flash_ex.c ****   */
1448:Drivers/STM32H7xx_HAL_Driver/Src/stm32h7xx_hal_flash_ex.c **** static void FLASH_OB_GetPCROP(uint32_t *PCROPConfig, uint32_t *PCROPStartAddr, uint32_t *PCROPEndAd
1449:Drivers/STM32H7xx_HAL_Driver/Src/stm32h7xx_hal_flash_ex.c **** {
1450:Drivers/STM32H7xx_HAL_Driver/Src/stm32h7xx_hal_flash_ex.c ****   uint32_t regvalue = 0;
1451:Drivers/STM32H7xx_HAL_Driver/Src/stm32h7xx_hal_flash_ex.c ****   uint32_t bankBase = 0;
1452:Drivers/STM32H7xx_HAL_Driver/Src/stm32h7xx_hal_flash_ex.c **** 
1453:Drivers/STM32H7xx_HAL_Driver/Src/stm32h7xx_hal_flash_ex.c ****   if(Bank == FLASH_BANK_1)
ARM GAS  C:\Users\MadeuxS\AppData\Local\Temp\ccAPGHhR.s 			page 50


1454:Drivers/STM32H7xx_HAL_Driver/Src/stm32h7xx_hal_flash_ex.c ****   {
1455:Drivers/STM32H7xx_HAL_Driver/Src/stm32h7xx_hal_flash_ex.c ****     regvalue = FLASH->PRAR_CUR1;
1456:Drivers/STM32H7xx_HAL_Driver/Src/stm32h7xx_hal_flash_ex.c ****     bankBase = FLASH_BANK1_BASE;
1457:Drivers/STM32H7xx_HAL_Driver/Src/stm32h7xx_hal_flash_ex.c ****   }
1458:Drivers/STM32H7xx_HAL_Driver/Src/stm32h7xx_hal_flash_ex.c **** 
1459:Drivers/STM32H7xx_HAL_Driver/Src/stm32h7xx_hal_flash_ex.c **** #if defined (DUAL_BANK)
1460:Drivers/STM32H7xx_HAL_Driver/Src/stm32h7xx_hal_flash_ex.c ****   if(Bank == FLASH_BANK_2)
1461:Drivers/STM32H7xx_HAL_Driver/Src/stm32h7xx_hal_flash_ex.c ****   {
1462:Drivers/STM32H7xx_HAL_Driver/Src/stm32h7xx_hal_flash_ex.c ****     regvalue = FLASH->PRAR_CUR2;
1463:Drivers/STM32H7xx_HAL_Driver/Src/stm32h7xx_hal_flash_ex.c ****     bankBase = FLASH_BANK2_BASE;
1464:Drivers/STM32H7xx_HAL_Driver/Src/stm32h7xx_hal_flash_ex.c ****   }
1465:Drivers/STM32H7xx_HAL_Driver/Src/stm32h7xx_hal_flash_ex.c **** #endif /* DUAL_BANK */
1466:Drivers/STM32H7xx_HAL_Driver/Src/stm32h7xx_hal_flash_ex.c **** 
1467:Drivers/STM32H7xx_HAL_Driver/Src/stm32h7xx_hal_flash_ex.c ****   (*PCROPConfig) =  (regvalue & FLASH_PRAR_DMEP);
1468:Drivers/STM32H7xx_HAL_Driver/Src/stm32h7xx_hal_flash_ex.c **** 
1469:Drivers/STM32H7xx_HAL_Driver/Src/stm32h7xx_hal_flash_ex.c ****   (*PCROPStartAddr) = ((regvalue & FLASH_PRAR_PROT_AREA_START) << 8) + bankBase;
1470:Drivers/STM32H7xx_HAL_Driver/Src/stm32h7xx_hal_flash_ex.c ****   (*PCROPEndAddr) = (regvalue & FLASH_PRAR_PROT_AREA_END) >> FLASH_PRAR_PROT_AREA_END_Pos;
1471:Drivers/STM32H7xx_HAL_Driver/Src/stm32h7xx_hal_flash_ex.c ****   (*PCROPEndAddr) = ((*PCROPEndAddr) << 8) + bankBase;
1472:Drivers/STM32H7xx_HAL_Driver/Src/stm32h7xx_hal_flash_ex.c **** }
1473:Drivers/STM32H7xx_HAL_Driver/Src/stm32h7xx_hal_flash_ex.c **** 
1474:Drivers/STM32H7xx_HAL_Driver/Src/stm32h7xx_hal_flash_ex.c **** /**
1475:Drivers/STM32H7xx_HAL_Driver/Src/stm32h7xx_hal_flash_ex.c ****   * @brief  Set the BOR Level.
1476:Drivers/STM32H7xx_HAL_Driver/Src/stm32h7xx_hal_flash_ex.c ****   * @param  Level specifies the Option Bytes BOR Reset Level.
1477:Drivers/STM32H7xx_HAL_Driver/Src/stm32h7xx_hal_flash_ex.c ****   *          This parameter can be one of the following values:
1478:Drivers/STM32H7xx_HAL_Driver/Src/stm32h7xx_hal_flash_ex.c ****   *            @arg OB_BOR_LEVEL0: Reset level threshold is set to 1.6V
1479:Drivers/STM32H7xx_HAL_Driver/Src/stm32h7xx_hal_flash_ex.c ****   *            @arg OB_BOR_LEVEL1: Reset level threshold is set to 2.1V
1480:Drivers/STM32H7xx_HAL_Driver/Src/stm32h7xx_hal_flash_ex.c ****   *            @arg OB_BOR_LEVEL2: Reset level threshold is set to 2.4V
1481:Drivers/STM32H7xx_HAL_Driver/Src/stm32h7xx_hal_flash_ex.c ****   *            @arg OB_BOR_LEVEL3: Reset level threshold is set to 2.7V
1482:Drivers/STM32H7xx_HAL_Driver/Src/stm32h7xx_hal_flash_ex.c ****   * @retval None
1483:Drivers/STM32H7xx_HAL_Driver/Src/stm32h7xx_hal_flash_ex.c ****   */
1484:Drivers/STM32H7xx_HAL_Driver/Src/stm32h7xx_hal_flash_ex.c **** static void FLASH_OB_BOR_LevelConfig(uint32_t Level)
 1036              		.loc 1 1484 13 view .LVU367
 1037              	.LBB85:
1485:Drivers/STM32H7xx_HAL_Driver/Src/stm32h7xx_hal_flash_ex.c **** {
1486:Drivers/STM32H7xx_HAL_Driver/Src/stm32h7xx_hal_flash_ex.c ****   assert_param(IS_OB_BOR_LEVEL(Level));
 1038              		.loc 1 1486 3 view .LVU368
1487:Drivers/STM32H7xx_HAL_Driver/Src/stm32h7xx_hal_flash_ex.c **** 
1488:Drivers/STM32H7xx_HAL_Driver/Src/stm32h7xx_hal_flash_ex.c ****   /* Configure BOR_LEV option byte */
1489:Drivers/STM32H7xx_HAL_Driver/Src/stm32h7xx_hal_flash_ex.c ****   MODIFY_REG(FLASH->OPTSR_PRG, FLASH_OPTSR_BOR_LEV, Level);
 1039              		.loc 1 1489 3 view .LVU369
 1040 008a 6A49     		ldr	r1, .L212+4
 1041 008c 2E69     		ldr	r6, [r5, #16]
 1042 008e 0A6A     		ldr	r2, [r1, #32]
 1043 0090 22F00C02 		bic	r2, r2, #12
 1044 0094 3243     		orrs	r2, r2, r6
 1045 0096 0A62     		str	r2, [r1, #32]
 1046              	.LVL77:
 1047              	.L135:
 1048              		.loc 1 1489 3 is_stmt 0 view .LVU370
 1049              	.LBE85:
 1050              	.LBE84:
 507:Drivers/STM32H7xx_HAL_Driver/Src/stm32h7xx_hal_flash_ex.c ****     {
 1051              		.loc 1 507 5 is_stmt 1 view .LVU371
 507:Drivers/STM32H7xx_HAL_Driver/Src/stm32h7xx_hal_flash_ex.c ****     {
 1052              		.loc 1 507 7 is_stmt 0 view .LVU372
 1053 0098 5F06     		lsls	r7, r3, #25
 1054 009a 15D5     		bpl	.L137
ARM GAS  C:\Users\MadeuxS\AppData\Local\Temp\ccAPGHhR.s 			page 51


 509:Drivers/STM32H7xx_HAL_Driver/Src/stm32h7xx_hal_flash_ex.c ****     }
 1055              		.loc 1 509 7 is_stmt 1 view .LVU373
 1056 009c E96A     		ldr	r1, [r5, #44]
 1057 009e 6F6B     		ldr	r7, [r5, #52]
 1058              	.LVL78:
 1059              	.LBB86:
 1060              	.LBI86:
1490:Drivers/STM32H7xx_HAL_Driver/Src/stm32h7xx_hal_flash_ex.c **** }
1491:Drivers/STM32H7xx_HAL_Driver/Src/stm32h7xx_hal_flash_ex.c **** 
1492:Drivers/STM32H7xx_HAL_Driver/Src/stm32h7xx_hal_flash_ex.c **** /**
1493:Drivers/STM32H7xx_HAL_Driver/Src/stm32h7xx_hal_flash_ex.c ****   * @brief  Get the BOR Level.
1494:Drivers/STM32H7xx_HAL_Driver/Src/stm32h7xx_hal_flash_ex.c ****   * @retval The Option Bytes BOR Reset Level.
1495:Drivers/STM32H7xx_HAL_Driver/Src/stm32h7xx_hal_flash_ex.c ****   *            This parameter can be one of the following values:
1496:Drivers/STM32H7xx_HAL_Driver/Src/stm32h7xx_hal_flash_ex.c ****   *            @arg OB_BOR_LEVEL0: Reset level threshold is set to 1.6V
1497:Drivers/STM32H7xx_HAL_Driver/Src/stm32h7xx_hal_flash_ex.c ****   *            @arg OB_BOR_LEVEL1: Reset level threshold is set to 2.1V
1498:Drivers/STM32H7xx_HAL_Driver/Src/stm32h7xx_hal_flash_ex.c ****   *            @arg OB_BOR_LEVEL2: Reset level threshold is set to 2.4V
1499:Drivers/STM32H7xx_HAL_Driver/Src/stm32h7xx_hal_flash_ex.c ****   *            @arg OB_BOR_LEVEL3: Reset level threshold is set to 2.7V
1500:Drivers/STM32H7xx_HAL_Driver/Src/stm32h7xx_hal_flash_ex.c ****   */
1501:Drivers/STM32H7xx_HAL_Driver/Src/stm32h7xx_hal_flash_ex.c **** static uint32_t FLASH_OB_GetBOR(void)
1502:Drivers/STM32H7xx_HAL_Driver/Src/stm32h7xx_hal_flash_ex.c **** {
1503:Drivers/STM32H7xx_HAL_Driver/Src/stm32h7xx_hal_flash_ex.c ****   return (FLASH->OPTSR_CUR & FLASH_OPTSR_BOR_LEV);
1504:Drivers/STM32H7xx_HAL_Driver/Src/stm32h7xx_hal_flash_ex.c **** }
1505:Drivers/STM32H7xx_HAL_Driver/Src/stm32h7xx_hal_flash_ex.c **** 
1506:Drivers/STM32H7xx_HAL_Driver/Src/stm32h7xx_hal_flash_ex.c **** /**
1507:Drivers/STM32H7xx_HAL_Driver/Src/stm32h7xx_hal_flash_ex.c ****   * @brief  Set Boot address
1508:Drivers/STM32H7xx_HAL_Driver/Src/stm32h7xx_hal_flash_ex.c ****   * @param  BootOption Boot address option byte to be programmed,
1509:Drivers/STM32H7xx_HAL_Driver/Src/stm32h7xx_hal_flash_ex.c ****   *                     This parameter must be a value of @ref FLASHEx_OB_BOOT_OPTION
1510:Drivers/STM32H7xx_HAL_Driver/Src/stm32h7xx_hal_flash_ex.c ****                         (OB_BOOT_ADD0, OB_BOOT_ADD1 or OB_BOOT_ADD_BOTH)
1511:Drivers/STM32H7xx_HAL_Driver/Src/stm32h7xx_hal_flash_ex.c ****   *
1512:Drivers/STM32H7xx_HAL_Driver/Src/stm32h7xx_hal_flash_ex.c ****   * @param  BootAddress0 Specifies the Boot Address 0
1513:Drivers/STM32H7xx_HAL_Driver/Src/stm32h7xx_hal_flash_ex.c ****   * @param  BootAddress1 Specifies the Boot Address 1
1514:Drivers/STM32H7xx_HAL_Driver/Src/stm32h7xx_hal_flash_ex.c ****   * @retval HAL Status
1515:Drivers/STM32H7xx_HAL_Driver/Src/stm32h7xx_hal_flash_ex.c ****   */
1516:Drivers/STM32H7xx_HAL_Driver/Src/stm32h7xx_hal_flash_ex.c **** static void FLASH_OB_BootAddConfig(uint32_t BootOption, uint32_t BootAddress0, uint32_t BootAddress
 1061              		.loc 1 1516 13 view .LVU374
 1062              	.LBB87:
1517:Drivers/STM32H7xx_HAL_Driver/Src/stm32h7xx_hal_flash_ex.c **** {
1518:Drivers/STM32H7xx_HAL_Driver/Src/stm32h7xx_hal_flash_ex.c ****   /* Check the parameters */
1519:Drivers/STM32H7xx_HAL_Driver/Src/stm32h7xx_hal_flash_ex.c ****   assert_param(IS_OB_BOOT_ADD_OPTION(BootOption));
 1063              		.loc 1 1519 3 view .LVU375
1520:Drivers/STM32H7xx_HAL_Driver/Src/stm32h7xx_hal_flash_ex.c **** 
1521:Drivers/STM32H7xx_HAL_Driver/Src/stm32h7xx_hal_flash_ex.c ****   if((BootOption & OB_BOOT_ADD0) == OB_BOOT_ADD0)
 1064              		.loc 1 1521 3 view .LVU376
 1065              		.loc 1 1521 5 is_stmt 0 view .LVU377
 1066 00a0 CE07     		lsls	r6, r1, #31
 1067 00a2 0AD5     		bpl	.L138
1522:Drivers/STM32H7xx_HAL_Driver/Src/stm32h7xx_hal_flash_ex.c ****   {
1523:Drivers/STM32H7xx_HAL_Driver/Src/stm32h7xx_hal_flash_ex.c ****     /* Check the parameters */
1524:Drivers/STM32H7xx_HAL_Driver/Src/stm32h7xx_hal_flash_ex.c ****     assert_param(IS_BOOT_ADDRESS(BootAddress0));
 1068              		.loc 1 1524 5 is_stmt 1 view .LVU378
1525:Drivers/STM32H7xx_HAL_Driver/Src/stm32h7xx_hal_flash_ex.c **** 
1526:Drivers/STM32H7xx_HAL_Driver/Src/stm32h7xx_hal_flash_ex.c ****     /* Configure CM7 BOOT ADD0 */
1527:Drivers/STM32H7xx_HAL_Driver/Src/stm32h7xx_hal_flash_ex.c **** #if defined(DUAL_CORE)
1528:Drivers/STM32H7xx_HAL_Driver/Src/stm32h7xx_hal_flash_ex.c ****     MODIFY_REG(FLASH->BOOT7_PRG, FLASH_BOOT7_BCM7_ADD0, (BootAddress0 >> 16));
1529:Drivers/STM32H7xx_HAL_Driver/Src/stm32h7xx_hal_flash_ex.c **** #else /* Single Core*/
1530:Drivers/STM32H7xx_HAL_Driver/Src/stm32h7xx_hal_flash_ex.c ****     MODIFY_REG(FLASH->BOOT_PRG, FLASH_BOOT_ADD0, (BootAddress0 >> 16));
 1069              		.loc 1 1530 5 view .LVU379
ARM GAS  C:\Users\MadeuxS\AppData\Local\Temp\ccAPGHhR.s 			page 52


 1070 00a4 DFF88CC1 		ldr	ip, .L212+4
 1071 00a8 634A     		ldr	r2, .L212+8
 1072 00aa DCF844E0 		ldr	lr, [ip, #68]
 1073 00ae 6E8E     		ldrh	r6, [r5, #50]
 1074 00b0 0EEA0202 		and	r2, lr, r2
 1075 00b4 1643     		orrs	r6, r6, r2
 1076 00b6 CCF84460 		str	r6, [ip, #68]
 1077              	.LVL79:
 1078              	.L138:
1531:Drivers/STM32H7xx_HAL_Driver/Src/stm32h7xx_hal_flash_ex.c **** #endif /* DUAL_CORE */
1532:Drivers/STM32H7xx_HAL_Driver/Src/stm32h7xx_hal_flash_ex.c ****   }
1533:Drivers/STM32H7xx_HAL_Driver/Src/stm32h7xx_hal_flash_ex.c **** 
1534:Drivers/STM32H7xx_HAL_Driver/Src/stm32h7xx_hal_flash_ex.c ****   if((BootOption & OB_BOOT_ADD1) == OB_BOOT_ADD1)
 1079              		.loc 1 1534 3 view .LVU380
 1080              		.loc 1 1534 5 is_stmt 0 view .LVU381
 1081 00ba 8A07     		lsls	r2, r1, #30
 1082 00bc 04D5     		bpl	.L137
1535:Drivers/STM32H7xx_HAL_Driver/Src/stm32h7xx_hal_flash_ex.c ****   {
1536:Drivers/STM32H7xx_HAL_Driver/Src/stm32h7xx_hal_flash_ex.c ****     /* Check the parameters */
1537:Drivers/STM32H7xx_HAL_Driver/Src/stm32h7xx_hal_flash_ex.c ****     assert_param(IS_BOOT_ADDRESS(BootAddress1));
 1083              		.loc 1 1537 5 is_stmt 1 view .LVU382
1538:Drivers/STM32H7xx_HAL_Driver/Src/stm32h7xx_hal_flash_ex.c **** 
1539:Drivers/STM32H7xx_HAL_Driver/Src/stm32h7xx_hal_flash_ex.c ****     /* Configure CM7 BOOT ADD1 */
1540:Drivers/STM32H7xx_HAL_Driver/Src/stm32h7xx_hal_flash_ex.c **** #if defined(DUAL_CORE)
1541:Drivers/STM32H7xx_HAL_Driver/Src/stm32h7xx_hal_flash_ex.c ****     MODIFY_REG(FLASH->BOOT7_PRG, FLASH_BOOT7_BCM7_ADD1, BootAddress1);
1542:Drivers/STM32H7xx_HAL_Driver/Src/stm32h7xx_hal_flash_ex.c **** #else /* Single Core*/
1543:Drivers/STM32H7xx_HAL_Driver/Src/stm32h7xx_hal_flash_ex.c ****     MODIFY_REG(FLASH->BOOT_PRG, FLASH_BOOT_ADD1, BootAddress1);
 1084              		.loc 1 1543 5 view .LVU383
 1085 00be 5D49     		ldr	r1, .L212+4
 1086              	.LVL80:
 1087              		.loc 1 1543 5 is_stmt 0 view .LVU384
 1088 00c0 4A6C     		ldr	r2, [r1, #68]
 1089 00c2 92B2     		uxth	r2, r2
 1090 00c4 3A43     		orrs	r2, r2, r7
 1091 00c6 4A64     		str	r2, [r1, #68]
 1092              	.LVL81:
 1093              	.L137:
 1094              		.loc 1 1543 5 view .LVU385
 1095              	.LBE87:
 1096              	.LBE86:
 514:Drivers/STM32H7xx_HAL_Driver/Src/stm32h7xx_hal_flash_ex.c ****     {
 1097              		.loc 1 514 5 is_stmt 1 view .LVU386
 514:Drivers/STM32H7xx_HAL_Driver/Src/stm32h7xx_hal_flash_ex.c ****     {
 1098              		.loc 1 514 7 is_stmt 0 view .LVU387
 1099 00c8 9B06     		lsls	r3, r3, #26
 1100 00ca AAD5     		bpl	.L112
 516:Drivers/STM32H7xx_HAL_Driver/Src/stm32h7xx_hal_flash_ex.c ****     }
 1101              		.loc 1 516 7 is_stmt 1 view .LVU388
 1102 00cc EE69     		ldr	r6, [r5, #28]
 1103 00ce 2A6C     		ldr	r2, [r5, #64]
 1104              	.LBB88:
 1105              	.LBB89:
1544:Drivers/STM32H7xx_HAL_Driver/Src/stm32h7xx_hal_flash_ex.c **** #endif /* DUAL_CORE */
1545:Drivers/STM32H7xx_HAL_Driver/Src/stm32h7xx_hal_flash_ex.c ****   }
1546:Drivers/STM32H7xx_HAL_Driver/Src/stm32h7xx_hal_flash_ex.c **** }
1547:Drivers/STM32H7xx_HAL_Driver/Src/stm32h7xx_hal_flash_ex.c **** 
1548:Drivers/STM32H7xx_HAL_Driver/Src/stm32h7xx_hal_flash_ex.c **** /**
ARM GAS  C:\Users\MadeuxS\AppData\Local\Temp\ccAPGHhR.s 			page 53


1549:Drivers/STM32H7xx_HAL_Driver/Src/stm32h7xx_hal_flash_ex.c ****   * @brief  Get Boot address
1550:Drivers/STM32H7xx_HAL_Driver/Src/stm32h7xx_hal_flash_ex.c ****   * @param  BootAddress0 Specifies the Boot Address 0.
1551:Drivers/STM32H7xx_HAL_Driver/Src/stm32h7xx_hal_flash_ex.c ****   * @param  BootAddress1 Specifies the Boot Address 1.
1552:Drivers/STM32H7xx_HAL_Driver/Src/stm32h7xx_hal_flash_ex.c ****   * @retval HAL Status
1553:Drivers/STM32H7xx_HAL_Driver/Src/stm32h7xx_hal_flash_ex.c ****   */
1554:Drivers/STM32H7xx_HAL_Driver/Src/stm32h7xx_hal_flash_ex.c **** static void FLASH_OB_GetBootAdd(uint32_t *BootAddress0, uint32_t *BootAddress1)
1555:Drivers/STM32H7xx_HAL_Driver/Src/stm32h7xx_hal_flash_ex.c **** {
1556:Drivers/STM32H7xx_HAL_Driver/Src/stm32h7xx_hal_flash_ex.c ****   uint32_t regvalue;
1557:Drivers/STM32H7xx_HAL_Driver/Src/stm32h7xx_hal_flash_ex.c **** 
1558:Drivers/STM32H7xx_HAL_Driver/Src/stm32h7xx_hal_flash_ex.c **** #if defined(DUAL_CORE)
1559:Drivers/STM32H7xx_HAL_Driver/Src/stm32h7xx_hal_flash_ex.c ****   regvalue = FLASH->BOOT7_CUR;
1560:Drivers/STM32H7xx_HAL_Driver/Src/stm32h7xx_hal_flash_ex.c **** 
1561:Drivers/STM32H7xx_HAL_Driver/Src/stm32h7xx_hal_flash_ex.c ****   (*BootAddress0) = (regvalue & FLASH_BOOT7_BCM7_ADD0) << 16;
1562:Drivers/STM32H7xx_HAL_Driver/Src/stm32h7xx_hal_flash_ex.c ****   (*BootAddress1) = (regvalue & FLASH_BOOT7_BCM7_ADD1);
1563:Drivers/STM32H7xx_HAL_Driver/Src/stm32h7xx_hal_flash_ex.c **** #else /* Single Core */
1564:Drivers/STM32H7xx_HAL_Driver/Src/stm32h7xx_hal_flash_ex.c ****   regvalue = FLASH->BOOT_CUR;
1565:Drivers/STM32H7xx_HAL_Driver/Src/stm32h7xx_hal_flash_ex.c **** 
1566:Drivers/STM32H7xx_HAL_Driver/Src/stm32h7xx_hal_flash_ex.c ****   (*BootAddress0) = (regvalue & FLASH_BOOT_ADD0) << 16;
1567:Drivers/STM32H7xx_HAL_Driver/Src/stm32h7xx_hal_flash_ex.c ****   (*BootAddress1) = (regvalue & FLASH_BOOT_ADD1);
1568:Drivers/STM32H7xx_HAL_Driver/Src/stm32h7xx_hal_flash_ex.c **** #endif /* DUAL_CORE */
1569:Drivers/STM32H7xx_HAL_Driver/Src/stm32h7xx_hal_flash_ex.c **** }
1570:Drivers/STM32H7xx_HAL_Driver/Src/stm32h7xx_hal_flash_ex.c **** 
1571:Drivers/STM32H7xx_HAL_Driver/Src/stm32h7xx_hal_flash_ex.c **** #if defined(DUAL_CORE)
1572:Drivers/STM32H7xx_HAL_Driver/Src/stm32h7xx_hal_flash_ex.c **** /**
1573:Drivers/STM32H7xx_HAL_Driver/Src/stm32h7xx_hal_flash_ex.c ****   * @brief  Set CM4 Boot address
1574:Drivers/STM32H7xx_HAL_Driver/Src/stm32h7xx_hal_flash_ex.c ****   * @param  BootOption Boot address option byte to be programmed,
1575:Drivers/STM32H7xx_HAL_Driver/Src/stm32h7xx_hal_flash_ex.c ****   *                     This parameter must be a value of @ref FLASHEx_OB_BOOT_OPTION
1576:Drivers/STM32H7xx_HAL_Driver/Src/stm32h7xx_hal_flash_ex.c ****                         (OB_BOOT_ADD0, OB_BOOT_ADD1 or OB_BOOT_ADD_BOTH)
1577:Drivers/STM32H7xx_HAL_Driver/Src/stm32h7xx_hal_flash_ex.c ****   *
1578:Drivers/STM32H7xx_HAL_Driver/Src/stm32h7xx_hal_flash_ex.c ****   * @param  BootAddress0 Specifies the CM4 Boot Address 0.
1579:Drivers/STM32H7xx_HAL_Driver/Src/stm32h7xx_hal_flash_ex.c ****   * @param  BootAddress1 Specifies the CM4 Boot Address 1.
1580:Drivers/STM32H7xx_HAL_Driver/Src/stm32h7xx_hal_flash_ex.c ****   * @retval HAL Status
1581:Drivers/STM32H7xx_HAL_Driver/Src/stm32h7xx_hal_flash_ex.c ****   */
1582:Drivers/STM32H7xx_HAL_Driver/Src/stm32h7xx_hal_flash_ex.c **** static void FLASH_OB_CM4BootAddConfig(uint32_t BootOption, uint32_t BootAddress0, uint32_t BootAddr
1583:Drivers/STM32H7xx_HAL_Driver/Src/stm32h7xx_hal_flash_ex.c **** {
1584:Drivers/STM32H7xx_HAL_Driver/Src/stm32h7xx_hal_flash_ex.c ****   /* Check the parameters */
1585:Drivers/STM32H7xx_HAL_Driver/Src/stm32h7xx_hal_flash_ex.c ****   assert_param(IS_OB_BOOT_ADD_OPTION(BootOption));
1586:Drivers/STM32H7xx_HAL_Driver/Src/stm32h7xx_hal_flash_ex.c **** 
1587:Drivers/STM32H7xx_HAL_Driver/Src/stm32h7xx_hal_flash_ex.c ****   if((BootOption & OB_BOOT_ADD0) == OB_BOOT_ADD0)
1588:Drivers/STM32H7xx_HAL_Driver/Src/stm32h7xx_hal_flash_ex.c ****   {
1589:Drivers/STM32H7xx_HAL_Driver/Src/stm32h7xx_hal_flash_ex.c ****     /* Check the parameters */
1590:Drivers/STM32H7xx_HAL_Driver/Src/stm32h7xx_hal_flash_ex.c ****     assert_param(IS_BOOT_ADDRESS(BootAddress0));
1591:Drivers/STM32H7xx_HAL_Driver/Src/stm32h7xx_hal_flash_ex.c **** 
1592:Drivers/STM32H7xx_HAL_Driver/Src/stm32h7xx_hal_flash_ex.c ****     /* Configure CM4 BOOT ADD0 */
1593:Drivers/STM32H7xx_HAL_Driver/Src/stm32h7xx_hal_flash_ex.c ****     MODIFY_REG(FLASH->BOOT4_PRG, FLASH_BOOT4_BCM4_ADD0, (BootAddress0 >> 16));
1594:Drivers/STM32H7xx_HAL_Driver/Src/stm32h7xx_hal_flash_ex.c **** 
1595:Drivers/STM32H7xx_HAL_Driver/Src/stm32h7xx_hal_flash_ex.c ****   }
1596:Drivers/STM32H7xx_HAL_Driver/Src/stm32h7xx_hal_flash_ex.c **** 
1597:Drivers/STM32H7xx_HAL_Driver/Src/stm32h7xx_hal_flash_ex.c ****   if((BootOption & OB_BOOT_ADD1) == OB_BOOT_ADD1)
1598:Drivers/STM32H7xx_HAL_Driver/Src/stm32h7xx_hal_flash_ex.c ****   {
1599:Drivers/STM32H7xx_HAL_Driver/Src/stm32h7xx_hal_flash_ex.c ****     /* Check the parameters */
1600:Drivers/STM32H7xx_HAL_Driver/Src/stm32h7xx_hal_flash_ex.c ****     assert_param(IS_BOOT_ADDRESS(BootAddress1));
1601:Drivers/STM32H7xx_HAL_Driver/Src/stm32h7xx_hal_flash_ex.c **** 
1602:Drivers/STM32H7xx_HAL_Driver/Src/stm32h7xx_hal_flash_ex.c ****     /* Configure CM4 BOOT ADD1 */
1603:Drivers/STM32H7xx_HAL_Driver/Src/stm32h7xx_hal_flash_ex.c ****     MODIFY_REG(FLASH->BOOT4_PRG, FLASH_BOOT4_BCM4_ADD1, BootAddress1);
1604:Drivers/STM32H7xx_HAL_Driver/Src/stm32h7xx_hal_flash_ex.c ****   }
1605:Drivers/STM32H7xx_HAL_Driver/Src/stm32h7xx_hal_flash_ex.c **** }
ARM GAS  C:\Users\MadeuxS\AppData\Local\Temp\ccAPGHhR.s 			page 54


1606:Drivers/STM32H7xx_HAL_Driver/Src/stm32h7xx_hal_flash_ex.c **** 
1607:Drivers/STM32H7xx_HAL_Driver/Src/stm32h7xx_hal_flash_ex.c **** /**
1608:Drivers/STM32H7xx_HAL_Driver/Src/stm32h7xx_hal_flash_ex.c ****   * @brief  Get CM4 Boot address
1609:Drivers/STM32H7xx_HAL_Driver/Src/stm32h7xx_hal_flash_ex.c ****   * @param  BootAddress0 Specifies the CM4 Boot Address 0.
1610:Drivers/STM32H7xx_HAL_Driver/Src/stm32h7xx_hal_flash_ex.c ****   * @param  BootAddress1 Specifies the CM4 Boot Address 1.
1611:Drivers/STM32H7xx_HAL_Driver/Src/stm32h7xx_hal_flash_ex.c ****   * @retval HAL Status
1612:Drivers/STM32H7xx_HAL_Driver/Src/stm32h7xx_hal_flash_ex.c ****   */
1613:Drivers/STM32H7xx_HAL_Driver/Src/stm32h7xx_hal_flash_ex.c **** static void FLASH_OB_GetCM4BootAdd(uint32_t *BootAddress0, uint32_t *BootAddress1)
1614:Drivers/STM32H7xx_HAL_Driver/Src/stm32h7xx_hal_flash_ex.c **** {
1615:Drivers/STM32H7xx_HAL_Driver/Src/stm32h7xx_hal_flash_ex.c ****   uint32_t regvalue;
1616:Drivers/STM32H7xx_HAL_Driver/Src/stm32h7xx_hal_flash_ex.c **** 
1617:Drivers/STM32H7xx_HAL_Driver/Src/stm32h7xx_hal_flash_ex.c ****   regvalue = FLASH->BOOT4_CUR;
1618:Drivers/STM32H7xx_HAL_Driver/Src/stm32h7xx_hal_flash_ex.c **** 
1619:Drivers/STM32H7xx_HAL_Driver/Src/stm32h7xx_hal_flash_ex.c ****   (*BootAddress0) = (regvalue & FLASH_BOOT4_BCM4_ADD0) << 16;
1620:Drivers/STM32H7xx_HAL_Driver/Src/stm32h7xx_hal_flash_ex.c ****   (*BootAddress1) = (regvalue & FLASH_BOOT4_BCM4_ADD1);
1621:Drivers/STM32H7xx_HAL_Driver/Src/stm32h7xx_hal_flash_ex.c **** }
1622:Drivers/STM32H7xx_HAL_Driver/Src/stm32h7xx_hal_flash_ex.c **** #endif /*DUAL_CORE*/
1623:Drivers/STM32H7xx_HAL_Driver/Src/stm32h7xx_hal_flash_ex.c **** 
1624:Drivers/STM32H7xx_HAL_Driver/Src/stm32h7xx_hal_flash_ex.c **** /**
1625:Drivers/STM32H7xx_HAL_Driver/Src/stm32h7xx_hal_flash_ex.c ****   * @brief  Set secure area configuration
1626:Drivers/STM32H7xx_HAL_Driver/Src/stm32h7xx_hal_flash_ex.c ****   * @param  SecureAreaConfig specify if the secure area will be deleted or not
1627:Drivers/STM32H7xx_HAL_Driver/Src/stm32h7xx_hal_flash_ex.c ****   *         when RDP level decreased from Level 1 to Level 0 or during a mass erase.
1628:Drivers/STM32H7xx_HAL_Driver/Src/stm32h7xx_hal_flash_ex.c ****   *
1629:Drivers/STM32H7xx_HAL_Driver/Src/stm32h7xx_hal_flash_ex.c ****   * @param  SecureAreaStartAddr Specifies the secure area start address
1630:Drivers/STM32H7xx_HAL_Driver/Src/stm32h7xx_hal_flash_ex.c ****   * @param  SecureAreaEndAddr Specifies the secure area end address
1631:Drivers/STM32H7xx_HAL_Driver/Src/stm32h7xx_hal_flash_ex.c ****   * @param  Banks the specific bank to apply Security protection
1632:Drivers/STM32H7xx_HAL_Driver/Src/stm32h7xx_hal_flash_ex.c ****   *          This parameter can be one of the following values:
1633:Drivers/STM32H7xx_HAL_Driver/Src/stm32h7xx_hal_flash_ex.c ****   *            @arg FLASH_BANK_1: Secure area on specified bank1 area
1634:Drivers/STM32H7xx_HAL_Driver/Src/stm32h7xx_hal_flash_ex.c ****   *            @arg FLASH_BANK_2: Secure area on specified bank2 area
1635:Drivers/STM32H7xx_HAL_Driver/Src/stm32h7xx_hal_flash_ex.c ****   *            @arg FLASH_BANK_BOTH: Secure area on specified bank1 and bank2 area (same config wil
1636:Drivers/STM32H7xx_HAL_Driver/Src/stm32h7xx_hal_flash_ex.c ****   * @retval None
1637:Drivers/STM32H7xx_HAL_Driver/Src/stm32h7xx_hal_flash_ex.c ****   */
1638:Drivers/STM32H7xx_HAL_Driver/Src/stm32h7xx_hal_flash_ex.c **** static void FLASH_OB_SecureAreaConfig(uint32_t SecureAreaConfig, uint32_t SecureAreaStartAddr, uint
1639:Drivers/STM32H7xx_HAL_Driver/Src/stm32h7xx_hal_flash_ex.c **** {
1640:Drivers/STM32H7xx_HAL_Driver/Src/stm32h7xx_hal_flash_ex.c ****   /* Check the parameters */
1641:Drivers/STM32H7xx_HAL_Driver/Src/stm32h7xx_hal_flash_ex.c ****   assert_param(IS_FLASH_BANK(Banks));
1642:Drivers/STM32H7xx_HAL_Driver/Src/stm32h7xx_hal_flash_ex.c ****   assert_param(IS_OB_SECURE_RDP(SecureAreaConfig));
1643:Drivers/STM32H7xx_HAL_Driver/Src/stm32h7xx_hal_flash_ex.c **** 
1644:Drivers/STM32H7xx_HAL_Driver/Src/stm32h7xx_hal_flash_ex.c ****   if((Banks & FLASH_BANK_1) == FLASH_BANK_1)
 1106              		.loc 1 1644 5 is_stmt 0 view .LVU389
 1107 00d0 F707     		lsls	r7, r6, #31
 1108              	.LBE89:
 1109              	.LBE88:
 516:Drivers/STM32H7xx_HAL_Driver/Src/stm32h7xx_hal_flash_ex.c ****     }
 1110              		.loc 1 516 7 view .LVU390
 1111 00d2 D5E90E31 		ldrd	r3, r1, [r5, #56]
 1112              	.LVL82:
 1113              	.LBB91:
 1114              	.LBI88:
1638:Drivers/STM32H7xx_HAL_Driver/Src/stm32h7xx_hal_flash_ex.c **** {
 1115              		.loc 1 1638 13 is_stmt 1 view .LVU391
 1116              	.LBB90:
1641:Drivers/STM32H7xx_HAL_Driver/Src/stm32h7xx_hal_flash_ex.c ****   assert_param(IS_OB_SECURE_RDP(SecureAreaConfig));
 1117              		.loc 1 1641 3 view .LVU392
1642:Drivers/STM32H7xx_HAL_Driver/Src/stm32h7xx_hal_flash_ex.c **** 
 1118              		.loc 1 1642 3 view .LVU393
 1119              		.loc 1 1644 3 view .LVU394
ARM GAS  C:\Users\MadeuxS\AppData\Local\Temp\ccAPGHhR.s 			page 55


 1120              		.loc 1 1644 5 is_stmt 0 view .LVU395
 1121 00d6 0DD5     		bpl	.L141
1645:Drivers/STM32H7xx_HAL_Driver/Src/stm32h7xx_hal_flash_ex.c ****   {
1646:Drivers/STM32H7xx_HAL_Driver/Src/stm32h7xx_hal_flash_ex.c ****     /* Check the parameters */
1647:Drivers/STM32H7xx_HAL_Driver/Src/stm32h7xx_hal_flash_ex.c ****     assert_param(IS_FLASH_PROGRAM_ADDRESS_BANK1(SecureAreaStartAddr));
 1122              		.loc 1 1647 5 is_stmt 1 view .LVU396
1648:Drivers/STM32H7xx_HAL_Driver/Src/stm32h7xx_hal_flash_ex.c ****     assert_param(IS_FLASH_PROGRAM_ADDRESS_BANK1(SecureAreaEndAddr));
 1123              		.loc 1 1648 5 view .LVU397
1649:Drivers/STM32H7xx_HAL_Driver/Src/stm32h7xx_hal_flash_ex.c **** 
1650:Drivers/STM32H7xx_HAL_Driver/Src/stm32h7xx_hal_flash_ex.c ****     /* Configure the secure area */
1651:Drivers/STM32H7xx_HAL_Driver/Src/stm32h7xx_hal_flash_ex.c ****     FLASH->SCAR_PRG1 = ((SecureAreaStartAddr - FLASH_BANK1_BASE) >> 8)                             
 1124              		.loc 1 1651 5 view .LVU398
1652:Drivers/STM32H7xx_HAL_Driver/Src/stm32h7xx_hal_flash_ex.c ****                        (((SecureAreaEndAddr - FLASH_BANK1_BASE) >> 8) << FLASH_SCAR_SEC_AREA_END_Po
1653:Drivers/STM32H7xx_HAL_Driver/Src/stm32h7xx_hal_flash_ex.c ****                        (SecureAreaConfig & FLASH_SCAR_DMES);
 1125              		.loc 1 1653 42 is_stmt 0 view .LVU399
 1126 00d8 03F0004C 		and	ip, r3, #-2147483648
1651:Drivers/STM32H7xx_HAL_Driver/Src/stm32h7xx_hal_flash_ex.c ****                        (((SecureAreaEndAddr - FLASH_BANK1_BASE) >> 8) << FLASH_SCAR_SEC_AREA_END_Po
 1127              		.loc 1 1651 46 view .LVU400
 1128 00dc 01F17845 		add	r5, r1, #-134217728
 1129              	.LVL83:
1652:Drivers/STM32H7xx_HAL_Driver/Src/stm32h7xx_hal_flash_ex.c ****                        (((SecureAreaEndAddr - FLASH_BANK1_BASE) >> 8) << FLASH_SCAR_SEC_AREA_END_Po
 1130              		.loc 1 1652 71 view .LVU401
 1131 00e0 554F     		ldr	r7, .L212+8
1652:Drivers/STM32H7xx_HAL_Driver/Src/stm32h7xx_hal_flash_ex.c ****                        (((SecureAreaEndAddr - FLASH_BANK1_BASE) >> 8) << FLASH_SCAR_SEC_AREA_END_Po
 1132              		.loc 1 1652 103 view .LVU402
 1133 00e2 4CEA1525 		orr	r5, ip, r5, lsr #8
1652:Drivers/STM32H7xx_HAL_Driver/Src/stm32h7xx_hal_flash_ex.c ****                        (((SecureAreaEndAddr - FLASH_BANK1_BASE) >> 8) << FLASH_SCAR_SEC_AREA_END_Po
 1134              		.loc 1 1652 65 view .LVU403
 1135 00e6 4FEA022C 		lsl	ip, r2, #8
1652:Drivers/STM32H7xx_HAL_Driver/Src/stm32h7xx_hal_flash_ex.c ****                        (((SecureAreaEndAddr - FLASH_BANK1_BASE) >> 8) << FLASH_SCAR_SEC_AREA_END_Po
 1136              		.loc 1 1652 71 view .LVU404
 1137 00ea 0CEA0707 		and	r7, ip, r7
1652:Drivers/STM32H7xx_HAL_Driver/Src/stm32h7xx_hal_flash_ex.c ****                        (((SecureAreaEndAddr - FLASH_BANK1_BASE) >> 8) << FLASH_SCAR_SEC_AREA_END_Po
 1138              		.loc 1 1652 103 view .LVU405
 1139 00ee 3D43     		orrs	r5, r5, r7
1651:Drivers/STM32H7xx_HAL_Driver/Src/stm32h7xx_hal_flash_ex.c ****                        (((SecureAreaEndAddr - FLASH_BANK1_BASE) >> 8) << FLASH_SCAR_SEC_AREA_END_Po
 1140              		.loc 1 1651 22 view .LVU406
 1141 00f0 504F     		ldr	r7, .L212+4
 1142 00f2 7D63     		str	r5, [r7, #52]
 1143              	.L141:
1654:Drivers/STM32H7xx_HAL_Driver/Src/stm32h7xx_hal_flash_ex.c ****   }
1655:Drivers/STM32H7xx_HAL_Driver/Src/stm32h7xx_hal_flash_ex.c **** 
1656:Drivers/STM32H7xx_HAL_Driver/Src/stm32h7xx_hal_flash_ex.c **** #if defined (DUAL_BANK)
1657:Drivers/STM32H7xx_HAL_Driver/Src/stm32h7xx_hal_flash_ex.c ****   if((Banks & FLASH_BANK_2) == FLASH_BANK_2)
 1144              		.loc 1 1657 3 is_stmt 1 view .LVU407
 1145              		.loc 1 1657 5 is_stmt 0 view .LVU408
 1146 00f4 B507     		lsls	r5, r6, #30
 1147 00f6 94D5     		bpl	.L112
1658:Drivers/STM32H7xx_HAL_Driver/Src/stm32h7xx_hal_flash_ex.c ****   {
1659:Drivers/STM32H7xx_HAL_Driver/Src/stm32h7xx_hal_flash_ex.c ****     /* Check the parameters */
1660:Drivers/STM32H7xx_HAL_Driver/Src/stm32h7xx_hal_flash_ex.c ****     assert_param(IS_FLASH_PROGRAM_ADDRESS_BANK2(SecureAreaStartAddr));
 1148              		.loc 1 1660 5 is_stmt 1 view .LVU409
1661:Drivers/STM32H7xx_HAL_Driver/Src/stm32h7xx_hal_flash_ex.c ****     assert_param(IS_FLASH_PROGRAM_ADDRESS_BANK2(SecureAreaEndAddr));
 1149              		.loc 1 1661 5 view .LVU410
1662:Drivers/STM32H7xx_HAL_Driver/Src/stm32h7xx_hal_flash_ex.c **** 
1663:Drivers/STM32H7xx_HAL_Driver/Src/stm32h7xx_hal_flash_ex.c ****     /* Configure the secure area */
1664:Drivers/STM32H7xx_HAL_Driver/Src/stm32h7xx_hal_flash_ex.c ****     FLASH->SCAR_PRG2 = ((SecureAreaStartAddr - FLASH_BANK2_BASE) >> 8)                             
ARM GAS  C:\Users\MadeuxS\AppData\Local\Temp\ccAPGHhR.s 			page 56


 1150              		.loc 1 1664 5 view .LVU411
 1151              		.loc 1 1664 46 is_stmt 0 view .LVU412
 1152 00f8 A1F10161 		sub	r1, r1, #135266304
 1153              	.LVL84:
1665:Drivers/STM32H7xx_HAL_Driver/Src/stm32h7xx_hal_flash_ex.c ****                        (((SecureAreaEndAddr - FLASH_BANK2_BASE) >> 8) << FLASH_SCAR_SEC_AREA_END_Po
1666:Drivers/STM32H7xx_HAL_Driver/Src/stm32h7xx_hal_flash_ex.c ****                        (SecureAreaConfig & FLASH_SCAR_DMES);
 1154              		.loc 1 1666 42 view .LVU413
 1155 00fc 03F00043 		and	r3, r3, #-2147483648
 1156              	.LVL85:
1665:Drivers/STM32H7xx_HAL_Driver/Src/stm32h7xx_hal_flash_ex.c ****                        (((SecureAreaEndAddr - FLASH_BANK2_BASE) >> 8) << FLASH_SCAR_SEC_AREA_END_Po
 1157              		.loc 1 1665 45 view .LVU414
 1158 0100 A2F10162 		sub	r2, r2, #135266304
 1159              	.LVL86:
1665:Drivers/STM32H7xx_HAL_Driver/Src/stm32h7xx_hal_flash_ex.c ****                        (((SecureAreaEndAddr - FLASH_BANK2_BASE) >> 8) << FLASH_SCAR_SEC_AREA_END_Po
 1160              		.loc 1 1665 103 view .LVU415
 1161 0104 43EA1123 		orr	r3, r3, r1, lsr #8
1664:Drivers/STM32H7xx_HAL_Driver/Src/stm32h7xx_hal_flash_ex.c ****                        (((SecureAreaEndAddr - FLASH_BANK2_BASE) >> 8) << FLASH_SCAR_SEC_AREA_END_Po
 1162              		.loc 1 1664 22 view .LVU416
 1163 0108 4A49     		ldr	r1, .L212+4
 1164              	.LVL87:
1665:Drivers/STM32H7xx_HAL_Driver/Src/stm32h7xx_hal_flash_ex.c ****                        (((SecureAreaEndAddr - FLASH_BANK2_BASE) >> 8) << FLASH_SCAR_SEC_AREA_END_Po
 1165              		.loc 1 1665 65 view .LVU417
 1166 010a 120A     		lsrs	r2, r2, #8
 1167              	.LVL88:
1665:Drivers/STM32H7xx_HAL_Driver/Src/stm32h7xx_hal_flash_ex.c ****                        (((SecureAreaEndAddr - FLASH_BANK2_BASE) >> 8) << FLASH_SCAR_SEC_AREA_END_Po
 1168              		.loc 1 1665 103 view .LVU418
 1169 010c 43EA0243 		orr	r3, r3, r2, lsl #16
1664:Drivers/STM32H7xx_HAL_Driver/Src/stm32h7xx_hal_flash_ex.c ****                        (((SecureAreaEndAddr - FLASH_BANK2_BASE) >> 8) << FLASH_SCAR_SEC_AREA_END_Po
 1170              		.loc 1 1664 22 view .LVU419
 1171 0110 C1F83431 		str	r3, [r1, #308]
 1172 0114 85E7     		b	.L112
 1173              	.LVL89:
 1174              	.L143:
1664:Drivers/STM32H7xx_HAL_Driver/Src/stm32h7xx_hal_flash_ex.c ****                        (((SecureAreaEndAddr - FLASH_BANK2_BASE) >> 8) << FLASH_SCAR_SEC_AREA_END_Po
 1175              		.loc 1 1664 22 view .LVU420
 1176              	.LBE90:
 1177              	.LBE91:
 424:Drivers/STM32H7xx_HAL_Driver/Src/stm32h7xx_hal_flash_ex.c **** 
 1178              		.loc 1 424 3 view .LVU421
 1179 0116 0220     		movs	r0, #2
 1180              	.LVL90:
 548:Drivers/STM32H7xx_HAL_Driver/Src/stm32h7xx_hal_flash_ex.c **** 
 1181              		.loc 1 548 1 view .LVU422
 1182 0118 F8BD     		pop	{r3, r4, r5, r6, r7, pc}
 1183              	.LVL91:
 1184              	.L209:
 455:Drivers/STM32H7xx_HAL_Driver/Src/stm32h7xx_hal_flash_ex.c ****       }
 1185              		.loc 1 455 9 is_stmt 1 view .LVU423
 1186 011a EA69     		ldr	r2, [r5, #28]
 1187 011c A968     		ldr	r1, [r5, #8]
 1188              	.LVL92:
 1189              	.LBB92:
 1190              	.LBI92:
 984:Drivers/STM32H7xx_HAL_Driver/Src/stm32h7xx_hal_flash_ex.c **** {
 1191              		.loc 1 984 13 view .LVU424
 1192              	.LBB93:
 987:Drivers/STM32H7xx_HAL_Driver/Src/stm32h7xx_hal_flash_ex.c ****   assert_param(IS_FLASH_BANK(Banks));
ARM GAS  C:\Users\MadeuxS\AppData\Local\Temp\ccAPGHhR.s 			page 57


 1193              		.loc 1 987 3 view .LVU425
 988:Drivers/STM32H7xx_HAL_Driver/Src/stm32h7xx_hal_flash_ex.c **** 
 1194              		.loc 1 988 3 view .LVU426
 990:Drivers/STM32H7xx_HAL_Driver/Src/stm32h7xx_hal_flash_ex.c ****   {
 1195              		.loc 1 990 3 view .LVU427
 990:Drivers/STM32H7xx_HAL_Driver/Src/stm32h7xx_hal_flash_ex.c ****   {
 1196              		.loc 1 990 5 is_stmt 0 view .LVU428
 1197 011e D607     		lsls	r6, r2, #31
 1198 0120 08D5     		bpl	.L117
 993:Drivers/STM32H7xx_HAL_Driver/Src/stm32h7xx_hal_flash_ex.c ****   }
 1199              		.loc 1 993 5 is_stmt 1 view .LVU429
 993:Drivers/STM32H7xx_HAL_Driver/Src/stm32h7xx_hal_flash_ex.c ****   }
 1200              		.loc 1 993 22 is_stmt 0 view .LVU430
 1201 0122 DFF810C1 		ldr	ip, .L212+4
 993:Drivers/STM32H7xx_HAL_Driver/Src/stm32h7xx_hal_flash_ex.c ****   }
 1202              		.loc 1 993 38 view .LVU431
 1203 0126 CEB2     		uxtb	r6, r1
 993:Drivers/STM32H7xx_HAL_Driver/Src/stm32h7xx_hal_flash_ex.c ****   }
 1204              		.loc 1 993 22 view .LVU432
 1205 0128 DCF83C70 		ldr	r7, [ip, #60]
 1206 012c 27EA0606 		bic	r6, r7, r6
 1207 0130 CCF83C60 		str	r6, [ip, #60]
 1208              	.L117:
 997:Drivers/STM32H7xx_HAL_Driver/Src/stm32h7xx_hal_flash_ex.c ****   {
 1209              		.loc 1 997 3 is_stmt 1 view .LVU433
 997:Drivers/STM32H7xx_HAL_Driver/Src/stm32h7xx_hal_flash_ex.c ****   {
 1210              		.loc 1 997 5 is_stmt 0 view .LVU434
 1211 0134 9207     		lsls	r2, r2, #30
 1212              	.LVL93:
 997:Drivers/STM32H7xx_HAL_Driver/Src/stm32h7xx_hal_flash_ex.c ****   {
 1213              		.loc 1 997 5 view .LVU435
 1214 0136 98D5     		bpl	.L115
1000:Drivers/STM32H7xx_HAL_Driver/Src/stm32h7xx_hal_flash_ex.c ****   }
 1215              		.loc 1 1000 5 is_stmt 1 view .LVU436
1000:Drivers/STM32H7xx_HAL_Driver/Src/stm32h7xx_hal_flash_ex.c ****   }
 1216              		.loc 1 1000 22 is_stmt 0 view .LVU437
 1217 0138 3E4E     		ldr	r6, .L212+4
1000:Drivers/STM32H7xx_HAL_Driver/Src/stm32h7xx_hal_flash_ex.c ****   }
 1218              		.loc 1 1000 38 view .LVU438
 1219 013a C9B2     		uxtb	r1, r1
 1220              	.LVL94:
1000:Drivers/STM32H7xx_HAL_Driver/Src/stm32h7xx_hal_flash_ex.c ****   }
 1221              		.loc 1 1000 22 view .LVU439
 1222 013c D6F83C21 		ldr	r2, [r6, #316]
 1223 0140 22EA0101 		bic	r1, r2, r1
 1224 0144 C6F83C11 		str	r1, [r6, #316]
 1225 0148 8FE7     		b	.L115
 1226              	.L211:
1000:Drivers/STM32H7xx_HAL_Driver/Src/stm32h7xx_hal_flash_ex.c ****   }
 1227              		.loc 1 1000 22 view .LVU440
 1228              	.LBE93:
 1229              	.LBE92:
 481:Drivers/STM32H7xx_HAL_Driver/Src/stm32h7xx_hal_flash_ex.c **** 
 1230              		.loc 1 481 7 is_stmt 1 view .LVU441
 484:Drivers/STM32H7xx_HAL_Driver/Src/stm32h7xx_hal_flash_ex.c ****     }
 1231              		.loc 1 484 7 view .LVU442
 1232 014a D5E90772 		ldrd	r7, r2, [r5, #28]
ARM GAS  C:\Users\MadeuxS\AppData\Local\Temp\ccAPGHhR.s 			page 58


 1233              	.LVL95:
 484:Drivers/STM32H7xx_HAL_Driver/Src/stm32h7xx_hal_flash_ex.c ****     }
 1234              		.loc 1 484 7 is_stmt 0 view .LVU443
 1235 014e D5E90961 		ldrd	r6, r1, [r5, #36]
 1236              	.LVL96:
 1237              	.LBB94:
 1238              	.LBI94:
1399:Drivers/STM32H7xx_HAL_Driver/Src/stm32h7xx_hal_flash_ex.c **** {
 1239              		.loc 1 1399 13 is_stmt 1 view .LVU444
 1240              	.LBB95:
1402:Drivers/STM32H7xx_HAL_Driver/Src/stm32h7xx_hal_flash_ex.c ****   assert_param(IS_OB_PCROP_RDP(PCROPConfig));
 1241              		.loc 1 1402 3 view .LVU445
1403:Drivers/STM32H7xx_HAL_Driver/Src/stm32h7xx_hal_flash_ex.c **** 
 1242              		.loc 1 1403 3 view .LVU446
1405:Drivers/STM32H7xx_HAL_Driver/Src/stm32h7xx_hal_flash_ex.c ****   {
 1243              		.loc 1 1405 3 view .LVU447
1405:Drivers/STM32H7xx_HAL_Driver/Src/stm32h7xx_hal_flash_ex.c ****   {
 1244              		.loc 1 1405 5 is_stmt 0 view .LVU448
 1245 0152 17F0010F 		tst	r7, #1
 1246 0156 0FD0     		beq	.L133
1407:Drivers/STM32H7xx_HAL_Driver/Src/stm32h7xx_hal_flash_ex.c ****     assert_param(IS_FLASH_PROGRAM_ADDRESS_BANK1(PCROPEndAddr));
 1247              		.loc 1 1407 5 is_stmt 1 view .LVU449
1408:Drivers/STM32H7xx_HAL_Driver/Src/stm32h7xx_hal_flash_ex.c **** 
 1248              		.loc 1 1408 5 view .LVU450
1411:Drivers/STM32H7xx_HAL_Driver/Src/stm32h7xx_hal_flash_ex.c ****                        (((PCROPEndAddr - FLASH_BANK1_BASE) >> 8) << FLASH_PRAR_PROT_AREA_END_Pos) |
 1249              		.loc 1 1411 5 view .LVU451
1412:Drivers/STM32H7xx_HAL_Driver/Src/stm32h7xx_hal_flash_ex.c ****                        PCROPConfig;
 1250              		.loc 1 1412 60 is_stmt 0 view .LVU452
 1251 0158 4FEA012E 		lsl	lr, r1, #8
1412:Drivers/STM32H7xx_HAL_Driver/Src/stm32h7xx_hal_flash_ex.c ****                        PCROPConfig;
 1252              		.loc 1 1412 66 view .LVU453
 1253 015c DFF8D8C0 		ldr	ip, .L212+8
 1254 0160 0EEA0C0C 		and	ip, lr, ip
1411:Drivers/STM32H7xx_HAL_Driver/Src/stm32h7xx_hal_flash_ex.c ****                        (((PCROPEndAddr - FLASH_BANK1_BASE) >> 8) << FLASH_PRAR_PROT_AREA_END_Pos) |
 1255              		.loc 1 1411 41 view .LVU454
 1256 0164 06F1784E 		add	lr, r6, #-134217728
1412:Drivers/STM32H7xx_HAL_Driver/Src/stm32h7xx_hal_flash_ex.c ****                        PCROPConfig;
 1257              		.loc 1 1412 99 view .LVU455
 1258 0168 42EA1E2E 		orr	lr, r2, lr, lsr #8
 1259 016c 4CEA0E0C 		orr	ip, ip, lr
1411:Drivers/STM32H7xx_HAL_Driver/Src/stm32h7xx_hal_flash_ex.c ****                        (((PCROPEndAddr - FLASH_BANK1_BASE) >> 8) << FLASH_PRAR_PROT_AREA_END_Pos) |
 1260              		.loc 1 1411 22 view .LVU456
 1261 0170 DFF8C0E0 		ldr	lr, .L212+4
 1262 0174 CEF82CC0 		str	ip, [lr, #44]
 1263              	.L133:
1417:Drivers/STM32H7xx_HAL_Driver/Src/stm32h7xx_hal_flash_ex.c ****   {
 1264              		.loc 1 1417 3 is_stmt 1 view .LVU457
1417:Drivers/STM32H7xx_HAL_Driver/Src/stm32h7xx_hal_flash_ex.c ****   {
 1265              		.loc 1 1417 5 is_stmt 0 view .LVU458
 1266 0178 BF07     		lsls	r7, r7, #30
 1267              	.LVL97:
1417:Drivers/STM32H7xx_HAL_Driver/Src/stm32h7xx_hal_flash_ex.c ****   {
 1268              		.loc 1 1417 5 view .LVU459
 1269 017a 84D5     		bpl	.L132
1419:Drivers/STM32H7xx_HAL_Driver/Src/stm32h7xx_hal_flash_ex.c ****     assert_param(IS_FLASH_PROGRAM_ADDRESS_BANK2(PCROPEndAddr));
 1270              		.loc 1 1419 5 is_stmt 1 view .LVU460
1420:Drivers/STM32H7xx_HAL_Driver/Src/stm32h7xx_hal_flash_ex.c **** 
ARM GAS  C:\Users\MadeuxS\AppData\Local\Temp\ccAPGHhR.s 			page 59


 1271              		.loc 1 1420 5 view .LVU461
1423:Drivers/STM32H7xx_HAL_Driver/Src/stm32h7xx_hal_flash_ex.c ****                        (((PCROPEndAddr - FLASH_BANK2_BASE) >> 8) << FLASH_PRAR_PROT_AREA_END_Pos) |
 1272              		.loc 1 1423 5 view .LVU462
1424:Drivers/STM32H7xx_HAL_Driver/Src/stm32h7xx_hal_flash_ex.c ****                        PCROPConfig;
 1273              		.loc 1 1424 40 is_stmt 0 view .LVU463
 1274 017c A1F10161 		sub	r1, r1, #135266304
 1275              	.LVL98:
1423:Drivers/STM32H7xx_HAL_Driver/Src/stm32h7xx_hal_flash_ex.c ****                        (((PCROPEndAddr - FLASH_BANK2_BASE) >> 8) << FLASH_PRAR_PROT_AREA_END_Pos) |
 1276              		.loc 1 1423 41 view .LVU464
 1277 0180 A6F10166 		sub	r6, r6, #135266304
1424:Drivers/STM32H7xx_HAL_Driver/Src/stm32h7xx_hal_flash_ex.c ****                        PCROPConfig;
 1278              		.loc 1 1424 60 view .LVU465
 1279 0184 090A     		lsrs	r1, r1, #8
 1280              	.LVL99:
1424:Drivers/STM32H7xx_HAL_Driver/Src/stm32h7xx_hal_flash_ex.c ****                        PCROPConfig;
 1281              		.loc 1 1424 99 view .LVU466
 1282 0186 42EA1622 		orr	r2, r2, r6, lsr #8
 1283              	.LVL100:
1424:Drivers/STM32H7xx_HAL_Driver/Src/stm32h7xx_hal_flash_ex.c ****                        PCROPConfig;
 1284              		.loc 1 1424 99 view .LVU467
 1285 018a 42EA0142 		orr	r2, r2, r1, lsl #16
1423:Drivers/STM32H7xx_HAL_Driver/Src/stm32h7xx_hal_flash_ex.c ****                        (((PCROPEndAddr - FLASH_BANK2_BASE) >> 8) << FLASH_PRAR_PROT_AREA_END_Pos) |
 1286              		.loc 1 1423 22 view .LVU468
 1287 018e 2949     		ldr	r1, .L212+4
 1288 0190 C1F82C21 		str	r2, [r1, #300]
 1289 0194 77E7     		b	.L132
 1290              	.L210:
1423:Drivers/STM32H7xx_HAL_Driver/Src/stm32h7xx_hal_flash_ex.c ****                        (((PCROPEndAddr - FLASH_BANK2_BASE) >> 8) << FLASH_PRAR_PROT_AREA_END_Pos) |
 1291              		.loc 1 1423 22 view .LVU469
 1292              	.LBE95:
 1293              	.LBE94:
 475:Drivers/STM32H7xx_HAL_Driver/Src/stm32h7xx_hal_flash_ex.c ****     }
 1294              		.loc 1 475 7 is_stmt 1 view .LVU470
 1295 0196 D5E90516 		ldrd	r1, r6, [r5, #20]
 1296              	.LVL101:
 1297              	.LBB96:
 1298              	.LBI96:
1177:Drivers/STM32H7xx_HAL_Driver/Src/stm32h7xx_hal_flash_ex.c **** {
 1299              		.loc 1 1177 13 view .LVU471
 1300              	.LBB97:
1179:Drivers/STM32H7xx_HAL_Driver/Src/stm32h7xx_hal_flash_ex.c ****   uint32_t optr_reg_mask = 0;
 1301              		.loc 1 1179 3 view .LVU472
1180:Drivers/STM32H7xx_HAL_Driver/Src/stm32h7xx_hal_flash_ex.c **** 
 1302              		.loc 1 1180 3 view .LVU473
1183:Drivers/STM32H7xx_HAL_Driver/Src/stm32h7xx_hal_flash_ex.c **** 
 1303              		.loc 1 1183 3 view .LVU474
1185:Drivers/STM32H7xx_HAL_Driver/Src/stm32h7xx_hal_flash_ex.c ****   {
 1304              		.loc 1 1185 3 view .LVU475
1185:Drivers/STM32H7xx_HAL_Driver/Src/stm32h7xx_hal_flash_ex.c ****   {
 1305              		.loc 1 1185 5 is_stmt 0 view .LVU476
 1306 019a 11F00102 		ands	r2, r1, #1
 1307 019e 44D0     		beq	.L144
1188:Drivers/STM32H7xx_HAL_Driver/Src/stm32h7xx_hal_flash_ex.c **** 
 1308              		.loc 1 1188 5 is_stmt 1 view .LVU477
1191:Drivers/STM32H7xx_HAL_Driver/Src/stm32h7xx_hal_flash_ex.c ****     optr_reg_mask |= FLASH_OPTSR_IWDG1_SW;
 1309              		.loc 1 1191 5 view .LVU478
1191:Drivers/STM32H7xx_HAL_Driver/Src/stm32h7xx_hal_flash_ex.c ****     optr_reg_mask |= FLASH_OPTSR_IWDG1_SW;
ARM GAS  C:\Users\MadeuxS\AppData\Local\Temp\ccAPGHhR.s 			page 60


 1310              		.loc 1 1191 33 is_stmt 0 view .LVU479
 1311 01a0 06F01002 		and	r2, r6, #16
 1312              	.LVL102:
1192:Drivers/STM32H7xx_HAL_Driver/Src/stm32h7xx_hal_flash_ex.c ****   }
 1313              		.loc 1 1192 5 is_stmt 1 view .LVU480
1191:Drivers/STM32H7xx_HAL_Driver/Src/stm32h7xx_hal_flash_ex.c ****     optr_reg_mask |= FLASH_OPTSR_IWDG1_SW;
 1314              		.loc 1 1191 33 is_stmt 0 view .LVU481
 1315 01a4 5027     		movs	r7, #80
1192:Drivers/STM32H7xx_HAL_Driver/Src/stm32h7xx_hal_flash_ex.c ****   }
 1316              		.loc 1 1192 19 view .LVU482
 1317 01a6 4FF0100C 		mov	ip, #16
 1318              	.LVL103:
 1319              	.L122:
1205:Drivers/STM32H7xx_HAL_Driver/Src/stm32h7xx_hal_flash_ex.c ****   {
 1320              		.loc 1 1205 3 is_stmt 1 view .LVU483
1205:Drivers/STM32H7xx_HAL_Driver/Src/stm32h7xx_hal_flash_ex.c ****   {
 1321              		.loc 1 1205 5 is_stmt 0 view .LVU484
 1322 01aa 11F0020F 		tst	r1, #2
 1323 01ae 03D0     		beq	.L123
1208:Drivers/STM32H7xx_HAL_Driver/Src/stm32h7xx_hal_flash_ex.c **** 
 1324              		.loc 1 1208 5 is_stmt 1 view .LVU485
1211:Drivers/STM32H7xx_HAL_Driver/Src/stm32h7xx_hal_flash_ex.c ****     optr_reg_mask |= FLASH_OPTSR_NRST_STOP_D1;
 1325              		.loc 1 1211 5 view .LVU486
1212:Drivers/STM32H7xx_HAL_Driver/Src/stm32h7xx_hal_flash_ex.c ****   }
 1326              		.loc 1 1212 19 is_stmt 0 view .LVU487
 1327 01b0 BC46     		mov	ip, r7
1211:Drivers/STM32H7xx_HAL_Driver/Src/stm32h7xx_hal_flash_ex.c ****     optr_reg_mask |= FLASH_OPTSR_NRST_STOP_D1;
 1328              		.loc 1 1211 33 view .LVU488
 1329 01b2 06F04007 		and	r7, r6, #64
1211:Drivers/STM32H7xx_HAL_Driver/Src/stm32h7xx_hal_flash_ex.c ****     optr_reg_mask |= FLASH_OPTSR_NRST_STOP_D1;
 1330              		.loc 1 1211 18 view .LVU489
 1331 01b6 3A43     		orrs	r2, r2, r7
 1332              	.LVL104:
1212:Drivers/STM32H7xx_HAL_Driver/Src/stm32h7xx_hal_flash_ex.c ****   }
 1333              		.loc 1 1212 5 is_stmt 1 view .LVU490
 1334              	.L123:
1215:Drivers/STM32H7xx_HAL_Driver/Src/stm32h7xx_hal_flash_ex.c ****   {
 1335              		.loc 1 1215 3 view .LVU491
1215:Drivers/STM32H7xx_HAL_Driver/Src/stm32h7xx_hal_flash_ex.c ****   {
 1336              		.loc 1 1215 5 is_stmt 0 view .LVU492
 1337 01b8 4F07     		lsls	r7, r1, #29
 1338 01ba 04D5     		bpl	.L124
1218:Drivers/STM32H7xx_HAL_Driver/Src/stm32h7xx_hal_flash_ex.c **** 
 1339              		.loc 1 1218 5 is_stmt 1 view .LVU493
1221:Drivers/STM32H7xx_HAL_Driver/Src/stm32h7xx_hal_flash_ex.c ****     optr_reg_mask |= FLASH_OPTSR_NRST_STBY_D1;
 1340              		.loc 1 1221 5 view .LVU494
1221:Drivers/STM32H7xx_HAL_Driver/Src/stm32h7xx_hal_flash_ex.c ****     optr_reg_mask |= FLASH_OPTSR_NRST_STBY_D1;
 1341              		.loc 1 1221 33 is_stmt 0 view .LVU495
 1342 01bc 06F08007 		and	r7, r6, #128
1222:Drivers/STM32H7xx_HAL_Driver/Src/stm32h7xx_hal_flash_ex.c ****   }
 1343              		.loc 1 1222 19 view .LVU496
 1344 01c0 4CF0800C 		orr	ip, ip, #128
1221:Drivers/STM32H7xx_HAL_Driver/Src/stm32h7xx_hal_flash_ex.c ****     optr_reg_mask |= FLASH_OPTSR_NRST_STBY_D1;
 1345              		.loc 1 1221 18 view .LVU497
 1346 01c4 3A43     		orrs	r2, r2, r7
 1347              	.LVL105:
1222:Drivers/STM32H7xx_HAL_Driver/Src/stm32h7xx_hal_flash_ex.c ****   }
ARM GAS  C:\Users\MadeuxS\AppData\Local\Temp\ccAPGHhR.s 			page 61


 1348              		.loc 1 1222 5 is_stmt 1 view .LVU498
 1349              	.L124:
1225:Drivers/STM32H7xx_HAL_Driver/Src/stm32h7xx_hal_flash_ex.c ****   {
 1350              		.loc 1 1225 3 view .LVU499
1225:Drivers/STM32H7xx_HAL_Driver/Src/stm32h7xx_hal_flash_ex.c ****   {
 1351              		.loc 1 1225 5 is_stmt 0 view .LVU500
 1352 01c6 0F07     		lsls	r7, r1, #28
 1353 01c8 04D5     		bpl	.L125
1228:Drivers/STM32H7xx_HAL_Driver/Src/stm32h7xx_hal_flash_ex.c **** 
 1354              		.loc 1 1228 5 is_stmt 1 view .LVU501
1231:Drivers/STM32H7xx_HAL_Driver/Src/stm32h7xx_hal_flash_ex.c ****     optr_reg_mask |= FLASH_OPTSR_FZ_IWDG_STOP;
 1355              		.loc 1 1231 5 view .LVU502
1231:Drivers/STM32H7xx_HAL_Driver/Src/stm32h7xx_hal_flash_ex.c ****     optr_reg_mask |= FLASH_OPTSR_FZ_IWDG_STOP;
 1356              		.loc 1 1231 33 is_stmt 0 view .LVU503
 1357 01ca 06F40037 		and	r7, r6, #131072
1232:Drivers/STM32H7xx_HAL_Driver/Src/stm32h7xx_hal_flash_ex.c ****   }
 1358              		.loc 1 1232 19 view .LVU504
 1359 01ce 4CF4003C 		orr	ip, ip, #131072
1231:Drivers/STM32H7xx_HAL_Driver/Src/stm32h7xx_hal_flash_ex.c ****     optr_reg_mask |= FLASH_OPTSR_FZ_IWDG_STOP;
 1360              		.loc 1 1231 18 view .LVU505
 1361 01d2 3A43     		orrs	r2, r2, r7
 1362              	.LVL106:
1232:Drivers/STM32H7xx_HAL_Driver/Src/stm32h7xx_hal_flash_ex.c ****   }
 1363              		.loc 1 1232 5 is_stmt 1 view .LVU506
 1364              	.L125:
1235:Drivers/STM32H7xx_HAL_Driver/Src/stm32h7xx_hal_flash_ex.c ****   {
 1365              		.loc 1 1235 3 view .LVU507
1235:Drivers/STM32H7xx_HAL_Driver/Src/stm32h7xx_hal_flash_ex.c ****   {
 1366              		.loc 1 1235 5 is_stmt 0 view .LVU508
 1367 01d4 CF06     		lsls	r7, r1, #27
 1368 01d6 04D5     		bpl	.L126
1238:Drivers/STM32H7xx_HAL_Driver/Src/stm32h7xx_hal_flash_ex.c **** 
 1369              		.loc 1 1238 5 is_stmt 1 view .LVU509
1241:Drivers/STM32H7xx_HAL_Driver/Src/stm32h7xx_hal_flash_ex.c ****     optr_reg_mask |= FLASH_OPTSR_FZ_IWDG_SDBY;
 1370              		.loc 1 1241 5 view .LVU510
1241:Drivers/STM32H7xx_HAL_Driver/Src/stm32h7xx_hal_flash_ex.c ****     optr_reg_mask |= FLASH_OPTSR_FZ_IWDG_SDBY;
 1371              		.loc 1 1241 33 is_stmt 0 view .LVU511
 1372 01d8 06F48027 		and	r7, r6, #262144
1242:Drivers/STM32H7xx_HAL_Driver/Src/stm32h7xx_hal_flash_ex.c ****   }
 1373              		.loc 1 1242 19 view .LVU512
 1374 01dc 4CF4802C 		orr	ip, ip, #262144
1241:Drivers/STM32H7xx_HAL_Driver/Src/stm32h7xx_hal_flash_ex.c ****     optr_reg_mask |= FLASH_OPTSR_FZ_IWDG_SDBY;
 1375              		.loc 1 1241 18 view .LVU513
 1376 01e0 3A43     		orrs	r2, r2, r7
 1377              	.LVL107:
1242:Drivers/STM32H7xx_HAL_Driver/Src/stm32h7xx_hal_flash_ex.c ****   }
 1378              		.loc 1 1242 5 is_stmt 1 view .LVU514
 1379              	.L126:
1245:Drivers/STM32H7xx_HAL_Driver/Src/stm32h7xx_hal_flash_ex.c ****   {
 1380              		.loc 1 1245 3 view .LVU515
1245:Drivers/STM32H7xx_HAL_Driver/Src/stm32h7xx_hal_flash_ex.c ****   {
 1381              		.loc 1 1245 5 is_stmt 0 view .LVU516
 1382 01e2 8F06     		lsls	r7, r1, #26
 1383 01e4 04D5     		bpl	.L127
1248:Drivers/STM32H7xx_HAL_Driver/Src/stm32h7xx_hal_flash_ex.c **** 
 1384              		.loc 1 1248 5 is_stmt 1 view .LVU517
1251:Drivers/STM32H7xx_HAL_Driver/Src/stm32h7xx_hal_flash_ex.c ****     optr_reg_mask |= FLASH_OPTSR_ST_RAM_SIZE;
ARM GAS  C:\Users\MadeuxS\AppData\Local\Temp\ccAPGHhR.s 			page 62


 1385              		.loc 1 1251 5 view .LVU518
1251:Drivers/STM32H7xx_HAL_Driver/Src/stm32h7xx_hal_flash_ex.c ****     optr_reg_mask |= FLASH_OPTSR_ST_RAM_SIZE;
 1386              		.loc 1 1251 33 is_stmt 0 view .LVU519
 1387 01e6 06F4C017 		and	r7, r6, #1572864
1252:Drivers/STM32H7xx_HAL_Driver/Src/stm32h7xx_hal_flash_ex.c ****   }
 1388              		.loc 1 1252 19 view .LVU520
 1389 01ea 4CF4C01C 		orr	ip, ip, #1572864
1251:Drivers/STM32H7xx_HAL_Driver/Src/stm32h7xx_hal_flash_ex.c ****     optr_reg_mask |= FLASH_OPTSR_ST_RAM_SIZE;
 1390              		.loc 1 1251 18 view .LVU521
 1391 01ee 3A43     		orrs	r2, r2, r7
 1392              	.LVL108:
1252:Drivers/STM32H7xx_HAL_Driver/Src/stm32h7xx_hal_flash_ex.c ****   }
 1393              		.loc 1 1252 5 is_stmt 1 view .LVU522
 1394              	.L127:
1255:Drivers/STM32H7xx_HAL_Driver/Src/stm32h7xx_hal_flash_ex.c ****   {
 1395              		.loc 1 1255 3 view .LVU523
1255:Drivers/STM32H7xx_HAL_Driver/Src/stm32h7xx_hal_flash_ex.c ****   {
 1396              		.loc 1 1255 5 is_stmt 0 view .LVU524
 1397 01f0 4F06     		lsls	r7, r1, #25
 1398 01f2 04D5     		bpl	.L128
1258:Drivers/STM32H7xx_HAL_Driver/Src/stm32h7xx_hal_flash_ex.c **** 
 1399              		.loc 1 1258 5 is_stmt 1 view .LVU525
1261:Drivers/STM32H7xx_HAL_Driver/Src/stm32h7xx_hal_flash_ex.c ****     optr_reg_mask |= FLASH_OPTSR_SECURITY;
 1400              		.loc 1 1261 5 view .LVU526
1261:Drivers/STM32H7xx_HAL_Driver/Src/stm32h7xx_hal_flash_ex.c ****     optr_reg_mask |= FLASH_OPTSR_SECURITY;
 1401              		.loc 1 1261 33 is_stmt 0 view .LVU527
 1402 01f4 06F40017 		and	r7, r6, #2097152
1262:Drivers/STM32H7xx_HAL_Driver/Src/stm32h7xx_hal_flash_ex.c ****   }
 1403              		.loc 1 1262 19 view .LVU528
 1404 01f8 4CF4001C 		orr	ip, ip, #2097152
1261:Drivers/STM32H7xx_HAL_Driver/Src/stm32h7xx_hal_flash_ex.c ****     optr_reg_mask |= FLASH_OPTSR_SECURITY;
 1405              		.loc 1 1261 18 view .LVU529
 1406 01fc 3A43     		orrs	r2, r2, r7
 1407              	.LVL109:
1262:Drivers/STM32H7xx_HAL_Driver/Src/stm32h7xx_hal_flash_ex.c ****   }
 1408              		.loc 1 1262 5 is_stmt 1 view .LVU530
 1409              	.L128:
1310:Drivers/STM32H7xx_HAL_Driver/Src/stm32h7xx_hal_flash_ex.c ****   {
 1410              		.loc 1 1310 3 view .LVU531
1310:Drivers/STM32H7xx_HAL_Driver/Src/stm32h7xx_hal_flash_ex.c ****   {
 1411              		.loc 1 1310 5 is_stmt 0 view .LVU532
 1412 01fe CF05     		lsls	r7, r1, #23
 1413 0200 04D5     		bpl	.L129
1313:Drivers/STM32H7xx_HAL_Driver/Src/stm32h7xx_hal_flash_ex.c **** 
 1414              		.loc 1 1313 5 is_stmt 1 view .LVU533
1316:Drivers/STM32H7xx_HAL_Driver/Src/stm32h7xx_hal_flash_ex.c ****     optr_reg_mask |= FLASH_OPTSR_SWAP_BANK_OPT;
 1415              		.loc 1 1316 5 view .LVU534
1316:Drivers/STM32H7xx_HAL_Driver/Src/stm32h7xx_hal_flash_ex.c ****     optr_reg_mask |= FLASH_OPTSR_SWAP_BANK_OPT;
 1416              		.loc 1 1316 33 is_stmt 0 view .LVU535
 1417 0202 06F00047 		and	r7, r6, #-2147483648
1317:Drivers/STM32H7xx_HAL_Driver/Src/stm32h7xx_hal_flash_ex.c ****   }
 1418              		.loc 1 1317 19 view .LVU536
 1419 0206 4CF0004C 		orr	ip, ip, #-2147483648
1316:Drivers/STM32H7xx_HAL_Driver/Src/stm32h7xx_hal_flash_ex.c ****     optr_reg_mask |= FLASH_OPTSR_SWAP_BANK_OPT;
 1420              		.loc 1 1316 18 view .LVU537
 1421 020a 3A43     		orrs	r2, r2, r7
 1422              	.LVL110:
ARM GAS  C:\Users\MadeuxS\AppData\Local\Temp\ccAPGHhR.s 			page 63


1317:Drivers/STM32H7xx_HAL_Driver/Src/stm32h7xx_hal_flash_ex.c ****   }
 1423              		.loc 1 1317 5 is_stmt 1 view .LVU538
 1424              	.L129:
1321:Drivers/STM32H7xx_HAL_Driver/Src/stm32h7xx_hal_flash_ex.c ****   {
 1425              		.loc 1 1321 3 view .LVU539
1321:Drivers/STM32H7xx_HAL_Driver/Src/stm32h7xx_hal_flash_ex.c ****   {
 1426              		.loc 1 1321 5 is_stmt 0 view .LVU540
 1427 020c 0906     		lsls	r1, r1, #24
 1428              	.LVL111:
1321:Drivers/STM32H7xx_HAL_Driver/Src/stm32h7xx_hal_flash_ex.c ****   {
 1429              		.loc 1 1321 5 view .LVU541
 1430 020e 04D5     		bpl	.L130
1324:Drivers/STM32H7xx_HAL_Driver/Src/stm32h7xx_hal_flash_ex.c **** 
 1431              		.loc 1 1324 5 is_stmt 1 view .LVU542
1327:Drivers/STM32H7xx_HAL_Driver/Src/stm32h7xx_hal_flash_ex.c ****     optr_reg_mask |= FLASH_OPTSR_IO_HSLV;
 1432              		.loc 1 1327 5 view .LVU543
1327:Drivers/STM32H7xx_HAL_Driver/Src/stm32h7xx_hal_flash_ex.c ****     optr_reg_mask |= FLASH_OPTSR_IO_HSLV;
 1433              		.loc 1 1327 33 is_stmt 0 view .LVU544
 1434 0210 06F00056 		and	r6, r6, #536870912
 1435              	.LVL112:
1328:Drivers/STM32H7xx_HAL_Driver/Src/stm32h7xx_hal_flash_ex.c ****   }
 1436              		.loc 1 1328 19 view .LVU545
 1437 0214 4CF0005C 		orr	ip, ip, #536870912
1327:Drivers/STM32H7xx_HAL_Driver/Src/stm32h7xx_hal_flash_ex.c ****     optr_reg_mask |= FLASH_OPTSR_IO_HSLV;
 1438              		.loc 1 1327 18 view .LVU546
 1439 0218 3243     		orrs	r2, r2, r6
 1440              	.LVL113:
1328:Drivers/STM32H7xx_HAL_Driver/Src/stm32h7xx_hal_flash_ex.c ****   }
 1441              		.loc 1 1328 5 is_stmt 1 view .LVU547
 1442              	.L130:
1344:Drivers/STM32H7xx_HAL_Driver/Src/stm32h7xx_hal_flash_ex.c **** }
 1443              		.loc 1 1344 3 view .LVU548
 1444 021a 064E     		ldr	r6, .L212+4
 1445 021c 316A     		ldr	r1, [r6, #32]
 1446 021e 21EA0C0C 		bic	ip, r1, ip
 1447 0222 4CEA0202 		orr	r2, ip, r2
 1448              	.LVL114:
1344:Drivers/STM32H7xx_HAL_Driver/Src/stm32h7xx_hal_flash_ex.c **** }
 1449              		.loc 1 1344 3 is_stmt 0 view .LVU549
 1450 0226 3262     		str	r2, [r6, #32]
 1451              	.LVL115:
1345:Drivers/STM32H7xx_HAL_Driver/Src/stm32h7xx_hal_flash_ex.c **** 
 1452              		.loc 1 1345 1 view .LVU550
 1453 0228 2BE7     		b	.L121
 1454              	.LVL116:
 1455              	.L144:
1180:Drivers/STM32H7xx_HAL_Driver/Src/stm32h7xx_hal_flash_ex.c **** 
 1456              		.loc 1 1180 12 view .LVU551
 1457 022a 9446     		mov	ip, r2
 1458 022c 4027     		movs	r7, #64
 1459 022e BCE7     		b	.L122
 1460              	.L213:
 1461              		.align	2
 1462              	.L212:
 1463 0230 00000000 		.word	pFlash
 1464 0234 00200052 		.word	1375739904
 1465 0238 0000FFFF 		.word	-65536
ARM GAS  C:\Users\MadeuxS\AppData\Local\Temp\ccAPGHhR.s 			page 64


 1466              	.LBE97:
 1467              	.LBE96:
 1468              		.cfi_endproc
 1469              	.LFE146:
 1471              		.section	.text.HAL_FLASHEx_OBGetConfig,"ax",%progbits
 1472              		.align	1
 1473              		.p2align 2,,3
 1474              		.global	HAL_FLASHEx_OBGetConfig
 1475              		.syntax unified
 1476              		.thumb
 1477              		.thumb_func
 1478              		.fpu fpv5-d16
 1480              	HAL_FLASHEx_OBGetConfig:
 1481              	.LVL117:
 1482              	.LFB147:
 560:Drivers/STM32H7xx_HAL_Driver/Src/stm32h7xx_hal_flash_ex.c ****   pOBInit->OptionType = (OPTIONBYTE_USER | OPTIONBYTE_RDP | OPTIONBYTE_BOR);
 1483              		.loc 1 560 1 is_stmt 1 view -0
 1484              		.cfi_startproc
 1485              		@ args = 0, pretend = 0, frame = 0
 1486              		@ frame_needed = 0, uses_anonymous_args = 0
 1487              		@ link register save eliminated.
 561:Drivers/STM32H7xx_HAL_Driver/Src/stm32h7xx_hal_flash_ex.c **** 
 1488              		.loc 1 561 3 view .LVU553
 564:Drivers/STM32H7xx_HAL_Driver/Src/stm32h7xx_hal_flash_ex.c **** 
 1489              		.loc 1 564 3 view .LVU554
 1490              	.LBB98:
 1491              	.LBI98:
1121:Drivers/STM32H7xx_HAL_Driver/Src/stm32h7xx_hal_flash_ex.c **** {
 1492              		.loc 1 1121 17 view .LVU555
 1493              	.LBB99:
1123:Drivers/STM32H7xx_HAL_Driver/Src/stm32h7xx_hal_flash_ex.c ****   
 1494              		.loc 1 1123 3 view .LVU556
1123:Drivers/STM32H7xx_HAL_Driver/Src/stm32h7xx_hal_flash_ex.c ****   
 1495              		.loc 1 1123 24 is_stmt 0 view .LVU557
 1496 0000 3E4B     		ldr	r3, .L228
 1497 0002 DB69     		ldr	r3, [r3, #28]
1123:Drivers/STM32H7xx_HAL_Driver/Src/stm32h7xx_hal_flash_ex.c ****   
 1498              		.loc 1 1123 12 view .LVU558
 1499 0004 03F47F43 		and	r3, r3, #65280
 1500              	.LVL118:
1125:Drivers/STM32H7xx_HAL_Driver/Src/stm32h7xx_hal_flash_ex.c ****   {
 1501              		.loc 1 1125 3 is_stmt 1 view .LVU559
1125:Drivers/STM32H7xx_HAL_Driver/Src/stm32h7xx_hal_flash_ex.c ****   {
 1502              		.loc 1 1125 6 is_stmt 0 view .LVU560
 1503 0008 B3F52A4F 		cmp	r3, #43520
 1504              	.LBE99:
 1505              	.LBE98:
 560:Drivers/STM32H7xx_HAL_Driver/Src/stm32h7xx_hal_flash_ex.c ****   pOBInit->OptionType = (OPTIONBYTE_USER | OPTIONBYTE_RDP | OPTIONBYTE_BOR);
 1506              		.loc 1 560 1 view .LVU561
 1507 000c 10B4     		push	{r4}
 1508              	.LCFI3:
 1509              		.cfi_def_cfa_offset 4
 1510              		.cfi_offset 4, -4
 1511              	.LBB101:
 1512              	.LBB100:
1125:Drivers/STM32H7xx_HAL_Driver/Src/stm32h7xx_hal_flash_ex.c ****   {
 1513              		.loc 1 1125 6 view .LVU562
ARM GAS  C:\Users\MadeuxS\AppData\Local\Temp\ccAPGHhR.s 			page 65


 1514 000e 04D0     		beq	.L215
1127:Drivers/STM32H7xx_HAL_Driver/Src/stm32h7xx_hal_flash_ex.c ****   }
 1515              		.loc 1 1127 12 view .LVU563
 1516 0010 B3F54C4F 		cmp	r3, #52224
 1517 0014 18BF     		it	ne
 1518 0016 4FF4AA43 		movne	r3, #21760
 1519              	.LVL119:
 1520              	.L215:
1127:Drivers/STM32H7xx_HAL_Driver/Src/stm32h7xx_hal_flash_ex.c ****   }
 1521              		.loc 1 1127 12 view .LVU564
 1522              	.LBE100:
 1523              	.LBE101:
 1524              	.LBB102:
 1525              	.LBB103:
1367:Drivers/STM32H7xx_HAL_Driver/Src/stm32h7xx_hal_flash_ex.c ****   userConfig &= (~(FLASH_OPTSR_BOR_LEV | FLASH_OPTSR_RDP));
 1526              		.loc 1 1367 12 view .LVU565
 1527 001a 384A     		ldr	r2, .L228
 1528              	.LBE103:
 1529              	.LBE102:
 564:Drivers/STM32H7xx_HAL_Driver/Src/stm32h7xx_hal_flash_ex.c **** 
 1530              		.loc 1 564 21 view .LVU566
 1531 001c C360     		str	r3, [r0, #12]
 567:Drivers/STM32H7xx_HAL_Driver/Src/stm32h7xx_hal_flash_ex.c **** 
 1532              		.loc 1 567 3 is_stmt 1 view .LVU567
 1533              	.LBB106:
 1534              	.LBI102:
1365:Drivers/STM32H7xx_HAL_Driver/Src/stm32h7xx_hal_flash_ex.c **** {
 1535              		.loc 1 1365 17 view .LVU568
 1536              	.LBB104:
1367:Drivers/STM32H7xx_HAL_Driver/Src/stm32h7xx_hal_flash_ex.c ****   userConfig &= (~(FLASH_OPTSR_BOR_LEV | FLASH_OPTSR_RDP));
 1537              		.loc 1 1367 3 view .LVU569
1368:Drivers/STM32H7xx_HAL_Driver/Src/stm32h7xx_hal_flash_ex.c **** 
 1538              		.loc 1 1368 14 is_stmt 0 view .LVU570
 1539 001e 384B     		ldr	r3, .L228+4
1367:Drivers/STM32H7xx_HAL_Driver/Src/stm32h7xx_hal_flash_ex.c ****   userConfig &= (~(FLASH_OPTSR_BOR_LEV | FLASH_OPTSR_RDP));
 1540              		.loc 1 1367 12 view .LVU571
 1541 0020 D469     		ldr	r4, [r2, #28]
 1542              	.LVL120:
1368:Drivers/STM32H7xx_HAL_Driver/Src/stm32h7xx_hal_flash_ex.c **** 
 1543              		.loc 1 1368 3 is_stmt 1 view .LVU572
1370:Drivers/STM32H7xx_HAL_Driver/Src/stm32h7xx_hal_flash_ex.c **** }
 1544              		.loc 1 1370 3 view .LVU573
1370:Drivers/STM32H7xx_HAL_Driver/Src/stm32h7xx_hal_flash_ex.c **** }
 1545              		.loc 1 1370 3 is_stmt 0 view .LVU574
 1546              	.LBE104:
 1547              	.LBE106:
 573:Drivers/STM32H7xx_HAL_Driver/Src/stm32h7xx_hal_flash_ex.c **** #else
 1548              		.loc 1 573 15 view .LVU575
 1549 0022 C169     		ldr	r1, [r0, #28]
 1550              	.LBB107:
 1551              	.LBB105:
1368:Drivers/STM32H7xx_HAL_Driver/Src/stm32h7xx_hal_flash_ex.c **** 
 1552              		.loc 1 1368 14 view .LVU576
 1553 0024 2340     		ands	r3, r3, r4
 1554              	.LBE105:
 1555              	.LBE107:
 573:Drivers/STM32H7xx_HAL_Driver/Src/stm32h7xx_hal_flash_ex.c **** #else
ARM GAS  C:\Users\MadeuxS\AppData\Local\Temp\ccAPGHhR.s 			page 66


 1556              		.loc 1 573 40 view .LVU577
 1557 0026 01F1FF3C 		add	ip, r1, #-1
 567:Drivers/STM32H7xx_HAL_Driver/Src/stm32h7xx_hal_flash_ex.c **** 
 1558              		.loc 1 567 23 view .LVU578
 1559 002a 8361     		str	r3, [r0, #24]
 570:Drivers/STM32H7xx_HAL_Driver/Src/stm32h7xx_hal_flash_ex.c **** 
 1560              		.loc 1 570 3 is_stmt 1 view .LVU579
 1561              	.LBB108:
 1562              	.LBI108:
1501:Drivers/STM32H7xx_HAL_Driver/Src/stm32h7xx_hal_flash_ex.c **** {
 1563              		.loc 1 1501 17 view .LVU580
 1564              	.LBB109:
1503:Drivers/STM32H7xx_HAL_Driver/Src/stm32h7xx_hal_flash_ex.c **** }
 1565              		.loc 1 1503 3 view .LVU581
1503:Drivers/STM32H7xx_HAL_Driver/Src/stm32h7xx_hal_flash_ex.c **** }
 1566              		.loc 1 1503 16 is_stmt 0 view .LVU582
 1567 002c D369     		ldr	r3, [r2, #28]
 1568              	.LBE109:
 1569              	.LBE108:
 573:Drivers/STM32H7xx_HAL_Driver/Src/stm32h7xx_hal_flash_ex.c **** #else
 1570              		.loc 1 573 6 view .LVU583
 1571 002e BCF1010F 		cmp	ip, #1
 1572              	.LBB111:
 1573              	.LBB110:
1503:Drivers/STM32H7xx_HAL_Driver/Src/stm32h7xx_hal_flash_ex.c **** }
 1574              		.loc 1 1503 28 view .LVU584
 1575 0032 03F00C03 		and	r3, r3, #12
 1576              	.LBE110:
 1577              	.LBE111:
 570:Drivers/STM32H7xx_HAL_Driver/Src/stm32h7xx_hal_flash_ex.c **** 
 1578              		.loc 1 570 21 view .LVU585
 1579 0036 0361     		str	r3, [r0, #16]
 573:Drivers/STM32H7xx_HAL_Driver/Src/stm32h7xx_hal_flash_ex.c **** #else
 1580              		.loc 1 573 3 is_stmt 1 view .LVU586
 573:Drivers/STM32H7xx_HAL_Driver/Src/stm32h7xx_hal_flash_ex.c **** #else
 1581              		.loc 1 573 6 is_stmt 0 view .LVU587
 1582 0038 0BD9     		bls	.L226
 1583 003a 5621     		movs	r1, #86
 1584              	.L217:
 591:Drivers/STM32H7xx_HAL_Driver/Src/stm32h7xx_hal_flash_ex.c **** #if defined(DUAL_CORE)
 1585              		.loc 1 591 3 is_stmt 1 view .LVU588
 1586              	.LVL121:
 1587              	.LBB112:
 1588              	.LBI112:
1554:Drivers/STM32H7xx_HAL_Driver/Src/stm32h7xx_hal_flash_ex.c **** {
 1589              		.loc 1 1554 13 view .LVU589
 1590              	.LBB113:
1556:Drivers/STM32H7xx_HAL_Driver/Src/stm32h7xx_hal_flash_ex.c **** 
 1591              		.loc 1 1556 3 view .LVU590
1564:Drivers/STM32H7xx_HAL_Driver/Src/stm32h7xx_hal_flash_ex.c **** 
 1592              		.loc 1 1564 3 view .LVU591
1564:Drivers/STM32H7xx_HAL_Driver/Src/stm32h7xx_hal_flash_ex.c **** 
 1593              		.loc 1 1564 12 is_stmt 0 view .LVU592
 1594 003c 2F4A     		ldr	r2, .L228
1567:Drivers/STM32H7xx_HAL_Driver/Src/stm32h7xx_hal_flash_ex.c **** #endif /* DUAL_CORE */
 1595              		.loc 1 1567 31 view .LVU593
 1596 003e 314B     		ldr	r3, .L228+8
ARM GAS  C:\Users\MadeuxS\AppData\Local\Temp\ccAPGHhR.s 			page 67


1564:Drivers/STM32H7xx_HAL_Driver/Src/stm32h7xx_hal_flash_ex.c **** 
 1597              		.loc 1 1564 12 view .LVU594
 1598 0040 126C     		ldr	r2, [r2, #64]
 1599              	.LVL122:
1566:Drivers/STM32H7xx_HAL_Driver/Src/stm32h7xx_hal_flash_ex.c ****   (*BootAddress1) = (regvalue & FLASH_BOOT_ADD1);
 1600              		.loc 1 1566 3 is_stmt 1 view .LVU595
 1601              	.LBE113:
 1602              	.LBE112:
 598:Drivers/STM32H7xx_HAL_Driver/Src/stm32h7xx_hal_flash_ex.c **** #endif /*DUAL_CORE*/
 1603              		.loc 1 598 23 is_stmt 0 view .LVU596
 1604 0042 0160     		str	r1, [r0]
 1605              	.LBB116:
 1606              	.LBB114:
1567:Drivers/STM32H7xx_HAL_Driver/Src/stm32h7xx_hal_flash_ex.c **** #endif /* DUAL_CORE */
 1607              		.loc 1 1567 31 view .LVU597
 1608 0044 1340     		ands	r3, r3, r2
1566:Drivers/STM32H7xx_HAL_Driver/Src/stm32h7xx_hal_flash_ex.c ****   (*BootAddress1) = (regvalue & FLASH_BOOT_ADD1);
 1609              		.loc 1 1566 50 view .LVU598
 1610 0046 1104     		lsls	r1, r2, #16
 1611              	.LBE114:
 1612              	.LBE116:
 621:Drivers/STM32H7xx_HAL_Driver/Src/stm32h7xx_hal_flash_ex.c **** 
 1613              		.loc 1 621 1 view .LVU599
 1614 0048 5DF8044B 		ldr	r4, [sp], #4
 1615              	.LCFI4:
 1616              		.cfi_remember_state
 1617              		.cfi_restore 4
 1618              		.cfi_def_cfa_offset 0
 1619              	.LBB117:
 1620              	.LBB115:
1567:Drivers/STM32H7xx_HAL_Driver/Src/stm32h7xx_hal_flash_ex.c **** #endif /* DUAL_CORE */
 1621              		.loc 1 1567 19 view .LVU600
 1622 004c C0E90C13 		strd	r1, r3, [r0, #48]
 1623              	.LVL123:
1567:Drivers/STM32H7xx_HAL_Driver/Src/stm32h7xx_hal_flash_ex.c **** #endif /* DUAL_CORE */
 1624              		.loc 1 1567 19 view .LVU601
 1625              	.LBE115:
 1626              	.LBE117:
 598:Drivers/STM32H7xx_HAL_Driver/Src/stm32h7xx_hal_flash_ex.c **** #endif /*DUAL_CORE*/
 1627              		.loc 1 598 3 is_stmt 1 view .LVU602
 621:Drivers/STM32H7xx_HAL_Driver/Src/stm32h7xx_hal_flash_ex.c **** 
 1628              		.loc 1 621 1 is_stmt 0 view .LVU603
 1629 0050 7047     		bx	lr
 1630              	.L226:
 1631              	.LCFI5:
 1632              		.cfi_restore_state
 578:Drivers/STM32H7xx_HAL_Driver/Src/stm32h7xx_hal_flash_ex.c **** 
 1633              		.loc 1 578 5 is_stmt 1 view .LVU604
 578:Drivers/STM32H7xx_HAL_Driver/Src/stm32h7xx_hal_flash_ex.c **** 
 1634              		.loc 1 578 25 is_stmt 0 view .LVU605
 1635 0052 3F23     		movs	r3, #63
 1636              	.LBB118:
 1637              	.LBB119:
1062:Drivers/STM32H7xx_HAL_Driver/Src/stm32h7xx_hal_flash_ex.c ****   {
 1638              		.loc 1 1062 5 view .LVU606
 1639 0054 0129     		cmp	r1, #1
 1640              	.LBE119:
ARM GAS  C:\Users\MadeuxS\AppData\Local\Temp\ccAPGHhR.s 			page 68


 1641              	.LBE118:
 578:Drivers/STM32H7xx_HAL_Driver/Src/stm32h7xx_hal_flash_ex.c **** 
 1642              		.loc 1 578 25 view .LVU607
 1643 0056 0360     		str	r3, [r0]
 581:Drivers/STM32H7xx_HAL_Driver/Src/stm32h7xx_hal_flash_ex.c **** 
 1644              		.loc 1 581 5 is_stmt 1 view .LVU608
 1645              	.LVL124:
 1646              	.LBB122:
 1647              	.LBI118:
1058:Drivers/STM32H7xx_HAL_Driver/Src/stm32h7xx_hal_flash_ex.c **** {
 1648              		.loc 1 1058 13 view .LVU609
 1649              	.LBB120:
1060:Drivers/STM32H7xx_HAL_Driver/Src/stm32h7xx_hal_flash_ex.c **** 
 1650              		.loc 1 1060 3 view .LVU610
1062:Drivers/STM32H7xx_HAL_Driver/Src/stm32h7xx_hal_flash_ex.c ****   {
 1651              		.loc 1 1062 3 view .LVU611
1062:Drivers/STM32H7xx_HAL_Driver/Src/stm32h7xx_hal_flash_ex.c ****   {
 1652              		.loc 1 1062 5 is_stmt 0 view .LVU612
 1653 0058 29D0     		beq	.L227
1068:Drivers/STM32H7xx_HAL_Driver/Src/stm32h7xx_hal_flash_ex.c ****   {
 1654              		.loc 1 1068 3 is_stmt 1 view .LVU613
1070:Drivers/STM32H7xx_HAL_Driver/Src/stm32h7xx_hal_flash_ex.c ****   }
 1655              		.loc 1 1070 5 view .LVU614
1070:Drivers/STM32H7xx_HAL_Driver/Src/stm32h7xx_hal_flash_ex.c ****   }
 1656              		.loc 1 1070 14 is_stmt 0 view .LVU615
 1657 005a D2F83831 		ldr	r3, [r2, #312]
 1658              	.LVL125:
1074:Drivers/STM32H7xx_HAL_Driver/Src/stm32h7xx_hal_flash_ex.c **** 
 1659              		.loc 1 1074 3 is_stmt 1 view .LVU616
1074:Drivers/STM32H7xx_HAL_Driver/Src/stm32h7xx_hal_flash_ex.c **** 
 1660              		.loc 1 1074 19 is_stmt 0 view .LVU617
 1661 005e DB43     		mvns	r3, r3
 1662              	.LVL126:
1074:Drivers/STM32H7xx_HAL_Driver/Src/stm32h7xx_hal_flash_ex.c **** 
 1663              		.loc 1 1074 30 view .LVU618
 1664 0060 DBB2     		uxtb	r3, r3
 1665              	.LVL127:
1076:Drivers/STM32H7xx_HAL_Driver/Src/stm32h7xx_hal_flash_ex.c ****   {
 1666              		.loc 1 1076 5 view .LVU619
 1667 0062 191E     		subs	r1, r3, #0
 1668              	.LVL128:
1076:Drivers/STM32H7xx_HAL_Driver/Src/stm32h7xx_hal_flash_ex.c ****   {
 1669              		.loc 1 1076 5 view .LVU620
 1670 0064 18BF     		it	ne
 1671 0066 0121     		movne	r1, #1
 1672 0068 C0E90113 		strd	r1, r3, [r0, #4]
 1673              	.LVL129:
1076:Drivers/STM32H7xx_HAL_Driver/Src/stm32h7xx_hal_flash_ex.c ****   {
 1674              		.loc 1 1076 5 view .LVU621
 1675              	.LBE120:
 1676              	.LBE122:
 584:Drivers/STM32H7xx_HAL_Driver/Src/stm32h7xx_hal_flash_ex.c **** 
 1677              		.loc 1 584 5 is_stmt 1 view .LVU622
 1678              	.LBB123:
 1679              	.LBI123:
1448:Drivers/STM32H7xx_HAL_Driver/Src/stm32h7xx_hal_flash_ex.c **** {
 1680              		.loc 1 1448 13 view .LVU623
ARM GAS  C:\Users\MadeuxS\AppData\Local\Temp\ccAPGHhR.s 			page 69


 1681              	.LBB124:
1450:Drivers/STM32H7xx_HAL_Driver/Src/stm32h7xx_hal_flash_ex.c ****   uint32_t bankBase = 0;
 1682              		.loc 1 1450 3 view .LVU624
1451:Drivers/STM32H7xx_HAL_Driver/Src/stm32h7xx_hal_flash_ex.c **** 
 1683              		.loc 1 1451 3 view .LVU625
1453:Drivers/STM32H7xx_HAL_Driver/Src/stm32h7xx_hal_flash_ex.c ****   {
 1684              		.loc 1 1453 3 view .LVU626
1460:Drivers/STM32H7xx_HAL_Driver/Src/stm32h7xx_hal_flash_ex.c ****   {
 1685              		.loc 1 1460 3 view .LVU627
1462:Drivers/STM32H7xx_HAL_Driver/Src/stm32h7xx_hal_flash_ex.c ****     bankBase = FLASH_BANK2_BASE;
 1686              		.loc 1 1462 5 view .LVU628
1462:Drivers/STM32H7xx_HAL_Driver/Src/stm32h7xx_hal_flash_ex.c ****     bankBase = FLASH_BANK2_BASE;
 1687              		.loc 1 1462 14 is_stmt 0 view .LVU629
 1688 006c D2F82811 		ldr	r1, [r2, #296]
 1689              	.LVL130:
1463:Drivers/STM32H7xx_HAL_Driver/Src/stm32h7xx_hal_flash_ex.c ****   }
 1690              		.loc 1 1463 5 is_stmt 1 view .LVU630
1467:Drivers/STM32H7xx_HAL_Driver/Src/stm32h7xx_hal_flash_ex.c **** 
 1691              		.loc 1 1467 3 view .LVU631
1469:Drivers/STM32H7xx_HAL_Driver/Src/stm32h7xx_hal_flash_ex.c ****   (*PCROPEndAddr) = (regvalue & FLASH_PRAR_PROT_AREA_END) >> FLASH_PRAR_PROT_AREA_END_Pos;
 1692              		.loc 1 1469 64 is_stmt 0 view .LVU632
 1693 0070 254B     		ldr	r3, .L228+12
1467:Drivers/STM32H7xx_HAL_Driver/Src/stm32h7xx_hal_flash_ex.c **** 
 1694              		.loc 1 1467 31 view .LVU633
 1695 0072 01F00044 		and	r4, r1, #-2147483648
1467:Drivers/STM32H7xx_HAL_Driver/Src/stm32h7xx_hal_flash_ex.c **** 
 1696              		.loc 1 1467 18 view .LVU634
 1697 0076 0462     		str	r4, [r0, #32]
1469:Drivers/STM32H7xx_HAL_Driver/Src/stm32h7xx_hal_flash_ex.c ****   (*PCROPEndAddr) = (regvalue & FLASH_PRAR_PROT_AREA_END) >> FLASH_PRAR_PROT_AREA_END_Pos;
 1698              		.loc 1 1469 3 is_stmt 1 view .LVU635
1469:Drivers/STM32H7xx_HAL_Driver/Src/stm32h7xx_hal_flash_ex.c ****   (*PCROPEndAddr) = (regvalue & FLASH_PRAR_PROT_AREA_END) >> FLASH_PRAR_PROT_AREA_END_Pos;
 1699              		.loc 1 1469 64 is_stmt 0 view .LVU636
 1700 0078 03EA0124 		and	r4, r3, r1, lsl #8
1471:Drivers/STM32H7xx_HAL_Driver/Src/stm32h7xx_hal_flash_ex.c **** }
 1701              		.loc 1 1471 38 view .LVU637
 1702 007c 03EA1121 		and	r1, r3, r1, lsr #8
 1703              	.LVL131:
1469:Drivers/STM32H7xx_HAL_Driver/Src/stm32h7xx_hal_flash_ex.c ****   (*PCROPEndAddr) = (regvalue & FLASH_PRAR_PROT_AREA_END) >> FLASH_PRAR_PROT_AREA_END_Pos;
 1704              		.loc 1 1469 70 view .LVU638
 1705 0080 04F10164 		add	r4, r4, #135266304
1471:Drivers/STM32H7xx_HAL_Driver/Src/stm32h7xx_hal_flash_ex.c **** }
 1706              		.loc 1 1471 44 view .LVU639
 1707 0084 01F10161 		add	r1, r1, #135266304
1471:Drivers/STM32H7xx_HAL_Driver/Src/stm32h7xx_hal_flash_ex.c **** }
 1708              		.loc 1 1471 19 view .LVU640
 1709 0088 C0E90941 		strd	r4, r1, [r0, #36]
 1710              	.LVL132:
1471:Drivers/STM32H7xx_HAL_Driver/Src/stm32h7xx_hal_flash_ex.c **** }
 1711              		.loc 1 1471 19 view .LVU641
 1712              	.LBE124:
 1713              	.LBE123:
 587:Drivers/STM32H7xx_HAL_Driver/Src/stm32h7xx_hal_flash_ex.c ****   }
 1714              		.loc 1 587 5 is_stmt 1 view .LVU642
 1715              	.LBB126:
 1716              	.LBI126:
1667:Drivers/STM32H7xx_HAL_Driver/Src/stm32h7xx_hal_flash_ex.c ****   }
1668:Drivers/STM32H7xx_HAL_Driver/Src/stm32h7xx_hal_flash_ex.c **** #endif /* DUAL_BANK */
ARM GAS  C:\Users\MadeuxS\AppData\Local\Temp\ccAPGHhR.s 			page 70


1669:Drivers/STM32H7xx_HAL_Driver/Src/stm32h7xx_hal_flash_ex.c **** }
1670:Drivers/STM32H7xx_HAL_Driver/Src/stm32h7xx_hal_flash_ex.c **** 
1671:Drivers/STM32H7xx_HAL_Driver/Src/stm32h7xx_hal_flash_ex.c **** /**
1672:Drivers/STM32H7xx_HAL_Driver/Src/stm32h7xx_hal_flash_ex.c ****   * @brief  Get secure area configuration
1673:Drivers/STM32H7xx_HAL_Driver/Src/stm32h7xx_hal_flash_ex.c ****   * @param  SecureAreaConfig indicates if the secure area will be deleted or not
1674:Drivers/STM32H7xx_HAL_Driver/Src/stm32h7xx_hal_flash_ex.c ****   *         when RDP level decreased from Level 1 to Level 0 or during a mass erase.
1675:Drivers/STM32H7xx_HAL_Driver/Src/stm32h7xx_hal_flash_ex.c ****   * @param  SecureAreaStartAddr gives the secure area start address
1676:Drivers/STM32H7xx_HAL_Driver/Src/stm32h7xx_hal_flash_ex.c ****   * @param  SecureAreaEndAddr gives the secure area end address
1677:Drivers/STM32H7xx_HAL_Driver/Src/stm32h7xx_hal_flash_ex.c ****   * @param  Bank Specifies the Bank
1678:Drivers/STM32H7xx_HAL_Driver/Src/stm32h7xx_hal_flash_ex.c ****   * @retval None
1679:Drivers/STM32H7xx_HAL_Driver/Src/stm32h7xx_hal_flash_ex.c ****   */
1680:Drivers/STM32H7xx_HAL_Driver/Src/stm32h7xx_hal_flash_ex.c **** static void FLASH_OB_GetSecureArea(uint32_t *SecureAreaConfig, uint32_t *SecureAreaStartAddr, uint3
 1717              		.loc 1 1680 13 view .LVU643
 1718              	.LBB127:
1681:Drivers/STM32H7xx_HAL_Driver/Src/stm32h7xx_hal_flash_ex.c **** {
1682:Drivers/STM32H7xx_HAL_Driver/Src/stm32h7xx_hal_flash_ex.c ****   uint32_t regvalue = 0;
 1719              		.loc 1 1682 3 view .LVU644
1683:Drivers/STM32H7xx_HAL_Driver/Src/stm32h7xx_hal_flash_ex.c ****   uint32_t bankBase = 0;
 1720              		.loc 1 1683 3 view .LVU645
1684:Drivers/STM32H7xx_HAL_Driver/Src/stm32h7xx_hal_flash_ex.c **** 
1685:Drivers/STM32H7xx_HAL_Driver/Src/stm32h7xx_hal_flash_ex.c ****   /* Check Bank parameter value */
1686:Drivers/STM32H7xx_HAL_Driver/Src/stm32h7xx_hal_flash_ex.c ****   if(Bank == FLASH_BANK_1)
 1721              		.loc 1 1686 3 view .LVU646
1687:Drivers/STM32H7xx_HAL_Driver/Src/stm32h7xx_hal_flash_ex.c ****   {
1688:Drivers/STM32H7xx_HAL_Driver/Src/stm32h7xx_hal_flash_ex.c ****     regvalue = FLASH->SCAR_CUR1;
1689:Drivers/STM32H7xx_HAL_Driver/Src/stm32h7xx_hal_flash_ex.c ****     bankBase = FLASH_BANK1_BASE;
1690:Drivers/STM32H7xx_HAL_Driver/Src/stm32h7xx_hal_flash_ex.c ****   }
1691:Drivers/STM32H7xx_HAL_Driver/Src/stm32h7xx_hal_flash_ex.c **** 
1692:Drivers/STM32H7xx_HAL_Driver/Src/stm32h7xx_hal_flash_ex.c **** #if defined (DUAL_BANK)
1693:Drivers/STM32H7xx_HAL_Driver/Src/stm32h7xx_hal_flash_ex.c ****   if(Bank == FLASH_BANK_2)
 1722              		.loc 1 1693 3 view .LVU647
1694:Drivers/STM32H7xx_HAL_Driver/Src/stm32h7xx_hal_flash_ex.c ****   {
1695:Drivers/STM32H7xx_HAL_Driver/Src/stm32h7xx_hal_flash_ex.c ****     regvalue = FLASH->SCAR_CUR2;
 1723              		.loc 1 1695 5 view .LVU648
 1724              		.loc 1 1695 14 is_stmt 0 view .LVU649
 1725 008c D2F83021 		ldr	r2, [r2, #304]
 1726              	.LVL133:
1696:Drivers/STM32H7xx_HAL_Driver/Src/stm32h7xx_hal_flash_ex.c ****     bankBase = FLASH_BANK2_BASE;
 1727              		.loc 1 1696 5 is_stmt 1 view .LVU650
1697:Drivers/STM32H7xx_HAL_Driver/Src/stm32h7xx_hal_flash_ex.c ****   }
1698:Drivers/STM32H7xx_HAL_Driver/Src/stm32h7xx_hal_flash_ex.c **** #endif /* DUAL_BANK */
1699:Drivers/STM32H7xx_HAL_Driver/Src/stm32h7xx_hal_flash_ex.c **** 
1700:Drivers/STM32H7xx_HAL_Driver/Src/stm32h7xx_hal_flash_ex.c ****   /* Get the secure area settings */
1701:Drivers/STM32H7xx_HAL_Driver/Src/stm32h7xx_hal_flash_ex.c ****   (*SecureAreaConfig) = (regvalue & FLASH_SCAR_DMES);
1702:Drivers/STM32H7xx_HAL_Driver/Src/stm32h7xx_hal_flash_ex.c ****   (*SecureAreaStartAddr) = ((regvalue & FLASH_SCAR_SEC_AREA_START) << 8) + bankBase;
1703:Drivers/STM32H7xx_HAL_Driver/Src/stm32h7xx_hal_flash_ex.c ****   (*SecureAreaEndAddr) = (regvalue & FLASH_SCAR_SEC_AREA_END) >> FLASH_SCAR_SEC_AREA_END_Pos;
1704:Drivers/STM32H7xx_HAL_Driver/Src/stm32h7xx_hal_flash_ex.c ****   (*SecureAreaEndAddr) = ((*SecureAreaEndAddr) << 8) + bankBase;
1705:Drivers/STM32H7xx_HAL_Driver/Src/stm32h7xx_hal_flash_ex.c **** }
 1728              		.loc 1 1705 1 is_stmt 0 view .LVU651
 1729 0090 7F21     		movs	r1, #127
1702:Drivers/STM32H7xx_HAL_Driver/Src/stm32h7xx_hal_flash_ex.c ****   (*SecureAreaEndAddr) = (regvalue & FLASH_SCAR_SEC_AREA_END) >> FLASH_SCAR_SEC_AREA_END_Pos;
 1730              		.loc 1 1702 68 view .LVU652
 1731 0092 03EA0224 		and	r4, r3, r2, lsl #8
1704:Drivers/STM32H7xx_HAL_Driver/Src/stm32h7xx_hal_flash_ex.c **** }
 1732              		.loc 1 1704 48 view .LVU653
 1733 0096 03EA1223 		and	r3, r3, r2, lsr #8
1701:Drivers/STM32H7xx_HAL_Driver/Src/stm32h7xx_hal_flash_ex.c ****   (*SecureAreaStartAddr) = ((regvalue & FLASH_SCAR_SEC_AREA_START) << 8) + bankBase;
ARM GAS  C:\Users\MadeuxS\AppData\Local\Temp\ccAPGHhR.s 			page 71


 1734              		.loc 1 1701 35 view .LVU654
 1735 009a 02F00042 		and	r2, r2, #-2147483648
 1736              	.LVL134:
1702:Drivers/STM32H7xx_HAL_Driver/Src/stm32h7xx_hal_flash_ex.c ****   (*SecureAreaEndAddr) = (regvalue & FLASH_SCAR_SEC_AREA_END) >> FLASH_SCAR_SEC_AREA_END_Pos;
 1737              		.loc 1 1702 74 view .LVU655
 1738 009e 04F10164 		add	r4, r4, #135266304
1704:Drivers/STM32H7xx_HAL_Driver/Src/stm32h7xx_hal_flash_ex.c **** }
 1739              		.loc 1 1704 54 view .LVU656
 1740 00a2 03F10163 		add	r3, r3, #135266304
 1741              	.LVL135:
1701:Drivers/STM32H7xx_HAL_Driver/Src/stm32h7xx_hal_flash_ex.c ****   (*SecureAreaStartAddr) = ((regvalue & FLASH_SCAR_SEC_AREA_START) << 8) + bankBase;
 1742              		.loc 1 1701 3 is_stmt 1 view .LVU657
1702:Drivers/STM32H7xx_HAL_Driver/Src/stm32h7xx_hal_flash_ex.c ****   (*SecureAreaEndAddr) = (regvalue & FLASH_SCAR_SEC_AREA_END) >> FLASH_SCAR_SEC_AREA_END_Pos;
 1743              		.loc 1 1702 26 is_stmt 0 view .LVU658
 1744 00a6 C0E90E24 		strd	r2, r4, [r0, #56]
1703:Drivers/STM32H7xx_HAL_Driver/Src/stm32h7xx_hal_flash_ex.c ****   (*SecureAreaEndAddr) = ((*SecureAreaEndAddr) << 8) + bankBase;
 1745              		.loc 1 1703 3 is_stmt 1 view .LVU659
1704:Drivers/STM32H7xx_HAL_Driver/Src/stm32h7xx_hal_flash_ex.c **** }
 1746              		.loc 1 1704 3 view .LVU660
1704:Drivers/STM32H7xx_HAL_Driver/Src/stm32h7xx_hal_flash_ex.c **** }
 1747              		.loc 1 1704 24 is_stmt 0 view .LVU661
 1748 00aa 0364     		str	r3, [r0, #64]
 1749              		.loc 1 1705 1 view .LVU662
 1750 00ac C6E7     		b	.L217
 1751              	.LVL136:
 1752              	.L227:
 1753              		.loc 1 1705 1 view .LVU663
 1754              	.LBE127:
 1755              	.LBE126:
 1756              	.LBB129:
 1757              	.LBB121:
1064:Drivers/STM32H7xx_HAL_Driver/Src/stm32h7xx_hal_flash_ex.c ****   }
 1758              		.loc 1 1064 5 is_stmt 1 view .LVU664
1064:Drivers/STM32H7xx_HAL_Driver/Src/stm32h7xx_hal_flash_ex.c ****   }
 1759              		.loc 1 1064 14 is_stmt 0 view .LVU665
 1760 00ae 936B     		ldr	r3, [r2, #56]
 1761              	.LVL137:
1068:Drivers/STM32H7xx_HAL_Driver/Src/stm32h7xx_hal_flash_ex.c ****   {
 1762              		.loc 1 1068 3 is_stmt 1 view .LVU666
1074:Drivers/STM32H7xx_HAL_Driver/Src/stm32h7xx_hal_flash_ex.c **** 
 1763              		.loc 1 1074 19 is_stmt 0 view .LVU667
 1764 00b0 DB43     		mvns	r3, r3
 1765              	.LVL138:
1074:Drivers/STM32H7xx_HAL_Driver/Src/stm32h7xx_hal_flash_ex.c **** 
 1766              		.loc 1 1074 30 view .LVU668
 1767 00b2 DBB2     		uxtb	r3, r3
 1768              	.LVL139:
1074:Drivers/STM32H7xx_HAL_Driver/Src/stm32h7xx_hal_flash_ex.c **** 
 1769              		.loc 1 1074 3 is_stmt 1 view .LVU669
1076:Drivers/STM32H7xx_HAL_Driver/Src/stm32h7xx_hal_flash_ex.c ****   {
 1770              		.loc 1 1076 5 is_stmt 0 view .LVU670
 1771 00b4 191E     		subs	r1, r3, #0
 1772              	.LVL140:
1076:Drivers/STM32H7xx_HAL_Driver/Src/stm32h7xx_hal_flash_ex.c ****   {
 1773              		.loc 1 1076 5 view .LVU671
 1774 00b6 18BF     		it	ne
 1775 00b8 0121     		movne	r1, #1
ARM GAS  C:\Users\MadeuxS\AppData\Local\Temp\ccAPGHhR.s 			page 72


 1776 00ba C0E90113 		strd	r1, r3, [r0, #4]
 1777              	.LVL141:
1076:Drivers/STM32H7xx_HAL_Driver/Src/stm32h7xx_hal_flash_ex.c ****   {
 1778              		.loc 1 1076 5 view .LVU672
 1779              	.LBE121:
 1780              	.LBE129:
 584:Drivers/STM32H7xx_HAL_Driver/Src/stm32h7xx_hal_flash_ex.c **** 
 1781              		.loc 1 584 5 is_stmt 1 view .LVU673
 1782              	.LBB130:
1448:Drivers/STM32H7xx_HAL_Driver/Src/stm32h7xx_hal_flash_ex.c **** {
 1783              		.loc 1 1448 13 view .LVU674
 1784              	.LBB125:
1450:Drivers/STM32H7xx_HAL_Driver/Src/stm32h7xx_hal_flash_ex.c ****   uint32_t bankBase = 0;
 1785              		.loc 1 1450 3 view .LVU675
1451:Drivers/STM32H7xx_HAL_Driver/Src/stm32h7xx_hal_flash_ex.c **** 
 1786              		.loc 1 1451 3 view .LVU676
1453:Drivers/STM32H7xx_HAL_Driver/Src/stm32h7xx_hal_flash_ex.c ****   {
 1787              		.loc 1 1453 3 view .LVU677
1455:Drivers/STM32H7xx_HAL_Driver/Src/stm32h7xx_hal_flash_ex.c ****     bankBase = FLASH_BANK1_BASE;
 1788              		.loc 1 1455 5 view .LVU678
1455:Drivers/STM32H7xx_HAL_Driver/Src/stm32h7xx_hal_flash_ex.c ****     bankBase = FLASH_BANK1_BASE;
 1789              		.loc 1 1455 14 is_stmt 0 view .LVU679
 1790 00be 916A     		ldr	r1, [r2, #40]
 1791              	.LVL142:
1456:Drivers/STM32H7xx_HAL_Driver/Src/stm32h7xx_hal_flash_ex.c ****   }
 1792              		.loc 1 1456 5 is_stmt 1 view .LVU680
1460:Drivers/STM32H7xx_HAL_Driver/Src/stm32h7xx_hal_flash_ex.c ****   {
 1793              		.loc 1 1460 3 view .LVU681
1467:Drivers/STM32H7xx_HAL_Driver/Src/stm32h7xx_hal_flash_ex.c **** 
 1794              		.loc 1 1467 3 view .LVU682
1469:Drivers/STM32H7xx_HAL_Driver/Src/stm32h7xx_hal_flash_ex.c ****   (*PCROPEndAddr) = (regvalue & FLASH_PRAR_PROT_AREA_END) >> FLASH_PRAR_PROT_AREA_END_Pos;
 1795              		.loc 1 1469 64 is_stmt 0 view .LVU683
 1796 00c0 114B     		ldr	r3, .L228+12
1467:Drivers/STM32H7xx_HAL_Driver/Src/stm32h7xx_hal_flash_ex.c **** 
 1797              		.loc 1 1467 31 view .LVU684
 1798 00c2 01F00044 		and	r4, r1, #-2147483648
1467:Drivers/STM32H7xx_HAL_Driver/Src/stm32h7xx_hal_flash_ex.c **** 
 1799              		.loc 1 1467 18 view .LVU685
 1800 00c6 0462     		str	r4, [r0, #32]
1469:Drivers/STM32H7xx_HAL_Driver/Src/stm32h7xx_hal_flash_ex.c ****   (*PCROPEndAddr) = (regvalue & FLASH_PRAR_PROT_AREA_END) >> FLASH_PRAR_PROT_AREA_END_Pos;
 1801              		.loc 1 1469 3 is_stmt 1 view .LVU686
1469:Drivers/STM32H7xx_HAL_Driver/Src/stm32h7xx_hal_flash_ex.c ****   (*PCROPEndAddr) = (regvalue & FLASH_PRAR_PROT_AREA_END) >> FLASH_PRAR_PROT_AREA_END_Pos;
 1802              		.loc 1 1469 64 is_stmt 0 view .LVU687
 1803 00c8 03EA0124 		and	r4, r3, r1, lsl #8
1471:Drivers/STM32H7xx_HAL_Driver/Src/stm32h7xx_hal_flash_ex.c **** }
 1804              		.loc 1 1471 38 view .LVU688
 1805 00cc 03EA1121 		and	r1, r3, r1, lsr #8
1469:Drivers/STM32H7xx_HAL_Driver/Src/stm32h7xx_hal_flash_ex.c ****   (*PCROPEndAddr) = (regvalue & FLASH_PRAR_PROT_AREA_END) >> FLASH_PRAR_PROT_AREA_END_Pos;
 1806              		.loc 1 1469 70 view .LVU689
 1807 00d0 04F10064 		add	r4, r4, #134217728
1471:Drivers/STM32H7xx_HAL_Driver/Src/stm32h7xx_hal_flash_ex.c **** }
 1808              		.loc 1 1471 44 view .LVU690
 1809 00d4 01F10061 		add	r1, r1, #134217728
1471:Drivers/STM32H7xx_HAL_Driver/Src/stm32h7xx_hal_flash_ex.c **** }
 1810              		.loc 1 1471 19 view .LVU691
 1811 00d8 C0E90941 		strd	r4, r1, [r0, #36]
 1812              	.LVL143:
ARM GAS  C:\Users\MadeuxS\AppData\Local\Temp\ccAPGHhR.s 			page 73


1471:Drivers/STM32H7xx_HAL_Driver/Src/stm32h7xx_hal_flash_ex.c **** }
 1813              		.loc 1 1471 19 view .LVU692
 1814              	.LBE125:
 1815              	.LBE130:
 587:Drivers/STM32H7xx_HAL_Driver/Src/stm32h7xx_hal_flash_ex.c ****   }
 1816              		.loc 1 587 5 is_stmt 1 view .LVU693
 1817              	.LBB131:
1680:Drivers/STM32H7xx_HAL_Driver/Src/stm32h7xx_hal_flash_ex.c **** {
 1818              		.loc 1 1680 13 view .LVU694
 1819              	.LBB128:
1682:Drivers/STM32H7xx_HAL_Driver/Src/stm32h7xx_hal_flash_ex.c ****   uint32_t bankBase = 0;
 1820              		.loc 1 1682 3 view .LVU695
1683:Drivers/STM32H7xx_HAL_Driver/Src/stm32h7xx_hal_flash_ex.c **** 
 1821              		.loc 1 1683 3 view .LVU696
1686:Drivers/STM32H7xx_HAL_Driver/Src/stm32h7xx_hal_flash_ex.c ****   {
 1822              		.loc 1 1686 3 view .LVU697
1688:Drivers/STM32H7xx_HAL_Driver/Src/stm32h7xx_hal_flash_ex.c ****     bankBase = FLASH_BANK1_BASE;
 1823              		.loc 1 1688 5 view .LVU698
1688:Drivers/STM32H7xx_HAL_Driver/Src/stm32h7xx_hal_flash_ex.c ****     bankBase = FLASH_BANK1_BASE;
 1824              		.loc 1 1688 14 is_stmt 0 view .LVU699
 1825 00dc 126B     		ldr	r2, [r2, #48]
 1826              	.LVL144:
1689:Drivers/STM32H7xx_HAL_Driver/Src/stm32h7xx_hal_flash_ex.c ****   }
 1827              		.loc 1 1689 5 is_stmt 1 view .LVU700
1693:Drivers/STM32H7xx_HAL_Driver/Src/stm32h7xx_hal_flash_ex.c ****   {
 1828              		.loc 1 1693 3 view .LVU701
 1829              		.loc 1 1705 1 is_stmt 0 view .LVU702
 1830 00de 7F21     		movs	r1, #127
1702:Drivers/STM32H7xx_HAL_Driver/Src/stm32h7xx_hal_flash_ex.c ****   (*SecureAreaEndAddr) = (regvalue & FLASH_SCAR_SEC_AREA_END) >> FLASH_SCAR_SEC_AREA_END_Pos;
 1831              		.loc 1 1702 68 view .LVU703
 1832 00e0 03EA0224 		and	r4, r3, r2, lsl #8
1704:Drivers/STM32H7xx_HAL_Driver/Src/stm32h7xx_hal_flash_ex.c **** }
 1833              		.loc 1 1704 48 view .LVU704
 1834 00e4 03EA1223 		and	r3, r3, r2, lsr #8
1701:Drivers/STM32H7xx_HAL_Driver/Src/stm32h7xx_hal_flash_ex.c ****   (*SecureAreaStartAddr) = ((regvalue & FLASH_SCAR_SEC_AREA_START) << 8) + bankBase;
 1835              		.loc 1 1701 35 view .LVU705
 1836 00e8 02F00042 		and	r2, r2, #-2147483648
 1837              	.LVL145:
1702:Drivers/STM32H7xx_HAL_Driver/Src/stm32h7xx_hal_flash_ex.c ****   (*SecureAreaEndAddr) = (regvalue & FLASH_SCAR_SEC_AREA_END) >> FLASH_SCAR_SEC_AREA_END_Pos;
 1838              		.loc 1 1702 74 view .LVU706
 1839 00ec 04F10064 		add	r4, r4, #134217728
1704:Drivers/STM32H7xx_HAL_Driver/Src/stm32h7xx_hal_flash_ex.c **** }
 1840              		.loc 1 1704 54 view .LVU707
 1841 00f0 03F10063 		add	r3, r3, #134217728
1701:Drivers/STM32H7xx_HAL_Driver/Src/stm32h7xx_hal_flash_ex.c ****   (*SecureAreaStartAddr) = ((regvalue & FLASH_SCAR_SEC_AREA_START) << 8) + bankBase;
 1842              		.loc 1 1701 3 is_stmt 1 view .LVU708
1702:Drivers/STM32H7xx_HAL_Driver/Src/stm32h7xx_hal_flash_ex.c ****   (*SecureAreaEndAddr) = (regvalue & FLASH_SCAR_SEC_AREA_END) >> FLASH_SCAR_SEC_AREA_END_Pos;
 1843              		.loc 1 1702 26 is_stmt 0 view .LVU709
 1844 00f4 C0E90E24 		strd	r2, r4, [r0, #56]
1703:Drivers/STM32H7xx_HAL_Driver/Src/stm32h7xx_hal_flash_ex.c ****   (*SecureAreaEndAddr) = ((*SecureAreaEndAddr) << 8) + bankBase;
 1845              		.loc 1 1703 3 is_stmt 1 view .LVU710
1704:Drivers/STM32H7xx_HAL_Driver/Src/stm32h7xx_hal_flash_ex.c **** }
 1846              		.loc 1 1704 3 view .LVU711
1704:Drivers/STM32H7xx_HAL_Driver/Src/stm32h7xx_hal_flash_ex.c **** }
 1847              		.loc 1 1704 24 is_stmt 0 view .LVU712
 1848 00f8 0364     		str	r3, [r0, #64]
 1849 00fa 9FE7     		b	.L217
ARM GAS  C:\Users\MadeuxS\AppData\Local\Temp\ccAPGHhR.s 			page 74


 1850              	.L229:
 1851              		.align	2
 1852              	.L228:
 1853 00fc 00200052 		.word	1375739904
 1854 0100 F300FFFF 		.word	-65293
 1855 0104 0000FFFF 		.word	-65536
 1856 0108 00FF0F00 		.word	1048320
 1857              	.LBE128:
 1858              	.LBE131:
 1859              		.cfi_endproc
 1860              	.LFE147:
 1862              		.section	.text.HAL_FLASHEx_Unlock_Bank1,"ax",%progbits
 1863              		.align	1
 1864              		.p2align 2,,3
 1865              		.global	HAL_FLASHEx_Unlock_Bank1
 1866              		.syntax unified
 1867              		.thumb
 1868              		.thumb_func
 1869              		.fpu fpv5-d16
 1871              	HAL_FLASHEx_Unlock_Bank1:
 1872              	.LFB148:
 628:Drivers/STM32H7xx_HAL_Driver/Src/stm32h7xx_hal_flash_ex.c ****   if(READ_BIT(FLASH->CR1, FLASH_CR_LOCK) != 0U)
 1873              		.loc 1 628 1 is_stmt 1 view -0
 1874              		.cfi_startproc
 1875              		@ args = 0, pretend = 0, frame = 0
 1876              		@ frame_needed = 0, uses_anonymous_args = 0
 1877              		@ link register save eliminated.
 629:Drivers/STM32H7xx_HAL_Driver/Src/stm32h7xx_hal_flash_ex.c ****   {
 1878              		.loc 1 629 3 view .LVU714
 629:Drivers/STM32H7xx_HAL_Driver/Src/stm32h7xx_hal_flash_ex.c ****   {
 1879              		.loc 1 629 6 is_stmt 0 view .LVU715
 1880 0000 064B     		ldr	r3, .L233
 1881 0002 D868     		ldr	r0, [r3, #12]
 629:Drivers/STM32H7xx_HAL_Driver/Src/stm32h7xx_hal_flash_ex.c ****   {
 1882              		.loc 1 629 5 view .LVU716
 1883 0004 10F00100 		ands	r0, r0, #1
 1884 0008 06D0     		beq	.L231
 632:Drivers/STM32H7xx_HAL_Driver/Src/stm32h7xx_hal_flash_ex.c ****     WRITE_REG(FLASH->KEYR1, FLASH_KEY2);
 1885              		.loc 1 632 5 is_stmt 1 view .LVU717
 1886 000a 0549     		ldr	r1, .L233+4
 633:Drivers/STM32H7xx_HAL_Driver/Src/stm32h7xx_hal_flash_ex.c **** 
 1887              		.loc 1 633 5 is_stmt 0 view .LVU718
 1888 000c 054A     		ldr	r2, .L233+8
 632:Drivers/STM32H7xx_HAL_Driver/Src/stm32h7xx_hal_flash_ex.c ****     WRITE_REG(FLASH->KEYR1, FLASH_KEY2);
 1889              		.loc 1 632 5 view .LVU719
 1890 000e 5960     		str	r1, [r3, #4]
 633:Drivers/STM32H7xx_HAL_Driver/Src/stm32h7xx_hal_flash_ex.c **** 
 1891              		.loc 1 633 5 is_stmt 1 view .LVU720
 1892 0010 5A60     		str	r2, [r3, #4]
 636:Drivers/STM32H7xx_HAL_Driver/Src/stm32h7xx_hal_flash_ex.c ****     {
 1893              		.loc 1 636 5 view .LVU721
 636:Drivers/STM32H7xx_HAL_Driver/Src/stm32h7xx_hal_flash_ex.c ****     {
 1894              		.loc 1 636 9 is_stmt 0 view .LVU722
 1895 0012 D868     		ldr	r0, [r3, #12]
 636:Drivers/STM32H7xx_HAL_Driver/Src/stm32h7xx_hal_flash_ex.c ****     {
 1896              		.loc 1 636 8 view .LVU723
 1897 0014 00F00100 		and	r0, r0, #1
ARM GAS  C:\Users\MadeuxS\AppData\Local\Temp\ccAPGHhR.s 			page 75


 1898              	.L231:
 643:Drivers/STM32H7xx_HAL_Driver/Src/stm32h7xx_hal_flash_ex.c **** 
 1899              		.loc 1 643 1 view .LVU724
 1900 0018 7047     		bx	lr
 1901              	.L234:
 1902 001a 00BF     		.align	2
 1903              	.L233:
 1904 001c 00200052 		.word	1375739904
 1905 0020 23016745 		.word	1164378403
 1906 0024 AB89EFCD 		.word	-839939669
 1907              		.cfi_endproc
 1908              	.LFE148:
 1910              		.section	.text.HAL_FLASHEx_Lock_Bank1,"ax",%progbits
 1911              		.align	1
 1912              		.p2align 2,,3
 1913              		.global	HAL_FLASHEx_Lock_Bank1
 1914              		.syntax unified
 1915              		.thumb
 1916              		.thumb_func
 1917              		.fpu fpv5-d16
 1919              	HAL_FLASHEx_Lock_Bank1:
 1920              	.LFB149:
 650:Drivers/STM32H7xx_HAL_Driver/Src/stm32h7xx_hal_flash_ex.c ****   /* Set the LOCK Bit to lock the FLASH Bank1 Registers access */
 1921              		.loc 1 650 1 is_stmt 1 view -0
 1922              		.cfi_startproc
 1923              		@ args = 0, pretend = 0, frame = 0
 1924              		@ frame_needed = 0, uses_anonymous_args = 0
 1925              		@ link register save eliminated.
 652:Drivers/STM32H7xx_HAL_Driver/Src/stm32h7xx_hal_flash_ex.c ****   return HAL_OK;
 1926              		.loc 1 652 3 view .LVU726
 1927 0000 034A     		ldr	r2, .L236
 654:Drivers/STM32H7xx_HAL_Driver/Src/stm32h7xx_hal_flash_ex.c **** 
 1928              		.loc 1 654 1 is_stmt 0 view .LVU727
 1929 0002 0020     		movs	r0, #0
 652:Drivers/STM32H7xx_HAL_Driver/Src/stm32h7xx_hal_flash_ex.c ****   return HAL_OK;
 1930              		.loc 1 652 3 view .LVU728
 1931 0004 D368     		ldr	r3, [r2, #12]
 1932 0006 43F00103 		orr	r3, r3, #1
 1933 000a D360     		str	r3, [r2, #12]
 653:Drivers/STM32H7xx_HAL_Driver/Src/stm32h7xx_hal_flash_ex.c **** }
 1934              		.loc 1 653 3 is_stmt 1 view .LVU729
 654:Drivers/STM32H7xx_HAL_Driver/Src/stm32h7xx_hal_flash_ex.c **** 
 1935              		.loc 1 654 1 is_stmt 0 view .LVU730
 1936 000c 7047     		bx	lr
 1937              	.L237:
 1938 000e 00BF     		.align	2
 1939              	.L236:
 1940 0010 00200052 		.word	1375739904
 1941              		.cfi_endproc
 1942              	.LFE149:
 1944              		.section	.text.HAL_FLASHEx_Unlock_Bank2,"ax",%progbits
 1945              		.align	1
 1946              		.p2align 2,,3
 1947              		.global	HAL_FLASHEx_Unlock_Bank2
 1948              		.syntax unified
 1949              		.thumb
 1950              		.thumb_func
ARM GAS  C:\Users\MadeuxS\AppData\Local\Temp\ccAPGHhR.s 			page 76


 1951              		.fpu fpv5-d16
 1953              	HAL_FLASHEx_Unlock_Bank2:
 1954              	.LFB150:
 662:Drivers/STM32H7xx_HAL_Driver/Src/stm32h7xx_hal_flash_ex.c ****   if(READ_BIT(FLASH->CR2, FLASH_CR_LOCK) != 0U)
 1955              		.loc 1 662 1 is_stmt 1 view -0
 1956              		.cfi_startproc
 1957              		@ args = 0, pretend = 0, frame = 0
 1958              		@ frame_needed = 0, uses_anonymous_args = 0
 1959              		@ link register save eliminated.
 663:Drivers/STM32H7xx_HAL_Driver/Src/stm32h7xx_hal_flash_ex.c ****   {
 1960              		.loc 1 663 3 view .LVU732
 663:Drivers/STM32H7xx_HAL_Driver/Src/stm32h7xx_hal_flash_ex.c ****   {
 1961              		.loc 1 663 6 is_stmt 0 view .LVU733
 1962 0000 084B     		ldr	r3, .L241
 1963 0002 D3F80C01 		ldr	r0, [r3, #268]
 663:Drivers/STM32H7xx_HAL_Driver/Src/stm32h7xx_hal_flash_ex.c ****   {
 1964              		.loc 1 663 5 view .LVU734
 1965 0006 10F00100 		ands	r0, r0, #1
 1966 000a 09D0     		beq	.L239
 666:Drivers/STM32H7xx_HAL_Driver/Src/stm32h7xx_hal_flash_ex.c ****     WRITE_REG(FLASH->KEYR2, FLASH_KEY2);
 1967              		.loc 1 666 5 is_stmt 1 view .LVU735
 1968 000c 0649     		ldr	r1, .L241+4
 667:Drivers/STM32H7xx_HAL_Driver/Src/stm32h7xx_hal_flash_ex.c **** 
 1969              		.loc 1 667 5 is_stmt 0 view .LVU736
 1970 000e 074A     		ldr	r2, .L241+8
 666:Drivers/STM32H7xx_HAL_Driver/Src/stm32h7xx_hal_flash_ex.c ****     WRITE_REG(FLASH->KEYR2, FLASH_KEY2);
 1971              		.loc 1 666 5 view .LVU737
 1972 0010 C3F80411 		str	r1, [r3, #260]
 667:Drivers/STM32H7xx_HAL_Driver/Src/stm32h7xx_hal_flash_ex.c **** 
 1973              		.loc 1 667 5 is_stmt 1 view .LVU738
 1974 0014 C3F80421 		str	r2, [r3, #260]
 670:Drivers/STM32H7xx_HAL_Driver/Src/stm32h7xx_hal_flash_ex.c ****     {
 1975              		.loc 1 670 5 view .LVU739
 670:Drivers/STM32H7xx_HAL_Driver/Src/stm32h7xx_hal_flash_ex.c ****     {
 1976              		.loc 1 670 9 is_stmt 0 view .LVU740
 1977 0018 D3F80C01 		ldr	r0, [r3, #268]
 670:Drivers/STM32H7xx_HAL_Driver/Src/stm32h7xx_hal_flash_ex.c ****     {
 1978              		.loc 1 670 8 view .LVU741
 1979 001c 00F00100 		and	r0, r0, #1
 1980              	.L239:
 677:Drivers/STM32H7xx_HAL_Driver/Src/stm32h7xx_hal_flash_ex.c **** 
 1981              		.loc 1 677 1 view .LVU742
 1982 0020 7047     		bx	lr
 1983              	.L242:
 1984 0022 00BF     		.align	2
 1985              	.L241:
 1986 0024 00200052 		.word	1375739904
 1987 0028 23016745 		.word	1164378403
 1988 002c AB89EFCD 		.word	-839939669
 1989              		.cfi_endproc
 1990              	.LFE150:
 1992              		.section	.text.HAL_FLASHEx_Lock_Bank2,"ax",%progbits
 1993              		.align	1
 1994              		.p2align 2,,3
 1995              		.global	HAL_FLASHEx_Lock_Bank2
 1996              		.syntax unified
 1997              		.thumb
ARM GAS  C:\Users\MadeuxS\AppData\Local\Temp\ccAPGHhR.s 			page 77


 1998              		.thumb_func
 1999              		.fpu fpv5-d16
 2001              	HAL_FLASHEx_Lock_Bank2:
 2002              	.LFB151:
 684:Drivers/STM32H7xx_HAL_Driver/Src/stm32h7xx_hal_flash_ex.c ****   /* Set the LOCK Bit to lock the FLASH Bank2 Registers access */
 2003              		.loc 1 684 1 is_stmt 1 view -0
 2004              		.cfi_startproc
 2005              		@ args = 0, pretend = 0, frame = 0
 2006              		@ frame_needed = 0, uses_anonymous_args = 0
 2007              		@ link register save eliminated.
 686:Drivers/STM32H7xx_HAL_Driver/Src/stm32h7xx_hal_flash_ex.c ****   return HAL_OK;
 2008              		.loc 1 686 3 view .LVU744
 2009 0000 044A     		ldr	r2, .L244
 688:Drivers/STM32H7xx_HAL_Driver/Src/stm32h7xx_hal_flash_ex.c **** #endif /* DUAL_BANK */
 2010              		.loc 1 688 1 is_stmt 0 view .LVU745
 2011 0002 0020     		movs	r0, #0
 686:Drivers/STM32H7xx_HAL_Driver/Src/stm32h7xx_hal_flash_ex.c ****   return HAL_OK;
 2012              		.loc 1 686 3 view .LVU746
 2013 0004 D2F80C31 		ldr	r3, [r2, #268]
 2014 0008 43F00103 		orr	r3, r3, #1
 2015 000c C2F80C31 		str	r3, [r2, #268]
 687:Drivers/STM32H7xx_HAL_Driver/Src/stm32h7xx_hal_flash_ex.c **** }
 2016              		.loc 1 687 3 is_stmt 1 view .LVU747
 688:Drivers/STM32H7xx_HAL_Driver/Src/stm32h7xx_hal_flash_ex.c **** #endif /* DUAL_BANK */
 2017              		.loc 1 688 1 is_stmt 0 view .LVU748
 2018 0010 7047     		bx	lr
 2019              	.L245:
 2020 0012 00BF     		.align	2
 2021              	.L244:
 2022 0014 00200052 		.word	1375739904
 2023              		.cfi_endproc
 2024              	.LFE151:
 2026              		.section	.text.HAL_FLASHEx_ComputeCRC,"ax",%progbits
 2027              		.align	1
 2028              		.p2align 2,,3
 2029              		.global	HAL_FLASHEx_ComputeCRC
 2030              		.syntax unified
 2031              		.thumb
 2032              		.thumb_func
 2033              		.fpu fpv5-d16
 2035              	HAL_FLASHEx_ComputeCRC:
 2036              	.LVL146:
 2037              	.LFB152:
 703:Drivers/STM32H7xx_HAL_Driver/Src/stm32h7xx_hal_flash_ex.c ****   HAL_StatusTypeDef status;
 2038              		.loc 1 703 1 is_stmt 1 view -0
 2039              		.cfi_startproc
 2040              		@ args = 0, pretend = 0, frame = 0
 2041              		@ frame_needed = 0, uses_anonymous_args = 0
 704:Drivers/STM32H7xx_HAL_Driver/Src/stm32h7xx_hal_flash_ex.c ****   uint32_t sector_index;
 2042              		.loc 1 704 3 view .LVU750
 705:Drivers/STM32H7xx_HAL_Driver/Src/stm32h7xx_hal_flash_ex.c **** 
 2043              		.loc 1 705 3 view .LVU751
 708:Drivers/STM32H7xx_HAL_Driver/Src/stm32h7xx_hal_flash_ex.c ****   assert_param(IS_FLASH_TYPECRC(pCRCInit->TypeCRC));
 2044              		.loc 1 708 3 view .LVU752
 709:Drivers/STM32H7xx_HAL_Driver/Src/stm32h7xx_hal_flash_ex.c **** 
 2045              		.loc 1 709 3 view .LVU753
 712:Drivers/STM32H7xx_HAL_Driver/Src/stm32h7xx_hal_flash_ex.c **** 
ARM GAS  C:\Users\MadeuxS\AppData\Local\Temp\ccAPGHhR.s 			page 78


 2046              		.loc 1 712 3 view .LVU754
 703:Drivers/STM32H7xx_HAL_Driver/Src/stm32h7xx_hal_flash_ex.c ****   HAL_StatusTypeDef status;
 2047              		.loc 1 703 1 is_stmt 0 view .LVU755
 2048 0000 38B5     		push	{r3, r4, r5, lr}
 2049              	.LCFI6:
 2050              		.cfi_def_cfa_offset 16
 2051              		.cfi_offset 3, -16
 2052              		.cfi_offset 4, -12
 2053              		.cfi_offset 5, -8
 2054              		.cfi_offset 14, -4
 703:Drivers/STM32H7xx_HAL_Driver/Src/stm32h7xx_hal_flash_ex.c ****   HAL_StatusTypeDef status;
 2055              		.loc 1 703 1 view .LVU756
 2056 0002 0546     		mov	r5, r0
 712:Drivers/STM32H7xx_HAL_Driver/Src/stm32h7xx_hal_flash_ex.c **** 
 2057              		.loc 1 712 12 view .LVU757
 2058 0004 4CF25030 		movw	r0, #50000
 2059              	.LVL147:
 703:Drivers/STM32H7xx_HAL_Driver/Src/stm32h7xx_hal_flash_ex.c ****   HAL_StatusTypeDef status;
 2060              		.loc 1 703 1 view .LVU758
 2061 0008 0C46     		mov	r4, r1
 712:Drivers/STM32H7xx_HAL_Driver/Src/stm32h7xx_hal_flash_ex.c **** 
 2062              		.loc 1 712 12 view .LVU759
 2063 000a FFF7FEFF 		bl	FLASH_OB_WaitForLastOperation
 2064              	.LVL148:
 714:Drivers/STM32H7xx_HAL_Driver/Src/stm32h7xx_hal_flash_ex.c ****   {
 2065              		.loc 1 714 3 is_stmt 1 view .LVU760
 714:Drivers/STM32H7xx_HAL_Driver/Src/stm32h7xx_hal_flash_ex.c ****   {
 2066              		.loc 1 714 6 is_stmt 0 view .LVU761
 2067 000e 0028     		cmp	r0, #0
 2068 0010 3ED1     		bne	.L247
 716:Drivers/STM32H7xx_HAL_Driver/Src/stm32h7xx_hal_flash_ex.c ****     {
 2069              		.loc 1 716 5 is_stmt 1 view .LVU762
 716:Drivers/STM32H7xx_HAL_Driver/Src/stm32h7xx_hal_flash_ex.c ****     {
 2070              		.loc 1 716 8 is_stmt 0 view .LVU763
 2071 0012 AB68     		ldr	r3, [r5, #8]
 2072 0014 012B     		cmp	r3, #1
 719:Drivers/STM32H7xx_HAL_Driver/Src/stm32h7xx_hal_flash_ex.c **** 
 2073              		.loc 1 719 18 view .LVU764
 2074 0016 554B     		ldr	r3, .L269
 716:Drivers/STM32H7xx_HAL_Driver/Src/stm32h7xx_hal_flash_ex.c ****     {
 2075              		.loc 1 716 8 view .LVU765
 2076 0018 3BD0     		beq	.L264
 768:Drivers/STM32H7xx_HAL_Driver/Src/stm32h7xx_hal_flash_ex.c **** 
 2077              		.loc 1 768 7 is_stmt 1 view .LVU766
 768:Drivers/STM32H7xx_HAL_Driver/Src/stm32h7xx_hal_flash_ex.c **** 
 2078              		.loc 1 768 18 is_stmt 0 view .LVU767
 2079 001a D3F80C21 		ldr	r2, [r3, #268]
 2080 001e 42F40042 		orr	r2, r2, #32768
 2081 0022 C3F80C21 		str	r2, [r3, #268]
 771:Drivers/STM32H7xx_HAL_Driver/Src/stm32h7xx_hal_flash_ex.c **** 
 2082              		.loc 1 771 7 is_stmt 1 view .LVU768
 771:Drivers/STM32H7xx_HAL_Driver/Src/stm32h7xx_hal_flash_ex.c **** 
 2083              		.loc 1 771 19 is_stmt 0 view .LVU769
 2084 0026 D3F81421 		ldr	r2, [r3, #276]
 2085 002a 42F0C052 		orr	r2, r2, #402653184
 2086 002e C3F81421 		str	r2, [r3, #276]
 774:Drivers/STM32H7xx_HAL_Driver/Src/stm32h7xx_hal_flash_ex.c **** 
ARM GAS  C:\Users\MadeuxS\AppData\Local\Temp\ccAPGHhR.s 			page 79


 2087              		.loc 1 774 7 is_stmt 1 view .LVU770
 774:Drivers/STM32H7xx_HAL_Driver/Src/stm32h7xx_hal_flash_ex.c **** 
 2088              		.loc 1 774 21 is_stmt 0 view .LVU771
 2089 0032 D3F85001 		ldr	r0, [r3, #336]
 2090              	.LVL149:
 774:Drivers/STM32H7xx_HAL_Driver/Src/stm32h7xx_hal_flash_ex.c **** 
 2091              		.loc 1 774 68 view .LVU772
 2092 0036 D5E90012 		ldrd	r1, r2, [r5]
 2093 003a 0A43     		orrs	r2, r2, r1
 776:Drivers/STM32H7xx_HAL_Driver/Src/stm32h7xx_hal_flash_ex.c ****       {
 2094              		.loc 1 776 10 view .LVU773
 2095 003c B1F5807F 		cmp	r1, #256
 774:Drivers/STM32H7xx_HAL_Driver/Src/stm32h7xx_hal_flash_ex.c **** 
 2096              		.loc 1 774 21 view .LVU774
 2097 0040 42EA0002 		orr	r2, r2, r0
 2098 0044 42F40032 		orr	r2, r2, #131072
 2099 0048 C3F85021 		str	r2, [r3, #336]
 776:Drivers/STM32H7xx_HAL_Driver/Src/stm32h7xx_hal_flash_ex.c ****       {
 2100              		.loc 1 776 7 is_stmt 1 view .LVU775
 776:Drivers/STM32H7xx_HAL_Driver/Src/stm32h7xx_hal_flash_ex.c ****       {
 2101              		.loc 1 776 10 is_stmt 0 view .LVU776
 2102 004c 57D0     		beq	.L265
 787:Drivers/STM32H7xx_HAL_Driver/Src/stm32h7xx_hal_flash_ex.c ****       {
 2103              		.loc 1 787 12 is_stmt 1 view .LVU777
 787:Drivers/STM32H7xx_HAL_Driver/Src/stm32h7xx_hal_flash_ex.c ****       {
 2104              		.loc 1 787 15 is_stmt 0 view .LVU778
 2105 004e 484A     		ldr	r2, .L269+4
 2106 0050 9142     		cmp	r1, r2
 2107 0052 4DD0     		beq	.L266
 795:Drivers/STM32H7xx_HAL_Driver/Src/stm32h7xx_hal_flash_ex.c ****       }
 2108              		.loc 1 795 9 is_stmt 1 view .LVU779
 2109 0054 D5E90512 		ldrd	r1, r2, [r5, #20]
 2110              	.LVL150:
 2111              	.LBB142:
 2112              	.LBI142:
1706:Drivers/STM32H7xx_HAL_Driver/Src/stm32h7xx_hal_flash_ex.c **** 
1707:Drivers/STM32H7xx_HAL_Driver/Src/stm32h7xx_hal_flash_ex.c **** /**
1708:Drivers/STM32H7xx_HAL_Driver/Src/stm32h7xx_hal_flash_ex.c ****   * @brief  Add a CRC sector to the list of sectors on which the CRC will be calculated
1709:Drivers/STM32H7xx_HAL_Driver/Src/stm32h7xx_hal_flash_ex.c ****   * @param  Sector Specifies the CRC sector number
1710:Drivers/STM32H7xx_HAL_Driver/Src/stm32h7xx_hal_flash_ex.c ****   * @param  Bank Specifies the Bank
1711:Drivers/STM32H7xx_HAL_Driver/Src/stm32h7xx_hal_flash_ex.c ****   * @retval None
1712:Drivers/STM32H7xx_HAL_Driver/Src/stm32h7xx_hal_flash_ex.c ****   */
1713:Drivers/STM32H7xx_HAL_Driver/Src/stm32h7xx_hal_flash_ex.c **** static void FLASH_CRC_AddSector(uint32_t Sector, uint32_t Bank)
1714:Drivers/STM32H7xx_HAL_Driver/Src/stm32h7xx_hal_flash_ex.c **** {
1715:Drivers/STM32H7xx_HAL_Driver/Src/stm32h7xx_hal_flash_ex.c ****   /* Check the parameters */
1716:Drivers/STM32H7xx_HAL_Driver/Src/stm32h7xx_hal_flash_ex.c ****   assert_param(IS_FLASH_SECTOR(Sector));
1717:Drivers/STM32H7xx_HAL_Driver/Src/stm32h7xx_hal_flash_ex.c **** 
1718:Drivers/STM32H7xx_HAL_Driver/Src/stm32h7xx_hal_flash_ex.c ****   if (Bank == FLASH_BANK_1)
1719:Drivers/STM32H7xx_HAL_Driver/Src/stm32h7xx_hal_flash_ex.c ****   {
1720:Drivers/STM32H7xx_HAL_Driver/Src/stm32h7xx_hal_flash_ex.c ****     /* Clear CRC sector */
1721:Drivers/STM32H7xx_HAL_Driver/Src/stm32h7xx_hal_flash_ex.c ****     FLASH->CRCCR1 &= (~FLASH_CRCCR_CRC_SECT);
1722:Drivers/STM32H7xx_HAL_Driver/Src/stm32h7xx_hal_flash_ex.c **** 
1723:Drivers/STM32H7xx_HAL_Driver/Src/stm32h7xx_hal_flash_ex.c ****     /* Select CRC Sector and activate ADD_SECT bit */
1724:Drivers/STM32H7xx_HAL_Driver/Src/stm32h7xx_hal_flash_ex.c ****     FLASH->CRCCR1 |= Sector | FLASH_CRCCR_ADD_SECT;
1725:Drivers/STM32H7xx_HAL_Driver/Src/stm32h7xx_hal_flash_ex.c ****   }
1726:Drivers/STM32H7xx_HAL_Driver/Src/stm32h7xx_hal_flash_ex.c **** #if defined (DUAL_BANK)
1727:Drivers/STM32H7xx_HAL_Driver/Src/stm32h7xx_hal_flash_ex.c ****   else
ARM GAS  C:\Users\MadeuxS\AppData\Local\Temp\ccAPGHhR.s 			page 80


1728:Drivers/STM32H7xx_HAL_Driver/Src/stm32h7xx_hal_flash_ex.c ****   {
1729:Drivers/STM32H7xx_HAL_Driver/Src/stm32h7xx_hal_flash_ex.c ****     /* Clear CRC sector */
1730:Drivers/STM32H7xx_HAL_Driver/Src/stm32h7xx_hal_flash_ex.c ****     FLASH->CRCCR2 &= (~FLASH_CRCCR_CRC_SECT);
1731:Drivers/STM32H7xx_HAL_Driver/Src/stm32h7xx_hal_flash_ex.c **** 
1732:Drivers/STM32H7xx_HAL_Driver/Src/stm32h7xx_hal_flash_ex.c ****     /* Select CRC Sector and activate ADD_SECT bit */
1733:Drivers/STM32H7xx_HAL_Driver/Src/stm32h7xx_hal_flash_ex.c ****     FLASH->CRCCR2 |= Sector | FLASH_CRCCR_ADD_SECT;
1734:Drivers/STM32H7xx_HAL_Driver/Src/stm32h7xx_hal_flash_ex.c ****   }
1735:Drivers/STM32H7xx_HAL_Driver/Src/stm32h7xx_hal_flash_ex.c **** #endif /* DUAL_BANK */
1736:Drivers/STM32H7xx_HAL_Driver/Src/stm32h7xx_hal_flash_ex.c **** }
1737:Drivers/STM32H7xx_HAL_Driver/Src/stm32h7xx_hal_flash_ex.c **** 
1738:Drivers/STM32H7xx_HAL_Driver/Src/stm32h7xx_hal_flash_ex.c **** /**
1739:Drivers/STM32H7xx_HAL_Driver/Src/stm32h7xx_hal_flash_ex.c ****   * @brief  Select CRC start and end memory addresses on which the CRC will be calculated
1740:Drivers/STM32H7xx_HAL_Driver/Src/stm32h7xx_hal_flash_ex.c ****   * @param  CRCStartAddr Specifies the CRC start address
1741:Drivers/STM32H7xx_HAL_Driver/Src/stm32h7xx_hal_flash_ex.c ****   * @param  CRCEndAddr Specifies the CRC end address
1742:Drivers/STM32H7xx_HAL_Driver/Src/stm32h7xx_hal_flash_ex.c ****   * @param  Bank Specifies the Bank
1743:Drivers/STM32H7xx_HAL_Driver/Src/stm32h7xx_hal_flash_ex.c ****   * @retval None
1744:Drivers/STM32H7xx_HAL_Driver/Src/stm32h7xx_hal_flash_ex.c ****   */
1745:Drivers/STM32H7xx_HAL_Driver/Src/stm32h7xx_hal_flash_ex.c **** static void FLASH_CRC_SelectAddress(uint32_t CRCStartAddr, uint32_t CRCEndAddr, uint32_t Bank)
 2113              		.loc 1 1745 13 view .LVU780
 2114              	.LBB143:
1746:Drivers/STM32H7xx_HAL_Driver/Src/stm32h7xx_hal_flash_ex.c **** {
1747:Drivers/STM32H7xx_HAL_Driver/Src/stm32h7xx_hal_flash_ex.c ****   if (Bank == FLASH_BANK_1)
 2115              		.loc 1 1747 3 view .LVU781
1748:Drivers/STM32H7xx_HAL_Driver/Src/stm32h7xx_hal_flash_ex.c ****   {
1749:Drivers/STM32H7xx_HAL_Driver/Src/stm32h7xx_hal_flash_ex.c ****     assert_param(IS_FLASH_PROGRAM_ADDRESS_BANK1(CRCStartAddr));
1750:Drivers/STM32H7xx_HAL_Driver/Src/stm32h7xx_hal_flash_ex.c ****     assert_param(IS_FLASH_PROGRAM_ADDRESS_BANK1(CRCEndAddr));
1751:Drivers/STM32H7xx_HAL_Driver/Src/stm32h7xx_hal_flash_ex.c **** 
1752:Drivers/STM32H7xx_HAL_Driver/Src/stm32h7xx_hal_flash_ex.c ****     /* Write CRC Start and End addresses */
1753:Drivers/STM32H7xx_HAL_Driver/Src/stm32h7xx_hal_flash_ex.c ****     FLASH->CRCSADD1 = CRCStartAddr;
1754:Drivers/STM32H7xx_HAL_Driver/Src/stm32h7xx_hal_flash_ex.c ****     FLASH->CRCEADD1 = CRCEndAddr;
1755:Drivers/STM32H7xx_HAL_Driver/Src/stm32h7xx_hal_flash_ex.c ****   }
1756:Drivers/STM32H7xx_HAL_Driver/Src/stm32h7xx_hal_flash_ex.c **** #if defined (DUAL_BANK)
1757:Drivers/STM32H7xx_HAL_Driver/Src/stm32h7xx_hal_flash_ex.c ****   else
1758:Drivers/STM32H7xx_HAL_Driver/Src/stm32h7xx_hal_flash_ex.c ****   {
1759:Drivers/STM32H7xx_HAL_Driver/Src/stm32h7xx_hal_flash_ex.c ****     assert_param(IS_FLASH_PROGRAM_ADDRESS_BANK2(CRCStartAddr));
 2116              		.loc 1 1759 5 view .LVU782
1760:Drivers/STM32H7xx_HAL_Driver/Src/stm32h7xx_hal_flash_ex.c ****     assert_param(IS_FLASH_PROGRAM_ADDRESS_BANK2(CRCEndAddr));
 2117              		.loc 1 1760 5 view .LVU783
1761:Drivers/STM32H7xx_HAL_Driver/Src/stm32h7xx_hal_flash_ex.c **** 
1762:Drivers/STM32H7xx_HAL_Driver/Src/stm32h7xx_hal_flash_ex.c ****     /* Write CRC Start and End addresses */
1763:Drivers/STM32H7xx_HAL_Driver/Src/stm32h7xx_hal_flash_ex.c ****     FLASH->CRCSADD2 = CRCStartAddr;
 2118              		.loc 1 1763 5 view .LVU784
 2119              		.loc 1 1763 21 is_stmt 0 view .LVU785
 2120 0058 C3F85411 		str	r1, [r3, #340]
1764:Drivers/STM32H7xx_HAL_Driver/Src/stm32h7xx_hal_flash_ex.c ****     FLASH->CRCEADD2 = CRCEndAddr;
 2121              		.loc 1 1764 5 is_stmt 1 view .LVU786
 2122              		.loc 1 1764 21 is_stmt 0 view .LVU787
 2123 005c C3F85821 		str	r2, [r3, #344]
 2124              	.LVL151:
 2125              	.L256:
 2126              		.loc 1 1764 21 view .LVU788
 2127              	.LBE143:
 2128              	.LBE142:
 799:Drivers/STM32H7xx_HAL_Driver/Src/stm32h7xx_hal_flash_ex.c **** 
 2129              		.loc 1 799 7 is_stmt 1 view .LVU789
 799:Drivers/STM32H7xx_HAL_Driver/Src/stm32h7xx_hal_flash_ex.c **** 
 2130              		.loc 1 799 21 is_stmt 0 view .LVU790
ARM GAS  C:\Users\MadeuxS\AppData\Local\Temp\ccAPGHhR.s 			page 81


 2131 0060 424D     		ldr	r5, .L269
 2132              	.LVL152:
 802:Drivers/STM32H7xx_HAL_Driver/Src/stm32h7xx_hal_flash_ex.c **** 
 2133              		.loc 1 802 16 view .LVU791
 2134 0062 0221     		movs	r1, #2
 2135 0064 4CF25030 		movw	r0, #50000
 799:Drivers/STM32H7xx_HAL_Driver/Src/stm32h7xx_hal_flash_ex.c **** 
 2136              		.loc 1 799 21 view .LVU792
 2137 0068 D5F85031 		ldr	r3, [r5, #336]
 2138 006c 43F48033 		orr	r3, r3, #65536
 2139 0070 C5F85031 		str	r3, [r5, #336]
 802:Drivers/STM32H7xx_HAL_Driver/Src/stm32h7xx_hal_flash_ex.c **** 
 2140              		.loc 1 802 7 is_stmt 1 view .LVU793
 802:Drivers/STM32H7xx_HAL_Driver/Src/stm32h7xx_hal_flash_ex.c **** 
 2141              		.loc 1 802 16 is_stmt 0 view .LVU794
 2142 0074 FFF7FEFF 		bl	FLASH_CRC_WaitForLastOperation
 2143              	.LVL153:
 805:Drivers/STM32H7xx_HAL_Driver/Src/stm32h7xx_hal_flash_ex.c **** 
 2144              		.loc 1 805 28 view .LVU795
 2145 0078 EB6D     		ldr	r3, [r5, #92]
 811:Drivers/STM32H7xx_HAL_Driver/Src/stm32h7xx_hal_flash_ex.c ****     }
 2146              		.loc 1 811 7 view .LVU796
 2147 007a 4FF0C052 		mov	r2, #402653184
 2148              	.LVL154:
 805:Drivers/STM32H7xx_HAL_Driver/Src/stm32h7xx_hal_flash_ex.c **** 
 2149              		.loc 1 805 7 is_stmt 1 view .LVU797
 805:Drivers/STM32H7xx_HAL_Driver/Src/stm32h7xx_hal_flash_ex.c **** 
 2150              		.loc 1 805 21 is_stmt 0 view .LVU798
 2151 007e 2360     		str	r3, [r4]
 808:Drivers/STM32H7xx_HAL_Driver/Src/stm32h7xx_hal_flash_ex.c **** 
 2152              		.loc 1 808 7 is_stmt 1 view .LVU799
 808:Drivers/STM32H7xx_HAL_Driver/Src/stm32h7xx_hal_flash_ex.c **** 
 2153              		.loc 1 808 18 is_stmt 0 view .LVU800
 2154 0080 D5F80C31 		ldr	r3, [r5, #268]
 2155 0084 23F40043 		bic	r3, r3, #32768
 2156 0088 C5F80C31 		str	r3, [r5, #268]
 811:Drivers/STM32H7xx_HAL_Driver/Src/stm32h7xx_hal_flash_ex.c ****     }
 2157              		.loc 1 811 7 is_stmt 1 view .LVU801
 2158 008c C5F81421 		str	r2, [r5, #276]
 2159              	.L247:
 816:Drivers/STM32H7xx_HAL_Driver/Src/stm32h7xx_hal_flash_ex.c **** }
 2160              		.loc 1 816 3 view .LVU802
 817:Drivers/STM32H7xx_HAL_Driver/Src/stm32h7xx_hal_flash_ex.c **** 
 2161              		.loc 1 817 1 is_stmt 0 view .LVU803
 2162 0090 38BD     		pop	{r3, r4, r5, pc}
 2163              	.LVL155:
 2164              	.L264:
 719:Drivers/STM32H7xx_HAL_Driver/Src/stm32h7xx_hal_flash_ex.c **** 
 2165              		.loc 1 719 7 is_stmt 1 view .LVU804
 719:Drivers/STM32H7xx_HAL_Driver/Src/stm32h7xx_hal_flash_ex.c **** 
 2166              		.loc 1 719 18 is_stmt 0 view .LVU805
 2167 0092 DA68     		ldr	r2, [r3, #12]
 2168 0094 42F40042 		orr	r2, r2, #32768
 2169 0098 DA60     		str	r2, [r3, #12]
 722:Drivers/STM32H7xx_HAL_Driver/Src/stm32h7xx_hal_flash_ex.c **** 
 2170              		.loc 1 722 7 is_stmt 1 view .LVU806
 722:Drivers/STM32H7xx_HAL_Driver/Src/stm32h7xx_hal_flash_ex.c **** 
ARM GAS  C:\Users\MadeuxS\AppData\Local\Temp\ccAPGHhR.s 			page 82


 2171              		.loc 1 722 19 is_stmt 0 view .LVU807
 2172 009a 5A69     		ldr	r2, [r3, #20]
 2173 009c 42F0C052 		orr	r2, r2, #402653184
 2174 00a0 5A61     		str	r2, [r3, #20]
 725:Drivers/STM32H7xx_HAL_Driver/Src/stm32h7xx_hal_flash_ex.c **** 
 2175              		.loc 1 725 7 is_stmt 1 view .LVU808
 725:Drivers/STM32H7xx_HAL_Driver/Src/stm32h7xx_hal_flash_ex.c **** 
 2176              		.loc 1 725 21 is_stmt 0 view .LVU809
 2177 00a2 186D     		ldr	r0, [r3, #80]
 2178              	.LVL156:
 725:Drivers/STM32H7xx_HAL_Driver/Src/stm32h7xx_hal_flash_ex.c **** 
 2179              		.loc 1 725 68 view .LVU810
 2180 00a4 D5E90012 		ldrd	r1, r2, [r5]
 2181 00a8 0A43     		orrs	r2, r2, r1
 727:Drivers/STM32H7xx_HAL_Driver/Src/stm32h7xx_hal_flash_ex.c ****       {
 2182              		.loc 1 727 10 view .LVU811
 2183 00aa B1F5807F 		cmp	r1, #256
 725:Drivers/STM32H7xx_HAL_Driver/Src/stm32h7xx_hal_flash_ex.c **** 
 2184              		.loc 1 725 21 view .LVU812
 2185 00ae 42EA0002 		orr	r2, r2, r0
 2186 00b2 42F40032 		orr	r2, r2, #131072
 2187 00b6 1A65     		str	r2, [r3, #80]
 727:Drivers/STM32H7xx_HAL_Driver/Src/stm32h7xx_hal_flash_ex.c ****       {
 2188              		.loc 1 727 7 is_stmt 1 view .LVU813
 727:Drivers/STM32H7xx_HAL_Driver/Src/stm32h7xx_hal_flash_ex.c ****       {
 2189              		.loc 1 727 10 is_stmt 0 view .LVU814
 2190 00b8 3DD0     		beq	.L267
 738:Drivers/STM32H7xx_HAL_Driver/Src/stm32h7xx_hal_flash_ex.c ****       {
 2191              		.loc 1 738 12 is_stmt 1 view .LVU815
 738:Drivers/STM32H7xx_HAL_Driver/Src/stm32h7xx_hal_flash_ex.c ****       {
 2192              		.loc 1 738 15 is_stmt 0 view .LVU816
 2193 00ba 2D4A     		ldr	r2, .L269+4
 2194 00bc 9142     		cmp	r1, r2
 2195 00be 50D0     		beq	.L268
 746:Drivers/STM32H7xx_HAL_Driver/Src/stm32h7xx_hal_flash_ex.c ****       }
 2196              		.loc 1 746 9 is_stmt 1 view .LVU817
 2197 00c0 D5E90512 		ldrd	r1, r2, [r5, #20]
 2198              	.LVL157:
 2199              	.LBB144:
 2200              	.LBI144:
1745:Drivers/STM32H7xx_HAL_Driver/Src/stm32h7xx_hal_flash_ex.c **** {
 2201              		.loc 1 1745 13 view .LVU818
 2202              	.LBB145:
1747:Drivers/STM32H7xx_HAL_Driver/Src/stm32h7xx_hal_flash_ex.c ****   {
 2203              		.loc 1 1747 3 view .LVU819
1749:Drivers/STM32H7xx_HAL_Driver/Src/stm32h7xx_hal_flash_ex.c ****     assert_param(IS_FLASH_PROGRAM_ADDRESS_BANK1(CRCEndAddr));
 2204              		.loc 1 1749 5 view .LVU820
1750:Drivers/STM32H7xx_HAL_Driver/Src/stm32h7xx_hal_flash_ex.c **** 
 2205              		.loc 1 1750 5 view .LVU821
1753:Drivers/STM32H7xx_HAL_Driver/Src/stm32h7xx_hal_flash_ex.c ****     FLASH->CRCEADD1 = CRCEndAddr;
 2206              		.loc 1 1753 5 view .LVU822
1753:Drivers/STM32H7xx_HAL_Driver/Src/stm32h7xx_hal_flash_ex.c ****     FLASH->CRCEADD1 = CRCEndAddr;
 2207              		.loc 1 1753 21 is_stmt 0 view .LVU823
 2208 00c4 5965     		str	r1, [r3, #84]
1754:Drivers/STM32H7xx_HAL_Driver/Src/stm32h7xx_hal_flash_ex.c ****   }
 2209              		.loc 1 1754 5 is_stmt 1 view .LVU824
1754:Drivers/STM32H7xx_HAL_Driver/Src/stm32h7xx_hal_flash_ex.c ****   }
ARM GAS  C:\Users\MadeuxS\AppData\Local\Temp\ccAPGHhR.s 			page 83


 2210              		.loc 1 1754 21 is_stmt 0 view .LVU825
 2211 00c6 9A65     		str	r2, [r3, #88]
 2212              	.LVL158:
 2213              	.L251:
1754:Drivers/STM32H7xx_HAL_Driver/Src/stm32h7xx_hal_flash_ex.c ****   }
 2214              		.loc 1 1754 21 view .LVU826
 2215              	.LBE145:
 2216              	.LBE144:
 750:Drivers/STM32H7xx_HAL_Driver/Src/stm32h7xx_hal_flash_ex.c **** 
 2217              		.loc 1 750 7 is_stmt 1 view .LVU827
 750:Drivers/STM32H7xx_HAL_Driver/Src/stm32h7xx_hal_flash_ex.c **** 
 2218              		.loc 1 750 21 is_stmt 0 view .LVU828
 2219 00c8 284D     		ldr	r5, .L269
 2220              	.LVL159:
 753:Drivers/STM32H7xx_HAL_Driver/Src/stm32h7xx_hal_flash_ex.c **** 
 2221              		.loc 1 753 16 view .LVU829
 2222 00ca 0121     		movs	r1, #1
 2223 00cc 4CF25030 		movw	r0, #50000
 750:Drivers/STM32H7xx_HAL_Driver/Src/stm32h7xx_hal_flash_ex.c **** 
 2224              		.loc 1 750 21 view .LVU830
 2225 00d0 2B6D     		ldr	r3, [r5, #80]
 2226 00d2 43F48033 		orr	r3, r3, #65536
 2227 00d6 2B65     		str	r3, [r5, #80]
 753:Drivers/STM32H7xx_HAL_Driver/Src/stm32h7xx_hal_flash_ex.c **** 
 2228              		.loc 1 753 7 is_stmt 1 view .LVU831
 753:Drivers/STM32H7xx_HAL_Driver/Src/stm32h7xx_hal_flash_ex.c **** 
 2229              		.loc 1 753 16 is_stmt 0 view .LVU832
 2230 00d8 FFF7FEFF 		bl	FLASH_CRC_WaitForLastOperation
 2231              	.LVL160:
 756:Drivers/STM32H7xx_HAL_Driver/Src/stm32h7xx_hal_flash_ex.c **** 
 2232              		.loc 1 756 28 view .LVU833
 2233 00dc EB6D     		ldr	r3, [r5, #92]
 762:Drivers/STM32H7xx_HAL_Driver/Src/stm32h7xx_hal_flash_ex.c ****     }
 2234              		.loc 1 762 7 view .LVU834
 2235 00de 4FF0C052 		mov	r2, #402653184
 2236              	.LVL161:
 756:Drivers/STM32H7xx_HAL_Driver/Src/stm32h7xx_hal_flash_ex.c **** 
 2237              		.loc 1 756 7 is_stmt 1 view .LVU835
 756:Drivers/STM32H7xx_HAL_Driver/Src/stm32h7xx_hal_flash_ex.c **** 
 2238              		.loc 1 756 21 is_stmt 0 view .LVU836
 2239 00e2 2360     		str	r3, [r4]
 759:Drivers/STM32H7xx_HAL_Driver/Src/stm32h7xx_hal_flash_ex.c **** 
 2240              		.loc 1 759 7 is_stmt 1 view .LVU837
 759:Drivers/STM32H7xx_HAL_Driver/Src/stm32h7xx_hal_flash_ex.c **** 
 2241              		.loc 1 759 18 is_stmt 0 view .LVU838
 2242 00e4 EB68     		ldr	r3, [r5, #12]
 2243 00e6 23F40043 		bic	r3, r3, #32768
 2244 00ea EB60     		str	r3, [r5, #12]
 762:Drivers/STM32H7xx_HAL_Driver/Src/stm32h7xx_hal_flash_ex.c ****     }
 2245              		.loc 1 762 7 is_stmt 1 view .LVU839
 2246 00ec 6A61     		str	r2, [r5, #20]
 816:Drivers/STM32H7xx_HAL_Driver/Src/stm32h7xx_hal_flash_ex.c **** }
 2247              		.loc 1 816 3 view .LVU840
 817:Drivers/STM32H7xx_HAL_Driver/Src/stm32h7xx_hal_flash_ex.c **** 
 2248              		.loc 1 817 1 is_stmt 0 view .LVU841
 2249 00ee 38BD     		pop	{r3, r4, r5, pc}
 2250              	.LVL162:
ARM GAS  C:\Users\MadeuxS\AppData\Local\Temp\ccAPGHhR.s 			page 84


 2251              	.L266:
 790:Drivers/STM32H7xx_HAL_Driver/Src/stm32h7xx_hal_flash_ex.c ****       }
 2252              		.loc 1 790 9 is_stmt 1 view .LVU842
 790:Drivers/STM32H7xx_HAL_Driver/Src/stm32h7xx_hal_flash_ex.c ****       }
 2253              		.loc 1 790 23 is_stmt 0 view .LVU843
 2254 00f0 D3F85021 		ldr	r2, [r3, #336]
 2255 00f4 42F48002 		orr	r2, r2, #4194304
 2256 00f8 C3F85021 		str	r2, [r3, #336]
 2257 00fc B0E7     		b	.L256
 2258              	.L265:
 779:Drivers/STM32H7xx_HAL_Driver/Src/stm32h7xx_hal_flash_ex.c **** 
 2259              		.loc 1 779 9 is_stmt 1 view .LVU844
 779:Drivers/STM32H7xx_HAL_Driver/Src/stm32h7xx_hal_flash_ex.c **** 
 2260              		.loc 1 779 23 is_stmt 0 view .LVU845
 2261 00fe D3F85021 		ldr	r2, [r3, #336]
 2262 0102 42F48062 		orr	r2, r2, #1024
 2263 0106 C3F85021 		str	r2, [r3, #336]
 782:Drivers/STM32H7xx_HAL_Driver/Src/stm32h7xx_hal_flash_ex.c ****         {
 2264              		.loc 1 782 9 is_stmt 1 view .LVU846
 782:Drivers/STM32H7xx_HAL_Driver/Src/stm32h7xx_hal_flash_ex.c ****         {
 2265              		.loc 1 782 82 is_stmt 0 view .LVU847
 2266 010a D5E90310 		ldrd	r1, r0, [r5, #12]
 2267 010e 0844     		add	r0, r0, r1
 782:Drivers/STM32H7xx_HAL_Driver/Src/stm32h7xx_hal_flash_ex.c ****         {
 2268              		.loc 1 782 9 view .LVU848
 2269 0110 8142     		cmp	r1, r0
 2270 0112 A5D2     		bcs	.L256
 2271              	.L255:
 2272              	.LVL163:
 784:Drivers/STM32H7xx_HAL_Driver/Src/stm32h7xx_hal_flash_ex.c ****         }
 2273              		.loc 1 784 11 is_stmt 1 view .LVU849
 2274              	.LBB146:
 2275              	.LBI146:
1713:Drivers/STM32H7xx_HAL_Driver/Src/stm32h7xx_hal_flash_ex.c **** {
 2276              		.loc 1 1713 13 view .LVU850
 2277              	.LBB147:
1716:Drivers/STM32H7xx_HAL_Driver/Src/stm32h7xx_hal_flash_ex.c **** 
 2278              		.loc 1 1716 3 view .LVU851
1718:Drivers/STM32H7xx_HAL_Driver/Src/stm32h7xx_hal_flash_ex.c ****   {
 2279              		.loc 1 1718 3 view .LVU852
1730:Drivers/STM32H7xx_HAL_Driver/Src/stm32h7xx_hal_flash_ex.c **** 
 2280              		.loc 1 1730 5 view .LVU853
1730:Drivers/STM32H7xx_HAL_Driver/Src/stm32h7xx_hal_flash_ex.c **** 
 2281              		.loc 1 1730 19 is_stmt 0 view .LVU854
 2282 0114 D3F85021 		ldr	r2, [r3, #336]
 2283 0118 22F00702 		bic	r2, r2, #7
 2284 011c C3F85021 		str	r2, [r3, #336]
1733:Drivers/STM32H7xx_HAL_Driver/Src/stm32h7xx_hal_flash_ex.c ****   }
 2285              		.loc 1 1733 5 is_stmt 1 view .LVU855
1733:Drivers/STM32H7xx_HAL_Driver/Src/stm32h7xx_hal_flash_ex.c ****   }
 2286              		.loc 1 1733 19 is_stmt 0 view .LVU856
 2287 0120 D3F85021 		ldr	r2, [r3, #336]
 2288 0124 0A43     		orrs	r2, r2, r1
 2289              	.LBE147:
 2290              	.LBE146:
 782:Drivers/STM32H7xx_HAL_Driver/Src/stm32h7xx_hal_flash_ex.c ****         {
 2291              		.loc 1 782 115 view .LVU857
ARM GAS  C:\Users\MadeuxS\AppData\Local\Temp\ccAPGHhR.s 			page 85


 2292 0126 0131     		adds	r1, r1, #1
 2293              	.LVL164:
 2294              	.LBB150:
 2295              	.LBB148:
1733:Drivers/STM32H7xx_HAL_Driver/Src/stm32h7xx_hal_flash_ex.c ****   }
 2296              		.loc 1 1733 19 view .LVU858
 2297 0128 42F40072 		orr	r2, r2, #512
 2298              	.LBE148:
 2299              	.LBE150:
 782:Drivers/STM32H7xx_HAL_Driver/Src/stm32h7xx_hal_flash_ex.c ****         {
 2300              		.loc 1 782 9 view .LVU859
 2301 012c 8142     		cmp	r1, r0
 2302              	.LBB151:
 2303              	.LBB149:
1733:Drivers/STM32H7xx_HAL_Driver/Src/stm32h7xx_hal_flash_ex.c ****   }
 2304              		.loc 1 1733 19 view .LVU860
 2305 012e C3F85021 		str	r2, [r3, #336]
 2306              	.LVL165:
1733:Drivers/STM32H7xx_HAL_Driver/Src/stm32h7xx_hal_flash_ex.c ****   }
 2307              		.loc 1 1733 19 view .LVU861
 2308              	.LBE149:
 2309              	.LBE151:
 782:Drivers/STM32H7xx_HAL_Driver/Src/stm32h7xx_hal_flash_ex.c ****         {
 2310              		.loc 1 782 103 is_stmt 1 view .LVU862
 782:Drivers/STM32H7xx_HAL_Driver/Src/stm32h7xx_hal_flash_ex.c ****         {
 2311              		.loc 1 782 46 view .LVU863
 782:Drivers/STM32H7xx_HAL_Driver/Src/stm32h7xx_hal_flash_ex.c ****         {
 2312              		.loc 1 782 9 is_stmt 0 view .LVU864
 2313 0132 EFD1     		bne	.L255
 2314 0134 94E7     		b	.L256
 2315              	.LVL166:
 2316              	.L267:
 730:Drivers/STM32H7xx_HAL_Driver/Src/stm32h7xx_hal_flash_ex.c **** 
 2317              		.loc 1 730 9 is_stmt 1 view .LVU865
 730:Drivers/STM32H7xx_HAL_Driver/Src/stm32h7xx_hal_flash_ex.c **** 
 2318              		.loc 1 730 23 is_stmt 0 view .LVU866
 2319 0136 1A6D     		ldr	r2, [r3, #80]
 2320 0138 42F48062 		orr	r2, r2, #1024
 2321 013c 1A65     		str	r2, [r3, #80]
 733:Drivers/STM32H7xx_HAL_Driver/Src/stm32h7xx_hal_flash_ex.c ****         {
 2322              		.loc 1 733 9 is_stmt 1 view .LVU867
 733:Drivers/STM32H7xx_HAL_Driver/Src/stm32h7xx_hal_flash_ex.c ****         {
 2323              		.loc 1 733 82 is_stmt 0 view .LVU868
 2324 013e D5E90310 		ldrd	r1, r0, [r5, #12]
 2325 0142 0844     		add	r0, r0, r1
 733:Drivers/STM32H7xx_HAL_Driver/Src/stm32h7xx_hal_flash_ex.c ****         {
 2326              		.loc 1 733 9 view .LVU869
 2327 0144 8142     		cmp	r1, r0
 2328 0146 BFD2     		bcs	.L251
 2329              	.L250:
 2330              	.LVL167:
 735:Drivers/STM32H7xx_HAL_Driver/Src/stm32h7xx_hal_flash_ex.c ****         }
 2331              		.loc 1 735 11 is_stmt 1 view .LVU870
 2332              	.LBB152:
 2333              	.LBI152:
1713:Drivers/STM32H7xx_HAL_Driver/Src/stm32h7xx_hal_flash_ex.c **** {
 2334              		.loc 1 1713 13 view .LVU871
ARM GAS  C:\Users\MadeuxS\AppData\Local\Temp\ccAPGHhR.s 			page 86


 2335              	.LBE152:
1716:Drivers/STM32H7xx_HAL_Driver/Src/stm32h7xx_hal_flash_ex.c **** 
 2336              		.loc 1 1716 3 view .LVU872
1718:Drivers/STM32H7xx_HAL_Driver/Src/stm32h7xx_hal_flash_ex.c ****   {
 2337              		.loc 1 1718 3 view .LVU873
 2338              	.LBB159:
 2339              	.LBB153:
 2340              	.LBI153:
1713:Drivers/STM32H7xx_HAL_Driver/Src/stm32h7xx_hal_flash_ex.c **** {
 2341              		.loc 1 1713 13 view .LVU874
 2342              	.LBB154:
1721:Drivers/STM32H7xx_HAL_Driver/Src/stm32h7xx_hal_flash_ex.c **** 
 2343              		.loc 1 1721 5 view .LVU875
1721:Drivers/STM32H7xx_HAL_Driver/Src/stm32h7xx_hal_flash_ex.c **** 
 2344              		.loc 1 1721 19 is_stmt 0 view .LVU876
 2345 0148 1A6D     		ldr	r2, [r3, #80]
 2346 014a 22F00702 		bic	r2, r2, #7
 2347 014e 1A65     		str	r2, [r3, #80]
1724:Drivers/STM32H7xx_HAL_Driver/Src/stm32h7xx_hal_flash_ex.c ****   }
 2348              		.loc 1 1724 5 is_stmt 1 view .LVU877
1724:Drivers/STM32H7xx_HAL_Driver/Src/stm32h7xx_hal_flash_ex.c ****   }
 2349              		.loc 1 1724 19 is_stmt 0 view .LVU878
 2350 0150 1A6D     		ldr	r2, [r3, #80]
 2351 0152 0A43     		orrs	r2, r2, r1
 2352              	.LBE154:
 2353              	.LBE153:
 2354              	.LBE159:
 733:Drivers/STM32H7xx_HAL_Driver/Src/stm32h7xx_hal_flash_ex.c ****         {
 2355              		.loc 1 733 115 view .LVU879
 2356 0154 0131     		adds	r1, r1, #1
 2357              	.LVL168:
 2358              	.LBB160:
 2359              	.LBB157:
 2360              	.LBB155:
1724:Drivers/STM32H7xx_HAL_Driver/Src/stm32h7xx_hal_flash_ex.c ****   }
 2361              		.loc 1 1724 19 view .LVU880
 2362 0156 42F40072 		orr	r2, r2, #512
 2363              	.LBE155:
 2364              	.LBE157:
 2365              	.LBE160:
 733:Drivers/STM32H7xx_HAL_Driver/Src/stm32h7xx_hal_flash_ex.c ****         {
 2366              		.loc 1 733 9 view .LVU881
 2367 015a 8142     		cmp	r1, r0
 2368              	.LBB161:
 2369              	.LBB158:
 2370              	.LBB156:
1724:Drivers/STM32H7xx_HAL_Driver/Src/stm32h7xx_hal_flash_ex.c ****   }
 2371              		.loc 1 1724 19 view .LVU882
 2372 015c 1A65     		str	r2, [r3, #80]
 2373              	.LVL169:
1724:Drivers/STM32H7xx_HAL_Driver/Src/stm32h7xx_hal_flash_ex.c ****   }
 2374              		.loc 1 1724 19 view .LVU883
 2375              	.LBE156:
 2376              	.LBE158:
 2377              	.LBE161:
 733:Drivers/STM32H7xx_HAL_Driver/Src/stm32h7xx_hal_flash_ex.c ****         {
 2378              		.loc 1 733 103 is_stmt 1 view .LVU884
ARM GAS  C:\Users\MadeuxS\AppData\Local\Temp\ccAPGHhR.s 			page 87


 733:Drivers/STM32H7xx_HAL_Driver/Src/stm32h7xx_hal_flash_ex.c ****         {
 2379              		.loc 1 733 46 view .LVU885
 733:Drivers/STM32H7xx_HAL_Driver/Src/stm32h7xx_hal_flash_ex.c ****         {
 2380              		.loc 1 733 9 is_stmt 0 view .LVU886
 2381 015e F3D1     		bne	.L250
 2382 0160 B2E7     		b	.L251
 2383              	.LVL170:
 2384              	.L268:
 741:Drivers/STM32H7xx_HAL_Driver/Src/stm32h7xx_hal_flash_ex.c ****       }
 2385              		.loc 1 741 9 is_stmt 1 view .LVU887
 741:Drivers/STM32H7xx_HAL_Driver/Src/stm32h7xx_hal_flash_ex.c ****       }
 2386              		.loc 1 741 23 is_stmt 0 view .LVU888
 2387 0162 1A6D     		ldr	r2, [r3, #80]
 2388 0164 42F48002 		orr	r2, r2, #4194304
 2389 0168 1A65     		str	r2, [r3, #80]
 2390 016a ADE7     		b	.L251
 2391              	.L270:
 2392              		.align	2
 2393              	.L269:
 2394 016c 00200052 		.word	1375739904
 2395 0170 00014000 		.word	4194560
 2396              		.cfi_endproc
 2397              	.LFE152:
 2399              		.section	.text.FLASH_Erase_Sector,"ax",%progbits
 2400              		.align	1
 2401              		.p2align 2,,3
 2402              		.global	FLASH_Erase_Sector
 2403              		.syntax unified
 2404              		.thumb
 2405              		.thumb_func
 2406              		.fpu fpv5-d16
 2408              	FLASH_Erase_Sector:
 2409              	.LVL171:
 2410              	.LFB154:
 928:Drivers/STM32H7xx_HAL_Driver/Src/stm32h7xx_hal_flash_ex.c ****   assert_param(IS_FLASH_SECTOR(Sector));
 2411              		.loc 1 928 1 is_stmt 1 view -0
 2412              		.cfi_startproc
 2413              		@ args = 0, pretend = 0, frame = 0
 2414              		@ frame_needed = 0, uses_anonymous_args = 0
 2415              		@ link register save eliminated.
 929:Drivers/STM32H7xx_HAL_Driver/Src/stm32h7xx_hal_flash_ex.c ****   assert_param(IS_FLASH_BANK_EXCLUSIVE(Banks));
 2416              		.loc 1 929 3 view .LVU890
 930:Drivers/STM32H7xx_HAL_Driver/Src/stm32h7xx_hal_flash_ex.c **** #if defined (FLASH_CR_PSIZE)
 2417              		.loc 1 930 3 view .LVU891
 932:Drivers/STM32H7xx_HAL_Driver/Src/stm32h7xx_hal_flash_ex.c **** #else
 2418              		.loc 1 932 3 view .LVU892
 937:Drivers/STM32H7xx_HAL_Driver/Src/stm32h7xx_hal_flash_ex.c ****   {
 2419              		.loc 1 937 3 view .LVU893
 928:Drivers/STM32H7xx_HAL_Driver/Src/stm32h7xx_hal_flash_ex.c ****   assert_param(IS_FLASH_SECTOR(Sector));
 2420              		.loc 1 928 1 is_stmt 0 view .LVU894
 2421 0000 10B4     		push	{r4}
 2422              	.LCFI7:
 2423              		.cfi_def_cfa_offset 4
 2424              		.cfi_offset 4, -4
 937:Drivers/STM32H7xx_HAL_Driver/Src/stm32h7xx_hal_flash_ex.c ****   {
 2425              		.loc 1 937 5 view .LVU895
 2426 0002 CC07     		lsls	r4, r1, #31
ARM GAS  C:\Users\MadeuxS\AppData\Local\Temp\ccAPGHhR.s 			page 88


 2427 0004 0BD5     		bpl	.L272
 941:Drivers/STM32H7xx_HAL_Driver/Src/stm32h7xx_hal_flash_ex.c **** 
 2428              		.loc 1 941 5 is_stmt 1 view .LVU896
 941:Drivers/STM32H7xx_HAL_Driver/Src/stm32h7xx_hal_flash_ex.c **** 
 2429              		.loc 1 941 16 is_stmt 0 view .LVU897
 2430 0006 104C     		ldr	r4, .L281
 2431 0008 E368     		ldr	r3, [r4, #12]
 2432 000a 23F4E663 		bic	r3, r3, #1840
 2433 000e E360     		str	r3, [r4, #12]
 943:Drivers/STM32H7xx_HAL_Driver/Src/stm32h7xx_hal_flash_ex.c **** #else
 2434              		.loc 1 943 5 is_stmt 1 view .LVU898
 943:Drivers/STM32H7xx_HAL_Driver/Src/stm32h7xx_hal_flash_ex.c **** #else
 2435              		.loc 1 943 16 is_stmt 0 view .LVU899
 2436 0010 E368     		ldr	r3, [r4, #12]
 2437 0012 43EA0023 		orr	r3, r3, r0, lsl #8
 2438 0016 1343     		orrs	r3, r3, r2
 2439 0018 43F08403 		orr	r3, r3, #132
 2440 001c E360     		str	r3, [r4, #12]
 2441              	.L272:
 953:Drivers/STM32H7xx_HAL_Driver/Src/stm32h7xx_hal_flash_ex.c ****   {
 2442              		.loc 1 953 3 is_stmt 1 view .LVU900
 953:Drivers/STM32H7xx_HAL_Driver/Src/stm32h7xx_hal_flash_ex.c ****   {
 2443              		.loc 1 953 5 is_stmt 0 view .LVU901
 2444 001e 8B07     		lsls	r3, r1, #30
 2445 0020 0FD5     		bpl	.L271
 2446              	.LVL172:
 2447              	.LBB164:
 2448              	.LBI164:
 927:Drivers/STM32H7xx_HAL_Driver/Src/stm32h7xx_hal_flash_ex.c **** {
 2449              		.loc 1 927 6 is_stmt 1 view .LVU902
 2450              	.LBB165:
 957:Drivers/STM32H7xx_HAL_Driver/Src/stm32h7xx_hal_flash_ex.c **** 
 2451              		.loc 1 957 5 view .LVU903
 957:Drivers/STM32H7xx_HAL_Driver/Src/stm32h7xx_hal_flash_ex.c **** 
 2452              		.loc 1 957 16 is_stmt 0 view .LVU904
 2453 0022 0949     		ldr	r1, .L281
 2454              	.LVL173:
 957:Drivers/STM32H7xx_HAL_Driver/Src/stm32h7xx_hal_flash_ex.c **** 
 2455              		.loc 1 957 16 view .LVU905
 2456 0024 D1F80C31 		ldr	r3, [r1, #268]
 2457 0028 23F4E663 		bic	r3, r3, #1840
 2458 002c C1F80C31 		str	r3, [r1, #268]
 959:Drivers/STM32H7xx_HAL_Driver/Src/stm32h7xx_hal_flash_ex.c **** #else
 2459              		.loc 1 959 5 is_stmt 1 view .LVU906
 959:Drivers/STM32H7xx_HAL_Driver/Src/stm32h7xx_hal_flash_ex.c **** #else
 2460              		.loc 1 959 16 is_stmt 0 view .LVU907
 2461 0030 D1F80C31 		ldr	r3, [r1, #268]
 2462 0034 43EA0020 		orr	r0, r3, r0, lsl #8
 2463              	.LVL174:
 959:Drivers/STM32H7xx_HAL_Driver/Src/stm32h7xx_hal_flash_ex.c **** #else
 2464              		.loc 1 959 16 view .LVU908
 2465 0038 0243     		orrs	r2, r2, r0
 2466              	.LVL175:
 959:Drivers/STM32H7xx_HAL_Driver/Src/stm32h7xx_hal_flash_ex.c **** #else
 2467              		.loc 1 959 16 view .LVU909
 2468 003a 42F08402 		orr	r2, r2, #132
 2469 003e C1F80C21 		str	r2, [r1, #268]
ARM GAS  C:\Users\MadeuxS\AppData\Local\Temp\ccAPGHhR.s 			page 89


 2470              	.LVL176:
 2471              	.L271:
 959:Drivers/STM32H7xx_HAL_Driver/Src/stm32h7xx_hal_flash_ex.c **** #else
 2472              		.loc 1 959 16 view .LVU910
 2473              	.LBE165:
 2474              	.LBE164:
 968:Drivers/STM32H7xx_HAL_Driver/Src/stm32h7xx_hal_flash_ex.c **** 
 2475              		.loc 1 968 1 view .LVU911
 2476 0042 5DF8044B 		ldr	r4, [sp], #4
 2477              	.LCFI8:
 2478              		.cfi_restore 4
 2479              		.cfi_def_cfa_offset 0
 2480 0046 7047     		bx	lr
 2481              	.L282:
 2482              		.align	2
 2483              	.L281:
 2484 0048 00200052 		.word	1375739904
 2485              		.cfi_endproc
 2486              	.LFE154:
 2488              		.text
 2489              	.Letext0:
 2490              		.file 2 "c:\\dev\\tools\\gcc-arm-none-eabi-10.3-2021.07\\arm-none-eabi\\include\\machine\\_default
 2491              		.file 3 "c:\\dev\\tools\\gcc-arm-none-eabi-10.3-2021.07\\arm-none-eabi\\include\\sys\\_stdint.h"
 2492              		.file 4 "Drivers/CMSIS/Device/ST/STM32H7xx/Include/stm32h743xx.h"
 2493              		.file 5 "Drivers/STM32H7xx_HAL_Driver/Inc/stm32h7xx_hal_def.h"
 2494              		.file 6 "Drivers/STM32H7xx_HAL_Driver/Inc/stm32h7xx_hal_flash.h"
 2495              		.file 7 "Drivers/STM32H7xx_HAL_Driver/Inc/stm32h7xx_hal_flash_ex.h"
ARM GAS  C:\Users\MadeuxS\AppData\Local\Temp\ccAPGHhR.s 			page 90


DEFINED SYMBOLS
                            *ABS*:00000000 stm32h7xx_hal_flash_ex.c
C:\Users\MadeuxS\AppData\Local\Temp\ccAPGHhR.s:15     .text.FLASH_MassErase:00000000 $t
C:\Users\MadeuxS\AppData\Local\Temp\ccAPGHhR.s:23     .text.FLASH_MassErase:00000000 FLASH_MassErase
C:\Users\MadeuxS\AppData\Local\Temp\ccAPGHhR.s:129    .text.FLASH_MassErase:00000080 $d
C:\Users\MadeuxS\AppData\Local\Temp\ccAPGHhR.s:134    .text.HAL_FLASHEx_Erase:00000000 $t
C:\Users\MadeuxS\AppData\Local\Temp\ccAPGHhR.s:142    .text.HAL_FLASHEx_Erase:00000000 HAL_FLASHEx_Erase
C:\Users\MadeuxS\AppData\Local\Temp\ccAPGHhR.s:533    .text.HAL_FLASHEx_Erase:00000198 $d
C:\Users\MadeuxS\AppData\Local\Temp\ccAPGHhR.s:540    .text.HAL_FLASHEx_Erase_IT:00000000 $t
C:\Users\MadeuxS\AppData\Local\Temp\ccAPGHhR.s:548    .text.HAL_FLASHEx_Erase_IT:00000000 HAL_FLASHEx_Erase_IT
C:\Users\MadeuxS\AppData\Local\Temp\ccAPGHhR.s:853    .text.HAL_FLASHEx_Erase_IT:00000124 $d
C:\Users\MadeuxS\AppData\Local\Temp\ccAPGHhR.s:859    .text.HAL_FLASHEx_OBProgram:00000000 $t
C:\Users\MadeuxS\AppData\Local\Temp\ccAPGHhR.s:867    .text.HAL_FLASHEx_OBProgram:00000000 HAL_FLASHEx_OBProgram
C:\Users\MadeuxS\AppData\Local\Temp\ccAPGHhR.s:1463   .text.HAL_FLASHEx_OBProgram:00000230 $d
C:\Users\MadeuxS\AppData\Local\Temp\ccAPGHhR.s:1472   .text.HAL_FLASHEx_OBGetConfig:00000000 $t
C:\Users\MadeuxS\AppData\Local\Temp\ccAPGHhR.s:1480   .text.HAL_FLASHEx_OBGetConfig:00000000 HAL_FLASHEx_OBGetConfig
C:\Users\MadeuxS\AppData\Local\Temp\ccAPGHhR.s:1853   .text.HAL_FLASHEx_OBGetConfig:000000fc $d
C:\Users\MadeuxS\AppData\Local\Temp\ccAPGHhR.s:1863   .text.HAL_FLASHEx_Unlock_Bank1:00000000 $t
C:\Users\MadeuxS\AppData\Local\Temp\ccAPGHhR.s:1871   .text.HAL_FLASHEx_Unlock_Bank1:00000000 HAL_FLASHEx_Unlock_Bank1
C:\Users\MadeuxS\AppData\Local\Temp\ccAPGHhR.s:1904   .text.HAL_FLASHEx_Unlock_Bank1:0000001c $d
C:\Users\MadeuxS\AppData\Local\Temp\ccAPGHhR.s:1911   .text.HAL_FLASHEx_Lock_Bank1:00000000 $t
C:\Users\MadeuxS\AppData\Local\Temp\ccAPGHhR.s:1919   .text.HAL_FLASHEx_Lock_Bank1:00000000 HAL_FLASHEx_Lock_Bank1
C:\Users\MadeuxS\AppData\Local\Temp\ccAPGHhR.s:1940   .text.HAL_FLASHEx_Lock_Bank1:00000010 $d
C:\Users\MadeuxS\AppData\Local\Temp\ccAPGHhR.s:1945   .text.HAL_FLASHEx_Unlock_Bank2:00000000 $t
C:\Users\MadeuxS\AppData\Local\Temp\ccAPGHhR.s:1953   .text.HAL_FLASHEx_Unlock_Bank2:00000000 HAL_FLASHEx_Unlock_Bank2
C:\Users\MadeuxS\AppData\Local\Temp\ccAPGHhR.s:1986   .text.HAL_FLASHEx_Unlock_Bank2:00000024 $d
C:\Users\MadeuxS\AppData\Local\Temp\ccAPGHhR.s:1993   .text.HAL_FLASHEx_Lock_Bank2:00000000 $t
C:\Users\MadeuxS\AppData\Local\Temp\ccAPGHhR.s:2001   .text.HAL_FLASHEx_Lock_Bank2:00000000 HAL_FLASHEx_Lock_Bank2
C:\Users\MadeuxS\AppData\Local\Temp\ccAPGHhR.s:2022   .text.HAL_FLASHEx_Lock_Bank2:00000014 $d
C:\Users\MadeuxS\AppData\Local\Temp\ccAPGHhR.s:2027   .text.HAL_FLASHEx_ComputeCRC:00000000 $t
C:\Users\MadeuxS\AppData\Local\Temp\ccAPGHhR.s:2035   .text.HAL_FLASHEx_ComputeCRC:00000000 HAL_FLASHEx_ComputeCRC
C:\Users\MadeuxS\AppData\Local\Temp\ccAPGHhR.s:2394   .text.HAL_FLASHEx_ComputeCRC:0000016c $d
C:\Users\MadeuxS\AppData\Local\Temp\ccAPGHhR.s:2400   .text.FLASH_Erase_Sector:00000000 $t
C:\Users\MadeuxS\AppData\Local\Temp\ccAPGHhR.s:2408   .text.FLASH_Erase_Sector:00000000 FLASH_Erase_Sector
C:\Users\MadeuxS\AppData\Local\Temp\ccAPGHhR.s:2484   .text.FLASH_Erase_Sector:00000048 $d

UNDEFINED SYMBOLS
FLASH_WaitForLastOperation
pFlash
FLASH_OB_WaitForLastOperation
FLASH_CRC_WaitForLastOperation
