ARM GAS  C:\Users\MadeuxS\AppData\Local\Temp\ccHqWtrv.s 			page 1


   1              		.cpu cortex-m7
   2              		.eabi_attribute 28, 1
   3              		.eabi_attribute 23, 1
   4              		.eabi_attribute 24, 1
   5              		.eabi_attribute 25, 1
   6              		.eabi_attribute 26, 1
   7              		.eabi_attribute 30, 2
   8              		.eabi_attribute 34, 1
   9              		.eabi_attribute 18, 4
  10              		.file	"stm32h7xx_hal_mdma.c"
  11              		.text
  12              	.Ltext0:
  13              		.cfi_sections	.debug_frame
  14              		.section	.text.HAL_MDMA_Init,"ax",%progbits
  15              		.align	1
  16              		.p2align 2,,3
  17              		.global	HAL_MDMA_Init
  18              		.arch armv7e-m
  19              		.syntax unified
  20              		.thumb
  21              		.thumb_func
  22              		.fpu fpv5-d16
  24              	HAL_MDMA_Init:
  25              	.LVL0:
  26              	.LFB144:
  27              		.file 1 "Drivers/STM32H7xx_HAL_Driver/Src/stm32h7xx_hal_mdma.c"
   1:Drivers/STM32H7xx_HAL_Driver/Src/stm32h7xx_hal_mdma.c **** /**
   2:Drivers/STM32H7xx_HAL_Driver/Src/stm32h7xx_hal_mdma.c ****   ******************************************************************************
   3:Drivers/STM32H7xx_HAL_Driver/Src/stm32h7xx_hal_mdma.c ****   * @file    stm32h7xx_hal_mdma.c
   4:Drivers/STM32H7xx_HAL_Driver/Src/stm32h7xx_hal_mdma.c ****   * @author  MCD Application Team
   5:Drivers/STM32H7xx_HAL_Driver/Src/stm32h7xx_hal_mdma.c ****   * @brief  This file provides firmware functions to manage the following
   6:Drivers/STM32H7xx_HAL_Driver/Src/stm32h7xx_hal_mdma.c ****   *         functionalities of the Master Direct Memory Access (MDMA) peripheral:
   7:Drivers/STM32H7xx_HAL_Driver/Src/stm32h7xx_hal_mdma.c ****   *           + Initialization/de-initialization functions
   8:Drivers/STM32H7xx_HAL_Driver/Src/stm32h7xx_hal_mdma.c ****   *           + I/O operation functions
   9:Drivers/STM32H7xx_HAL_Driver/Src/stm32h7xx_hal_mdma.c ****   *           + Peripheral State and errors functions
  10:Drivers/STM32H7xx_HAL_Driver/Src/stm32h7xx_hal_mdma.c ****   @verbatim
  11:Drivers/STM32H7xx_HAL_Driver/Src/stm32h7xx_hal_mdma.c ****   ==============================================================================
  12:Drivers/STM32H7xx_HAL_Driver/Src/stm32h7xx_hal_mdma.c ****                         ##### How to use this driver #####
  13:Drivers/STM32H7xx_HAL_Driver/Src/stm32h7xx_hal_mdma.c ****   ==============================================================================
  14:Drivers/STM32H7xx_HAL_Driver/Src/stm32h7xx_hal_mdma.c ****   [..]
  15:Drivers/STM32H7xx_HAL_Driver/Src/stm32h7xx_hal_mdma.c ****    (#) Enable and configure the peripheral to be connected to the MDMA Channel
  16:Drivers/STM32H7xx_HAL_Driver/Src/stm32h7xx_hal_mdma.c ****        (except for internal SRAM/FLASH memories: no initialization is
  17:Drivers/STM32H7xx_HAL_Driver/Src/stm32h7xx_hal_mdma.c ****        necessary) please refer to Reference manual for connection between peripherals
  18:Drivers/STM32H7xx_HAL_Driver/Src/stm32h7xx_hal_mdma.c ****        and MDMA requests.
  19:Drivers/STM32H7xx_HAL_Driver/Src/stm32h7xx_hal_mdma.c **** 
  20:Drivers/STM32H7xx_HAL_Driver/Src/stm32h7xx_hal_mdma.c ****    (#)
  21:Drivers/STM32H7xx_HAL_Driver/Src/stm32h7xx_hal_mdma.c ****        For a given Channel use HAL_MDMA_Init function to program the required configuration through
  22:Drivers/STM32H7xx_HAL_Driver/Src/stm32h7xx_hal_mdma.c ****        transfer request , channel priority, data endianness, Source increment, destination incremen
  23:Drivers/STM32H7xx_HAL_Driver/Src/stm32h7xx_hal_mdma.c ****        source data size, destination data size, data alignment, source Burst, destination Burst ,
  24:Drivers/STM32H7xx_HAL_Driver/Src/stm32h7xx_hal_mdma.c ****        buffer Transfer Length, Transfer Trigger Mode (buffer transfer, block transfer, repeated blo
  25:Drivers/STM32H7xx_HAL_Driver/Src/stm32h7xx_hal_mdma.c ****        or full transfer) source and destination block address offset, mask address and data.
  26:Drivers/STM32H7xx_HAL_Driver/Src/stm32h7xx_hal_mdma.c **** 
  27:Drivers/STM32H7xx_HAL_Driver/Src/stm32h7xx_hal_mdma.c ****        If using the MDMA in linked list mode then use function HAL_MDMA_LinkedList_CreateNode to fi
  28:Drivers/STM32H7xx_HAL_Driver/Src/stm32h7xx_hal_mdma.c ****        Note that parameters given to the function HAL_MDMA_Init corresponds always to the node zero
  29:Drivers/STM32H7xx_HAL_Driver/Src/stm32h7xx_hal_mdma.c ****        Use function HAL_MDMA_LinkedList_AddNode to connect the created node to the linked list at a
  30:Drivers/STM32H7xx_HAL_Driver/Src/stm32h7xx_hal_mdma.c ****        User can make a linked list circular using function HAL_MDMA_LinkedList_EnableCircularMode ,
  31:Drivers/STM32H7xx_HAL_Driver/Src/stm32h7xx_hal_mdma.c ****        last node of the list to the first one in order to make the list circular.
ARM GAS  C:\Users\MadeuxS\AppData\Local\Temp\ccHqWtrv.s 			page 2


  32:Drivers/STM32H7xx_HAL_Driver/Src/stm32h7xx_hal_mdma.c ****        In this case the linked list will loop on node 1 : first node connected after the initial tr
  33:Drivers/STM32H7xx_HAL_Driver/Src/stm32h7xx_hal_mdma.c **** 
  34:Drivers/STM32H7xx_HAL_Driver/Src/stm32h7xx_hal_mdma.c ****       -@-   The initial transfer itself (node 0 corresponding to the Init).
  35:Drivers/STM32H7xx_HAL_Driver/Src/stm32h7xx_hal_mdma.c ****             User can disable the circular mode using function HAL_MDMA_LinkedList_DisableCircularMo
  36:Drivers/STM32H7xx_HAL_Driver/Src/stm32h7xx_hal_mdma.c ****             the connection between last node and first one.
  37:Drivers/STM32H7xx_HAL_Driver/Src/stm32h7xx_hal_mdma.c **** 
  38:Drivers/STM32H7xx_HAL_Driver/Src/stm32h7xx_hal_mdma.c ****        Function HAL_MDMA_LinkedList_RemoveNode can be used to remove (disconnect) a node from the t
  39:Drivers/STM32H7xx_HAL_Driver/Src/stm32h7xx_hal_mdma.c ****        When a linked list is circular (last node connected to first one), if removing node1  (node 
  40:Drivers/STM32H7xx_HAL_Driver/Src/stm32h7xx_hal_mdma.c ****        the linked list remains circular and node 2 becomes the first one.
  41:Drivers/STM32H7xx_HAL_Driver/Src/stm32h7xx_hal_mdma.c ****        Note that if the linked list is made circular the transfer will loop infinitely (or until ab
  42:Drivers/STM32H7xx_HAL_Driver/Src/stm32h7xx_hal_mdma.c **** 
  43:Drivers/STM32H7xx_HAL_Driver/Src/stm32h7xx_hal_mdma.c ****     [..]
  44:Drivers/STM32H7xx_HAL_Driver/Src/stm32h7xx_hal_mdma.c ****        (+) User can select the transfer trigger mode (parameter TransferTriggerMode) to define the 
  45:Drivers/STM32H7xx_HAL_Driver/Src/stm32h7xx_hal_mdma.c ****            transfer upon a request :
  46:Drivers/STM32H7xx_HAL_Driver/Src/stm32h7xx_hal_mdma.c ****              (++) MDMA_BUFFER_TRANSFER : each request triggers a transfer of BufferTransferLength d
  47:Drivers/STM32H7xx_HAL_Driver/Src/stm32h7xx_hal_mdma.c ****                with BufferTransferLength defined within the HAL_MDMA_Init.
  48:Drivers/STM32H7xx_HAL_Driver/Src/stm32h7xx_hal_mdma.c ****              (++) MDMA_BLOCK_TRANSFER : each request triggers a transfer of a block
  49:Drivers/STM32H7xx_HAL_Driver/Src/stm32h7xx_hal_mdma.c ****                with block size defined within the function HAL_MDMA_Start/HAL_MDMA_Start_IT
  50:Drivers/STM32H7xx_HAL_Driver/Src/stm32h7xx_hal_mdma.c ****                or within the current linked list node parameters.
  51:Drivers/STM32H7xx_HAL_Driver/Src/stm32h7xx_hal_mdma.c ****              (++) MDMA_REPEAT_BLOCK_TRANSFER : each request triggers a transfer of a number of bloc
  52:Drivers/STM32H7xx_HAL_Driver/Src/stm32h7xx_hal_mdma.c ****                with block size and number of blocks defined within the function HAL_MDMA_Start/HAL_
  53:Drivers/STM32H7xx_HAL_Driver/Src/stm32h7xx_hal_mdma.c ****                or within the current linked list node parameters.
  54:Drivers/STM32H7xx_HAL_Driver/Src/stm32h7xx_hal_mdma.c ****              (++) MDMA_FULL_TRANSFER : each request triggers a full transfer
  55:Drivers/STM32H7xx_HAL_Driver/Src/stm32h7xx_hal_mdma.c ****               all blocks and all nodes(if a linked list has been created using HAL_MDMA_LinkedList_
  56:Drivers/STM32H7xx_HAL_Driver/Src/stm32h7xx_hal_mdma.c **** 
  57:Drivers/STM32H7xx_HAL_Driver/Src/stm32h7xx_hal_mdma.c ****      *** Polling mode IO operation ***
  58:Drivers/STM32H7xx_HAL_Driver/Src/stm32h7xx_hal_mdma.c ****      =================================
  59:Drivers/STM32H7xx_HAL_Driver/Src/stm32h7xx_hal_mdma.c ****     [..]
  60:Drivers/STM32H7xx_HAL_Driver/Src/stm32h7xx_hal_mdma.c ****           (+) Use HAL_MDMA_Start() to start MDMA transfer after the configuration of Source
  61:Drivers/STM32H7xx_HAL_Driver/Src/stm32h7xx_hal_mdma.c ****               address and destination address and the Length of data to be transferred.
  62:Drivers/STM32H7xx_HAL_Driver/Src/stm32h7xx_hal_mdma.c ****           (+) Use HAL_MDMA_PollForTransfer() to poll for the end of current transfer or a transfer 
  63:Drivers/STM32H7xx_HAL_Driver/Src/stm32h7xx_hal_mdma.c ****              In this case a fixed Timeout can be configured by User depending from his application.
  64:Drivers/STM32H7xx_HAL_Driver/Src/stm32h7xx_hal_mdma.c ****           (+) Use HAL_MDMA_Abort() function to abort the current transfer : blocking method this AP
  65:Drivers/STM32H7xx_HAL_Driver/Src/stm32h7xx_hal_mdma.c ****               when the abort ends or timeout (should not be called from an interrupt service routin
  66:Drivers/STM32H7xx_HAL_Driver/Src/stm32h7xx_hal_mdma.c **** 
  67:Drivers/STM32H7xx_HAL_Driver/Src/stm32h7xx_hal_mdma.c ****      *** Interrupt mode IO operation ***
  68:Drivers/STM32H7xx_HAL_Driver/Src/stm32h7xx_hal_mdma.c ****      ===================================
  69:Drivers/STM32H7xx_HAL_Driver/Src/stm32h7xx_hal_mdma.c ****     [..]
  70:Drivers/STM32H7xx_HAL_Driver/Src/stm32h7xx_hal_mdma.c ****           (+) Configure the MDMA interrupt priority using HAL_NVIC_SetPriority()
  71:Drivers/STM32H7xx_HAL_Driver/Src/stm32h7xx_hal_mdma.c ****           (+) Enable the MDMA IRQ handler using HAL_NVIC_EnableIRQ()
  72:Drivers/STM32H7xx_HAL_Driver/Src/stm32h7xx_hal_mdma.c ****           (+) Use HAL_MDMA_Start_IT() to start MDMA transfer after the configuration of
  73:Drivers/STM32H7xx_HAL_Driver/Src/stm32h7xx_hal_mdma.c ****               Source address and destination address and the Length of data to be transferred. In t
  74:Drivers/STM32H7xx_HAL_Driver/Src/stm32h7xx_hal_mdma.c ****               case the MDMA interrupt is configured.
  75:Drivers/STM32H7xx_HAL_Driver/Src/stm32h7xx_hal_mdma.c ****           (+) Use HAL_MDMA_IRQHandler() called under MDMA_IRQHandler() Interrupt subroutine
  76:Drivers/STM32H7xx_HAL_Driver/Src/stm32h7xx_hal_mdma.c ****           (+) At the end of data transfer HAL_MDMA_IRQHandler() function is executed and user can
  77:Drivers/STM32H7xx_HAL_Driver/Src/stm32h7xx_hal_mdma.c ****               add his own function by customization of function pointer XferCpltCallback and
  78:Drivers/STM32H7xx_HAL_Driver/Src/stm32h7xx_hal_mdma.c ****               XferErrorCallback (i.e a member of MDMA handle structure).
  79:Drivers/STM32H7xx_HAL_Driver/Src/stm32h7xx_hal_mdma.c **** 
  80:Drivers/STM32H7xx_HAL_Driver/Src/stm32h7xx_hal_mdma.c ****           (+) Use HAL_MDMA_Abort_IT() function to abort the current transfer : non-blocking method.
  81:Drivers/STM32H7xx_HAL_Driver/Src/stm32h7xx_hal_mdma.c ****               then the callback XferAbortCallback (if specified  by the user) is asserted once the 
  82:Drivers/STM32H7xx_HAL_Driver/Src/stm32h7xx_hal_mdma.c ****               (could be called from an interrupt service routine).
  83:Drivers/STM32H7xx_HAL_Driver/Src/stm32h7xx_hal_mdma.c **** 
  84:Drivers/STM32H7xx_HAL_Driver/Src/stm32h7xx_hal_mdma.c ****           (+) Use functions HAL_MDMA_RegisterCallback and HAL_MDMA_UnRegisterCallback respectevely 
  85:Drivers/STM32H7xx_HAL_Driver/Src/stm32h7xx_hal_mdma.c ****               from the following list :
  86:Drivers/STM32H7xx_HAL_Driver/Src/stm32h7xx_hal_mdma.c ****               (++) XferCpltCallback            : transfer complete callback.
  87:Drivers/STM32H7xx_HAL_Driver/Src/stm32h7xx_hal_mdma.c ****               (++) XferBufferCpltCallback      : buffer transfer complete callback.
  88:Drivers/STM32H7xx_HAL_Driver/Src/stm32h7xx_hal_mdma.c ****               (++) XferBlockCpltCallback       : block transfer complete callback.
ARM GAS  C:\Users\MadeuxS\AppData\Local\Temp\ccHqWtrv.s 			page 3


  89:Drivers/STM32H7xx_HAL_Driver/Src/stm32h7xx_hal_mdma.c ****               (++) XferRepeatBlockCpltCallback : repeated block transfer complete callback.
  90:Drivers/STM32H7xx_HAL_Driver/Src/stm32h7xx_hal_mdma.c ****               (++) XferErrorCallback           : transfer error callback.
  91:Drivers/STM32H7xx_HAL_Driver/Src/stm32h7xx_hal_mdma.c ****               (++) XferAbortCallback           : transfer abort complete callback.
  92:Drivers/STM32H7xx_HAL_Driver/Src/stm32h7xx_hal_mdma.c **** 
  93:Drivers/STM32H7xx_HAL_Driver/Src/stm32h7xx_hal_mdma.c ****     [..]
  94:Drivers/STM32H7xx_HAL_Driver/Src/stm32h7xx_hal_mdma.c ****          (+)  If the transfer Request corresponds to SW request (MDMA_REQUEST_SW) User can use func
  95:Drivers/STM32H7xx_HAL_Driver/Src/stm32h7xx_hal_mdma.c ****               trigger requests manually. Function HAL_MDMA_GenerateSWRequest must be used with the 
  96:Drivers/STM32H7xx_HAL_Driver/Src/stm32h7xx_hal_mdma.c ****               (++) This function returns an error if used while the Transfer has ended or not start
  97:Drivers/STM32H7xx_HAL_Driver/Src/stm32h7xx_hal_mdma.c ****               (++) If used while the current request has not been served yet (current request trans
  98:Drivers/STM32H7xx_HAL_Driver/Src/stm32h7xx_hal_mdma.c ****                 this function returns an error and the new request is ignored.
  99:Drivers/STM32H7xx_HAL_Driver/Src/stm32h7xx_hal_mdma.c **** 
 100:Drivers/STM32H7xx_HAL_Driver/Src/stm32h7xx_hal_mdma.c ****               Generally this function should be used in conjunctions with the MDMA callbacks:
 101:Drivers/STM32H7xx_HAL_Driver/Src/stm32h7xx_hal_mdma.c ****               (++) example 1:
 102:Drivers/STM32H7xx_HAL_Driver/Src/stm32h7xx_hal_mdma.c ****                  (+++) Configure a transfer with request set to MDMA_REQUEST_SW and trigger mode se
 103:Drivers/STM32H7xx_HAL_Driver/Src/stm32h7xx_hal_mdma.c ****                  (+++) Register a callback for buffer transfer complete (using callback ID set to H
 104:Drivers/STM32H7xx_HAL_Driver/Src/stm32h7xx_hal_mdma.c ****                  (+++) After calling HAL_MDMA_Start_IT the MDMA will issue the transfer of a first 
 105:Drivers/STM32H7xx_HAL_Driver/Src/stm32h7xx_hal_mdma.c ****                  (+++) When the buffer transfer complete callback is asserted first buffer has been
 106:Drivers/STM32H7xx_HAL_Driver/Src/stm32h7xx_hal_mdma.c ****                    request using HAL_MDMA_GenerateSWRequest.
 107:Drivers/STM32H7xx_HAL_Driver/Src/stm32h7xx_hal_mdma.c **** 
 108:Drivers/STM32H7xx_HAL_Driver/Src/stm32h7xx_hal_mdma.c ****               (++) example 2:
 109:Drivers/STM32H7xx_HAL_Driver/Src/stm32h7xx_hal_mdma.c ****                  (+++) Configure a transfer with request set to MDMA_REQUEST_SW and trigger mode se
 110:Drivers/STM32H7xx_HAL_Driver/Src/stm32h7xx_hal_mdma.c ****                  (+++) Register a callback for block transfer complete (using callback ID HAL_MDMA_
 111:Drivers/STM32H7xx_HAL_Driver/Src/stm32h7xx_hal_mdma.c ****                  (+++) After calling HAL_MDMA_Start_IT the MDMA will issue the transfer of a first 
 112:Drivers/STM32H7xx_HAL_Driver/Src/stm32h7xx_hal_mdma.c ****                  (+++) When the block transfer complete callback is asserted the first block has be
 113:Drivers/STM32H7xx_HAL_Driver/Src/stm32h7xx_hal_mdma.c ****                    for a new block transfer request using HAL_MDMA_GenerateSWRequest.
 114:Drivers/STM32H7xx_HAL_Driver/Src/stm32h7xx_hal_mdma.c **** 
 115:Drivers/STM32H7xx_HAL_Driver/Src/stm32h7xx_hal_mdma.c ****     [..]  Use HAL_MDMA_GetState() function to return the MDMA state and HAL_MDMA_GetError() in case
 116:Drivers/STM32H7xx_HAL_Driver/Src/stm32h7xx_hal_mdma.c **** 
 117:Drivers/STM32H7xx_HAL_Driver/Src/stm32h7xx_hal_mdma.c ****      *** MDMA HAL driver macros list ***
 118:Drivers/STM32H7xx_HAL_Driver/Src/stm32h7xx_hal_mdma.c ****      =============================================
 119:Drivers/STM32H7xx_HAL_Driver/Src/stm32h7xx_hal_mdma.c ****      [..]
 120:Drivers/STM32H7xx_HAL_Driver/Src/stm32h7xx_hal_mdma.c ****        Below the list of most used macros in MDMA HAL driver.
 121:Drivers/STM32H7xx_HAL_Driver/Src/stm32h7xx_hal_mdma.c **** 
 122:Drivers/STM32H7xx_HAL_Driver/Src/stm32h7xx_hal_mdma.c ****       (+) __HAL_MDMA_ENABLE: Enable the specified MDMA Channel.
 123:Drivers/STM32H7xx_HAL_Driver/Src/stm32h7xx_hal_mdma.c ****       (+) __HAL_MDMA_DISABLE: Disable the specified MDMA Channel.
 124:Drivers/STM32H7xx_HAL_Driver/Src/stm32h7xx_hal_mdma.c ****       (+) __HAL_MDMA_GET_FLAG: Get the MDMA Channel pending flags.
 125:Drivers/STM32H7xx_HAL_Driver/Src/stm32h7xx_hal_mdma.c ****       (+) __HAL_MDMA_CLEAR_FLAG: Clear the MDMA Channel pending flags.
 126:Drivers/STM32H7xx_HAL_Driver/Src/stm32h7xx_hal_mdma.c ****       (+) __HAL_MDMA_ENABLE_IT: Enable the specified MDMA Channel interrupts.
 127:Drivers/STM32H7xx_HAL_Driver/Src/stm32h7xx_hal_mdma.c ****       (+) __HAL_MDMA_DISABLE_IT: Disable the specified MDMA Channel interrupts.
 128:Drivers/STM32H7xx_HAL_Driver/Src/stm32h7xx_hal_mdma.c ****       (+) __HAL_MDMA_GET_IT_SOURCE: Check whether the specified MDMA Channel interrupt has occurred
 129:Drivers/STM32H7xx_HAL_Driver/Src/stm32h7xx_hal_mdma.c **** 
 130:Drivers/STM32H7xx_HAL_Driver/Src/stm32h7xx_hal_mdma.c ****      [..]
 131:Drivers/STM32H7xx_HAL_Driver/Src/stm32h7xx_hal_mdma.c ****       (@) You can refer to the header file of the MDMA HAL driver for more useful macros.
 132:Drivers/STM32H7xx_HAL_Driver/Src/stm32h7xx_hal_mdma.c **** 
 133:Drivers/STM32H7xx_HAL_Driver/Src/stm32h7xx_hal_mdma.c ****     [..]
 134:Drivers/STM32H7xx_HAL_Driver/Src/stm32h7xx_hal_mdma.c **** 
 135:Drivers/STM32H7xx_HAL_Driver/Src/stm32h7xx_hal_mdma.c ****     @endverbatim
 136:Drivers/STM32H7xx_HAL_Driver/Src/stm32h7xx_hal_mdma.c ****   ******************************************************************************
 137:Drivers/STM32H7xx_HAL_Driver/Src/stm32h7xx_hal_mdma.c ****   * @attention
 138:Drivers/STM32H7xx_HAL_Driver/Src/stm32h7xx_hal_mdma.c ****   *
 139:Drivers/STM32H7xx_HAL_Driver/Src/stm32h7xx_hal_mdma.c ****   * <h2><center>&copy; COPYRIGHT(c) 2017 STMicroelectronics.
 140:Drivers/STM32H7xx_HAL_Driver/Src/stm32h7xx_hal_mdma.c ****   * All rights reserved.</center></h2>
 141:Drivers/STM32H7xx_HAL_Driver/Src/stm32h7xx_hal_mdma.c ****   *
 142:Drivers/STM32H7xx_HAL_Driver/Src/stm32h7xx_hal_mdma.c ****   * This software component is licensed by ST under BSD 3-Clause license,
 143:Drivers/STM32H7xx_HAL_Driver/Src/stm32h7xx_hal_mdma.c ****   * the "License"; You may not use this file except in compliance with the
 144:Drivers/STM32H7xx_HAL_Driver/Src/stm32h7xx_hal_mdma.c ****   * License. You may obtain a copy of the License at:
 145:Drivers/STM32H7xx_HAL_Driver/Src/stm32h7xx_hal_mdma.c ****   *                        opensource.org/licenses/BSD-3-Clause
ARM GAS  C:\Users\MadeuxS\AppData\Local\Temp\ccHqWtrv.s 			page 4


 146:Drivers/STM32H7xx_HAL_Driver/Src/stm32h7xx_hal_mdma.c ****   *
 147:Drivers/STM32H7xx_HAL_Driver/Src/stm32h7xx_hal_mdma.c ****   ******************************************************************************
 148:Drivers/STM32H7xx_HAL_Driver/Src/stm32h7xx_hal_mdma.c ****   */
 149:Drivers/STM32H7xx_HAL_Driver/Src/stm32h7xx_hal_mdma.c **** 
 150:Drivers/STM32H7xx_HAL_Driver/Src/stm32h7xx_hal_mdma.c **** /* Includes ------------------------------------------------------------------*/
 151:Drivers/STM32H7xx_HAL_Driver/Src/stm32h7xx_hal_mdma.c **** #include "stm32h7xx_hal.h"
 152:Drivers/STM32H7xx_HAL_Driver/Src/stm32h7xx_hal_mdma.c **** 
 153:Drivers/STM32H7xx_HAL_Driver/Src/stm32h7xx_hal_mdma.c **** /** @addtogroup STM32H7xx_HAL_Driver
 154:Drivers/STM32H7xx_HAL_Driver/Src/stm32h7xx_hal_mdma.c ****   * @{
 155:Drivers/STM32H7xx_HAL_Driver/Src/stm32h7xx_hal_mdma.c ****   */
 156:Drivers/STM32H7xx_HAL_Driver/Src/stm32h7xx_hal_mdma.c **** 
 157:Drivers/STM32H7xx_HAL_Driver/Src/stm32h7xx_hal_mdma.c **** /** @defgroup MDMA  MDMA
 158:Drivers/STM32H7xx_HAL_Driver/Src/stm32h7xx_hal_mdma.c ****   * @brief MDMA HAL module driver
 159:Drivers/STM32H7xx_HAL_Driver/Src/stm32h7xx_hal_mdma.c ****   * @{
 160:Drivers/STM32H7xx_HAL_Driver/Src/stm32h7xx_hal_mdma.c ****   */
 161:Drivers/STM32H7xx_HAL_Driver/Src/stm32h7xx_hal_mdma.c **** 
 162:Drivers/STM32H7xx_HAL_Driver/Src/stm32h7xx_hal_mdma.c **** #ifdef HAL_MDMA_MODULE_ENABLED
 163:Drivers/STM32H7xx_HAL_Driver/Src/stm32h7xx_hal_mdma.c **** 
 164:Drivers/STM32H7xx_HAL_Driver/Src/stm32h7xx_hal_mdma.c **** /* Private typedef -----------------------------------------------------------*/
 165:Drivers/STM32H7xx_HAL_Driver/Src/stm32h7xx_hal_mdma.c **** /* Private constants ---------------------------------------------------------*/
 166:Drivers/STM32H7xx_HAL_Driver/Src/stm32h7xx_hal_mdma.c **** /** @addtogroup MDMA_Private_Constants
 167:Drivers/STM32H7xx_HAL_Driver/Src/stm32h7xx_hal_mdma.c ****  * @{
 168:Drivers/STM32H7xx_HAL_Driver/Src/stm32h7xx_hal_mdma.c ****  */
 169:Drivers/STM32H7xx_HAL_Driver/Src/stm32h7xx_hal_mdma.c **** #define HAL_TIMEOUT_MDMA_ABORT    5U    /* 5 ms */
 170:Drivers/STM32H7xx_HAL_Driver/Src/stm32h7xx_hal_mdma.c **** #define HAL_MDMA_CHANNEL_SIZE     0x40U /* an MDMA instance channel size is 64 byte  */
 171:Drivers/STM32H7xx_HAL_Driver/Src/stm32h7xx_hal_mdma.c **** /**
 172:Drivers/STM32H7xx_HAL_Driver/Src/stm32h7xx_hal_mdma.c ****   * @}
 173:Drivers/STM32H7xx_HAL_Driver/Src/stm32h7xx_hal_mdma.c ****   */
 174:Drivers/STM32H7xx_HAL_Driver/Src/stm32h7xx_hal_mdma.c **** /* Private macro -------------------------------------------------------------*/
 175:Drivers/STM32H7xx_HAL_Driver/Src/stm32h7xx_hal_mdma.c **** /* Private variables ---------------------------------------------------------*/
 176:Drivers/STM32H7xx_HAL_Driver/Src/stm32h7xx_hal_mdma.c **** /* Private function prototypes -----------------------------------------------*/
 177:Drivers/STM32H7xx_HAL_Driver/Src/stm32h7xx_hal_mdma.c **** /** @addtogroup MDMA_Private_Functions_Prototypes
 178:Drivers/STM32H7xx_HAL_Driver/Src/stm32h7xx_hal_mdma.c ****   * @{
 179:Drivers/STM32H7xx_HAL_Driver/Src/stm32h7xx_hal_mdma.c ****   */
 180:Drivers/STM32H7xx_HAL_Driver/Src/stm32h7xx_hal_mdma.c **** static void MDMA_SetConfig(MDMA_HandleTypeDef *hmdma, uint32_t SrcAddress, uint32_t DstAddress, uin
 181:Drivers/STM32H7xx_HAL_Driver/Src/stm32h7xx_hal_mdma.c **** static void MDMA_Init(MDMA_HandleTypeDef *hmdma);
 182:Drivers/STM32H7xx_HAL_Driver/Src/stm32h7xx_hal_mdma.c **** 
 183:Drivers/STM32H7xx_HAL_Driver/Src/stm32h7xx_hal_mdma.c **** /**
 184:Drivers/STM32H7xx_HAL_Driver/Src/stm32h7xx_hal_mdma.c ****   * @}
 185:Drivers/STM32H7xx_HAL_Driver/Src/stm32h7xx_hal_mdma.c ****   */
 186:Drivers/STM32H7xx_HAL_Driver/Src/stm32h7xx_hal_mdma.c **** 
 187:Drivers/STM32H7xx_HAL_Driver/Src/stm32h7xx_hal_mdma.c **** /** @addtogroup MDMA_Exported_Functions MDMA Exported Functions
 188:Drivers/STM32H7xx_HAL_Driver/Src/stm32h7xx_hal_mdma.c ****   * @{
 189:Drivers/STM32H7xx_HAL_Driver/Src/stm32h7xx_hal_mdma.c ****   */
 190:Drivers/STM32H7xx_HAL_Driver/Src/stm32h7xx_hal_mdma.c **** 
 191:Drivers/STM32H7xx_HAL_Driver/Src/stm32h7xx_hal_mdma.c **** /** @addtogroup MDMA_Exported_Functions_Group1
 192:Drivers/STM32H7xx_HAL_Driver/Src/stm32h7xx_hal_mdma.c ****   *
 193:Drivers/STM32H7xx_HAL_Driver/Src/stm32h7xx_hal_mdma.c **** @verbatim
 194:Drivers/STM32H7xx_HAL_Driver/Src/stm32h7xx_hal_mdma.c ****  ===============================================================================
 195:Drivers/STM32H7xx_HAL_Driver/Src/stm32h7xx_hal_mdma.c ****              ##### Initialization and de-initialization functions  #####
 196:Drivers/STM32H7xx_HAL_Driver/Src/stm32h7xx_hal_mdma.c ****  ===============================================================================
 197:Drivers/STM32H7xx_HAL_Driver/Src/stm32h7xx_hal_mdma.c ****     [..]
 198:Drivers/STM32H7xx_HAL_Driver/Src/stm32h7xx_hal_mdma.c ****     This section provides functions allowing to :
 199:Drivers/STM32H7xx_HAL_Driver/Src/stm32h7xx_hal_mdma.c ****       Initialize and de-initialize the MDMA channel.
 200:Drivers/STM32H7xx_HAL_Driver/Src/stm32h7xx_hal_mdma.c ****       Register and Unregister MDMA callbacks
 201:Drivers/STM32H7xx_HAL_Driver/Src/stm32h7xx_hal_mdma.c ****     [..]
 202:Drivers/STM32H7xx_HAL_Driver/Src/stm32h7xx_hal_mdma.c ****     The HAL_MDMA_Init() function follows the MDMA channel configuration procedures as described in
ARM GAS  C:\Users\MadeuxS\AppData\Local\Temp\ccHqWtrv.s 			page 5


 203:Drivers/STM32H7xx_HAL_Driver/Src/stm32h7xx_hal_mdma.c ****     reference manual.
 204:Drivers/STM32H7xx_HAL_Driver/Src/stm32h7xx_hal_mdma.c ****     The HAL_MDMA_DeInit function allows to deinitialize the MDMA channel.
 205:Drivers/STM32H7xx_HAL_Driver/Src/stm32h7xx_hal_mdma.c ****     HAL_MDMA_RegisterCallback and  HAL_MDMA_UnRegisterCallback functions allows
 206:Drivers/STM32H7xx_HAL_Driver/Src/stm32h7xx_hal_mdma.c ****     respectevely to register/unregister an MDMA callback function.
 207:Drivers/STM32H7xx_HAL_Driver/Src/stm32h7xx_hal_mdma.c **** 
 208:Drivers/STM32H7xx_HAL_Driver/Src/stm32h7xx_hal_mdma.c **** @endverbatim
 209:Drivers/STM32H7xx_HAL_Driver/Src/stm32h7xx_hal_mdma.c ****   * @{
 210:Drivers/STM32H7xx_HAL_Driver/Src/stm32h7xx_hal_mdma.c ****   */
 211:Drivers/STM32H7xx_HAL_Driver/Src/stm32h7xx_hal_mdma.c **** 
 212:Drivers/STM32H7xx_HAL_Driver/Src/stm32h7xx_hal_mdma.c **** /**
 213:Drivers/STM32H7xx_HAL_Driver/Src/stm32h7xx_hal_mdma.c ****   * @brief  Initializes the MDMA according to the specified
 214:Drivers/STM32H7xx_HAL_Driver/Src/stm32h7xx_hal_mdma.c ****   *         parameters in the MDMA_InitTypeDef and create the associated handle.
 215:Drivers/STM32H7xx_HAL_Driver/Src/stm32h7xx_hal_mdma.c ****   * @param  hmdma: Pointer to a MDMA_HandleTypeDef structure that contains
 216:Drivers/STM32H7xx_HAL_Driver/Src/stm32h7xx_hal_mdma.c ****   *               the configuration information for the specified MDMA Channel.
 217:Drivers/STM32H7xx_HAL_Driver/Src/stm32h7xx_hal_mdma.c ****   * @retval HAL status
 218:Drivers/STM32H7xx_HAL_Driver/Src/stm32h7xx_hal_mdma.c ****   */
 219:Drivers/STM32H7xx_HAL_Driver/Src/stm32h7xx_hal_mdma.c **** HAL_StatusTypeDef HAL_MDMA_Init(MDMA_HandleTypeDef *hmdma)
 220:Drivers/STM32H7xx_HAL_Driver/Src/stm32h7xx_hal_mdma.c **** {
  28              		.loc 1 220 1 view -0
  29              		.cfi_startproc
  30              		@ args = 0, pretend = 0, frame = 0
  31              		@ frame_needed = 0, uses_anonymous_args = 0
 221:Drivers/STM32H7xx_HAL_Driver/Src/stm32h7xx_hal_mdma.c ****   uint32_t tickstart = HAL_GetTick();
  32              		.loc 1 221 3 view .LVU1
 220:Drivers/STM32H7xx_HAL_Driver/Src/stm32h7xx_hal_mdma.c ****   uint32_t tickstart = HAL_GetTick();
  33              		.loc 1 220 1 is_stmt 0 view .LVU2
  34 0000 38B5     		push	{r3, r4, r5, lr}
  35              	.LCFI0:
  36              		.cfi_def_cfa_offset 16
  37              		.cfi_offset 3, -16
  38              		.cfi_offset 4, -12
  39              		.cfi_offset 5, -8
  40              		.cfi_offset 14, -4
 220:Drivers/STM32H7xx_HAL_Driver/Src/stm32h7xx_hal_mdma.c ****   uint32_t tickstart = HAL_GetTick();
  41              		.loc 1 220 1 view .LVU3
  42 0002 0446     		mov	r4, r0
  43              		.loc 1 221 24 view .LVU4
  44 0004 FFF7FEFF 		bl	HAL_GetTick
  45              	.LVL1:
 222:Drivers/STM32H7xx_HAL_Driver/Src/stm32h7xx_hal_mdma.c **** 
 223:Drivers/STM32H7xx_HAL_Driver/Src/stm32h7xx_hal_mdma.c ****   /* Check the MDMA peripheral handle */
 224:Drivers/STM32H7xx_HAL_Driver/Src/stm32h7xx_hal_mdma.c ****   if(hmdma == NULL)
  46              		.loc 1 224 3 is_stmt 1 view .LVU5
  47              		.loc 1 224 5 is_stmt 0 view .LVU6
  48 0008 002C     		cmp	r4, #0
  49 000a 5AD0     		beq	.L13
 225:Drivers/STM32H7xx_HAL_Driver/Src/stm32h7xx_hal_mdma.c ****   {
 226:Drivers/STM32H7xx_HAL_Driver/Src/stm32h7xx_hal_mdma.c ****     return HAL_ERROR;
 227:Drivers/STM32H7xx_HAL_Driver/Src/stm32h7xx_hal_mdma.c ****   }
 228:Drivers/STM32H7xx_HAL_Driver/Src/stm32h7xx_hal_mdma.c **** 
 229:Drivers/STM32H7xx_HAL_Driver/Src/stm32h7xx_hal_mdma.c ****   /* Check the parameters */
 230:Drivers/STM32H7xx_HAL_Driver/Src/stm32h7xx_hal_mdma.c ****   assert_param(IS_MDMA_STREAM_ALL_INSTANCE(hmdma->Instance));
 231:Drivers/STM32H7xx_HAL_Driver/Src/stm32h7xx_hal_mdma.c ****   assert_param(IS_MDMA_PRIORITY(hmdma->Init.Priority));
 232:Drivers/STM32H7xx_HAL_Driver/Src/stm32h7xx_hal_mdma.c ****   assert_param(IS_MDMA_ENDIANNESS_MODE(hmdma->Init.Endianness));
 233:Drivers/STM32H7xx_HAL_Driver/Src/stm32h7xx_hal_mdma.c ****   assert_param(IS_MDMA_REQUEST(hmdma->Init.Request));
 234:Drivers/STM32H7xx_HAL_Driver/Src/stm32h7xx_hal_mdma.c ****   assert_param(IS_MDMA_SOURCE_INC(hmdma->Init.SourceInc));
 235:Drivers/STM32H7xx_HAL_Driver/Src/stm32h7xx_hal_mdma.c ****   assert_param(IS_MDMA_DESTINATION_INC(hmdma->Init.DestinationInc));
ARM GAS  C:\Users\MadeuxS\AppData\Local\Temp\ccHqWtrv.s 			page 6


 236:Drivers/STM32H7xx_HAL_Driver/Src/stm32h7xx_hal_mdma.c ****   assert_param(IS_MDMA_SOURCE_DATASIZE(hmdma->Init.SourceDataSize));
 237:Drivers/STM32H7xx_HAL_Driver/Src/stm32h7xx_hal_mdma.c ****   assert_param(IS_MDMA_DESTINATION_DATASIZE(hmdma->Init.DestDataSize));
 238:Drivers/STM32H7xx_HAL_Driver/Src/stm32h7xx_hal_mdma.c ****   assert_param(IS_MDMA_DATA_ALIGNMENT(hmdma->Init.DataAlignment));
 239:Drivers/STM32H7xx_HAL_Driver/Src/stm32h7xx_hal_mdma.c ****   assert_param(IS_MDMA_SOURCE_BURST(hmdma->Init.SourceBurst));
 240:Drivers/STM32H7xx_HAL_Driver/Src/stm32h7xx_hal_mdma.c ****   assert_param(IS_MDMA_DESTINATION_BURST(hmdma->Init.DestBurst));
 241:Drivers/STM32H7xx_HAL_Driver/Src/stm32h7xx_hal_mdma.c ****   assert_param(IS_MDMA_BUFFER_TRANSFER_LENGTH(hmdma->Init.BufferTransferLength));
 242:Drivers/STM32H7xx_HAL_Driver/Src/stm32h7xx_hal_mdma.c ****   assert_param(IS_MDMA_TRANSFER_TRIGGER_MODE(hmdma->Init.TransferTriggerMode));
 243:Drivers/STM32H7xx_HAL_Driver/Src/stm32h7xx_hal_mdma.c ****   assert_param(IS_MDMA_BLOCK_ADDR_OFFSET(hmdma->Init.SourceBlockAddressOffset));
 244:Drivers/STM32H7xx_HAL_Driver/Src/stm32h7xx_hal_mdma.c ****   assert_param(IS_MDMA_BLOCK_ADDR_OFFSET(hmdma->Init.DestBlockAddressOffset));
 245:Drivers/STM32H7xx_HAL_Driver/Src/stm32h7xx_hal_mdma.c **** 
 246:Drivers/STM32H7xx_HAL_Driver/Src/stm32h7xx_hal_mdma.c **** 
 247:Drivers/STM32H7xx_HAL_Driver/Src/stm32h7xx_hal_mdma.c ****   /* Allocate lock resource */
 248:Drivers/STM32H7xx_HAL_Driver/Src/stm32h7xx_hal_mdma.c ****   __HAL_UNLOCK(hmdma);
 249:Drivers/STM32H7xx_HAL_Driver/Src/stm32h7xx_hal_mdma.c **** 
 250:Drivers/STM32H7xx_HAL_Driver/Src/stm32h7xx_hal_mdma.c ****   /* Change MDMA peripheral state */
 251:Drivers/STM32H7xx_HAL_Driver/Src/stm32h7xx_hal_mdma.c ****   hmdma->State = HAL_MDMA_STATE_BUSY;
 252:Drivers/STM32H7xx_HAL_Driver/Src/stm32h7xx_hal_mdma.c **** 
 253:Drivers/STM32H7xx_HAL_Driver/Src/stm32h7xx_hal_mdma.c ****   /* Disable the MDMA channel */
 254:Drivers/STM32H7xx_HAL_Driver/Src/stm32h7xx_hal_mdma.c ****   __HAL_MDMA_DISABLE(hmdma);
  50              		.loc 1 254 3 view .LVU7
  51 000c 2368     		ldr	r3, [r4]
 251:Drivers/STM32H7xx_HAL_Driver/Src/stm32h7xx_hal_mdma.c **** 
  52              		.loc 1 251 16 view .LVU8
  53 000e 0222     		movs	r2, #2
 248:Drivers/STM32H7xx_HAL_Driver/Src/stm32h7xx_hal_mdma.c **** 
  54              		.loc 1 248 3 view .LVU9
  55 0010 0021     		movs	r1, #0
  56 0012 0546     		mov	r5, r0
 230:Drivers/STM32H7xx_HAL_Driver/Src/stm32h7xx_hal_mdma.c ****   assert_param(IS_MDMA_PRIORITY(hmdma->Init.Priority));
  57              		.loc 1 230 3 is_stmt 1 view .LVU10
 231:Drivers/STM32H7xx_HAL_Driver/Src/stm32h7xx_hal_mdma.c ****   assert_param(IS_MDMA_ENDIANNESS_MODE(hmdma->Init.Endianness));
  58              		.loc 1 231 3 view .LVU11
 232:Drivers/STM32H7xx_HAL_Driver/Src/stm32h7xx_hal_mdma.c ****   assert_param(IS_MDMA_REQUEST(hmdma->Init.Request));
  59              		.loc 1 232 3 view .LVU12
 233:Drivers/STM32H7xx_HAL_Driver/Src/stm32h7xx_hal_mdma.c ****   assert_param(IS_MDMA_SOURCE_INC(hmdma->Init.SourceInc));
  60              		.loc 1 233 3 view .LVU13
 234:Drivers/STM32H7xx_HAL_Driver/Src/stm32h7xx_hal_mdma.c ****   assert_param(IS_MDMA_DESTINATION_INC(hmdma->Init.DestinationInc));
  61              		.loc 1 234 3 view .LVU14
 235:Drivers/STM32H7xx_HAL_Driver/Src/stm32h7xx_hal_mdma.c ****   assert_param(IS_MDMA_SOURCE_DATASIZE(hmdma->Init.SourceDataSize));
  62              		.loc 1 235 3 view .LVU15
 236:Drivers/STM32H7xx_HAL_Driver/Src/stm32h7xx_hal_mdma.c ****   assert_param(IS_MDMA_DESTINATION_DATASIZE(hmdma->Init.DestDataSize));
  63              		.loc 1 236 3 view .LVU16
 237:Drivers/STM32H7xx_HAL_Driver/Src/stm32h7xx_hal_mdma.c ****   assert_param(IS_MDMA_DATA_ALIGNMENT(hmdma->Init.DataAlignment));
  64              		.loc 1 237 3 view .LVU17
 238:Drivers/STM32H7xx_HAL_Driver/Src/stm32h7xx_hal_mdma.c ****   assert_param(IS_MDMA_SOURCE_BURST(hmdma->Init.SourceBurst));
  65              		.loc 1 238 3 view .LVU18
 239:Drivers/STM32H7xx_HAL_Driver/Src/stm32h7xx_hal_mdma.c ****   assert_param(IS_MDMA_DESTINATION_BURST(hmdma->Init.DestBurst));
  66              		.loc 1 239 3 view .LVU19
 240:Drivers/STM32H7xx_HAL_Driver/Src/stm32h7xx_hal_mdma.c ****   assert_param(IS_MDMA_BUFFER_TRANSFER_LENGTH(hmdma->Init.BufferTransferLength));
  67              		.loc 1 240 3 view .LVU20
 241:Drivers/STM32H7xx_HAL_Driver/Src/stm32h7xx_hal_mdma.c ****   assert_param(IS_MDMA_TRANSFER_TRIGGER_MODE(hmdma->Init.TransferTriggerMode));
  68              		.loc 1 241 3 view .LVU21
 242:Drivers/STM32H7xx_HAL_Driver/Src/stm32h7xx_hal_mdma.c ****   assert_param(IS_MDMA_BLOCK_ADDR_OFFSET(hmdma->Init.SourceBlockAddressOffset));
  69              		.loc 1 242 3 view .LVU22
 243:Drivers/STM32H7xx_HAL_Driver/Src/stm32h7xx_hal_mdma.c ****   assert_param(IS_MDMA_BLOCK_ADDR_OFFSET(hmdma->Init.DestBlockAddressOffset));
  70              		.loc 1 243 3 view .LVU23
 244:Drivers/STM32H7xx_HAL_Driver/Src/stm32h7xx_hal_mdma.c **** 
ARM GAS  C:\Users\MadeuxS\AppData\Local\Temp\ccHqWtrv.s 			page 7


  71              		.loc 1 244 3 view .LVU24
 248:Drivers/STM32H7xx_HAL_Driver/Src/stm32h7xx_hal_mdma.c **** 
  72              		.loc 1 248 3 view .LVU25
 248:Drivers/STM32H7xx_HAL_Driver/Src/stm32h7xx_hal_mdma.c **** 
  73              		.loc 1 248 3 view .LVU26
 251:Drivers/STM32H7xx_HAL_Driver/Src/stm32h7xx_hal_mdma.c **** 
  74              		.loc 1 251 16 is_stmt 0 view .LVU27
  75 0014 84F83D20 		strb	r2, [r4, #61]
 248:Drivers/STM32H7xx_HAL_Driver/Src/stm32h7xx_hal_mdma.c **** 
  76              		.loc 1 248 3 view .LVU28
  77 0018 84F83C10 		strb	r1, [r4, #60]
 248:Drivers/STM32H7xx_HAL_Driver/Src/stm32h7xx_hal_mdma.c **** 
  78              		.loc 1 248 3 is_stmt 1 view .LVU29
 251:Drivers/STM32H7xx_HAL_Driver/Src/stm32h7xx_hal_mdma.c **** 
  79              		.loc 1 251 3 view .LVU30
  80              		.loc 1 254 3 view .LVU31
  81 001c DA68     		ldr	r2, [r3, #12]
  82 001e 22F00102 		bic	r2, r2, #1
  83 0022 DA60     		str	r2, [r3, #12]
 255:Drivers/STM32H7xx_HAL_Driver/Src/stm32h7xx_hal_mdma.c **** 
 256:Drivers/STM32H7xx_HAL_Driver/Src/stm32h7xx_hal_mdma.c ****   /* Check if the MDMA channel is effectively disabled */
 257:Drivers/STM32H7xx_HAL_Driver/Src/stm32h7xx_hal_mdma.c ****   while((hmdma->Instance->CCR & MDMA_CCR_EN) != 0U)
  84              		.loc 1 257 3 view .LVU32
  85              		.loc 1 257 8 is_stmt 0 view .LVU33
  86 0024 05E0     		b	.L3
  87              	.LVL2:
  88              	.L5:
 258:Drivers/STM32H7xx_HAL_Driver/Src/stm32h7xx_hal_mdma.c ****   {
 259:Drivers/STM32H7xx_HAL_Driver/Src/stm32h7xx_hal_mdma.c ****     /* Check for the Timeout */
 260:Drivers/STM32H7xx_HAL_Driver/Src/stm32h7xx_hal_mdma.c ****     if((HAL_GetTick() - tickstart ) > HAL_TIMEOUT_MDMA_ABORT)
  89              		.loc 1 260 9 view .LVU34
  90 0026 FFF7FEFF 		bl	HAL_GetTick
  91              	.LVL3:
  92              		.loc 1 260 23 view .LVU35
  93 002a 431B     		subs	r3, r0, r5
  94              		.loc 1 260 7 view .LVU36
  95 002c 052B     		cmp	r3, #5
  96 002e 41D8     		bhi	.L16
 257:Drivers/STM32H7xx_HAL_Driver/Src/stm32h7xx_hal_mdma.c ****   {
  97              		.loc 1 257 15 view .LVU37
  98 0030 2368     		ldr	r3, [r4]
  99              	.L3:
 100              		.loc 1 260 5 is_stmt 1 view .LVU38
 257:Drivers/STM32H7xx_HAL_Driver/Src/stm32h7xx_hal_mdma.c ****   {
 101              		.loc 1 257 8 view .LVU39
 257:Drivers/STM32H7xx_HAL_Driver/Src/stm32h7xx_hal_mdma.c ****   {
 102              		.loc 1 257 25 is_stmt 0 view .LVU40
 103 0032 DA68     		ldr	r2, [r3, #12]
 257:Drivers/STM32H7xx_HAL_Driver/Src/stm32h7xx_hal_mdma.c ****   {
 104              		.loc 1 257 8 view .LVU41
 105 0034 D207     		lsls	r2, r2, #31
 106 0036 F6D4     		bmi	.L5
 261:Drivers/STM32H7xx_HAL_Driver/Src/stm32h7xx_hal_mdma.c ****     {
 262:Drivers/STM32H7xx_HAL_Driver/Src/stm32h7xx_hal_mdma.c ****       /* Update error code */
 263:Drivers/STM32H7xx_HAL_Driver/Src/stm32h7xx_hal_mdma.c ****       hmdma->ErrorCode = HAL_MDMA_ERROR_TIMEOUT;
 264:Drivers/STM32H7xx_HAL_Driver/Src/stm32h7xx_hal_mdma.c **** 
 265:Drivers/STM32H7xx_HAL_Driver/Src/stm32h7xx_hal_mdma.c ****       /* Change the MDMA state */
ARM GAS  C:\Users\MadeuxS\AppData\Local\Temp\ccHqWtrv.s 			page 8


 266:Drivers/STM32H7xx_HAL_Driver/Src/stm32h7xx_hal_mdma.c ****       hmdma->State = HAL_MDMA_STATE_ERROR;
 267:Drivers/STM32H7xx_HAL_Driver/Src/stm32h7xx_hal_mdma.c **** 
 268:Drivers/STM32H7xx_HAL_Driver/Src/stm32h7xx_hal_mdma.c ****       return HAL_ERROR;
 269:Drivers/STM32H7xx_HAL_Driver/Src/stm32h7xx_hal_mdma.c ****     }
 270:Drivers/STM32H7xx_HAL_Driver/Src/stm32h7xx_hal_mdma.c ****   }
 271:Drivers/STM32H7xx_HAL_Driver/Src/stm32h7xx_hal_mdma.c **** 
 272:Drivers/STM32H7xx_HAL_Driver/Src/stm32h7xx_hal_mdma.c ****   /* Initialize the MDMA channel registers */
 273:Drivers/STM32H7xx_HAL_Driver/Src/stm32h7xx_hal_mdma.c ****   MDMA_Init(hmdma);
 107              		.loc 1 273 3 is_stmt 1 view .LVU42
 108              	.LVL4:
 109              	.LBB4:
 110              	.LBI4:
 274:Drivers/STM32H7xx_HAL_Driver/Src/stm32h7xx_hal_mdma.c **** 
 275:Drivers/STM32H7xx_HAL_Driver/Src/stm32h7xx_hal_mdma.c ****   /* Reset the MDMA first/last linkedlist node addresses and node counter */
 276:Drivers/STM32H7xx_HAL_Driver/Src/stm32h7xx_hal_mdma.c ****   hmdma->FirstLinkedListNodeAddress  = 0;
 277:Drivers/STM32H7xx_HAL_Driver/Src/stm32h7xx_hal_mdma.c ****   hmdma->LastLinkedListNodeAddress   = 0;
 278:Drivers/STM32H7xx_HAL_Driver/Src/stm32h7xx_hal_mdma.c ****   hmdma->LinkedListNodeCounter  = 0;
 279:Drivers/STM32H7xx_HAL_Driver/Src/stm32h7xx_hal_mdma.c **** 
 280:Drivers/STM32H7xx_HAL_Driver/Src/stm32h7xx_hal_mdma.c ****   /* Initialize the error code */
 281:Drivers/STM32H7xx_HAL_Driver/Src/stm32h7xx_hal_mdma.c ****   hmdma->ErrorCode = HAL_MDMA_ERROR_NONE;
 282:Drivers/STM32H7xx_HAL_Driver/Src/stm32h7xx_hal_mdma.c **** 
 283:Drivers/STM32H7xx_HAL_Driver/Src/stm32h7xx_hal_mdma.c ****   /* Initialize the MDMA state */
 284:Drivers/STM32H7xx_HAL_Driver/Src/stm32h7xx_hal_mdma.c ****   hmdma->State = HAL_MDMA_STATE_READY;
 285:Drivers/STM32H7xx_HAL_Driver/Src/stm32h7xx_hal_mdma.c **** 
 286:Drivers/STM32H7xx_HAL_Driver/Src/stm32h7xx_hal_mdma.c ****   return HAL_OK;
 287:Drivers/STM32H7xx_HAL_Driver/Src/stm32h7xx_hal_mdma.c **** }
 288:Drivers/STM32H7xx_HAL_Driver/Src/stm32h7xx_hal_mdma.c **** 
 289:Drivers/STM32H7xx_HAL_Driver/Src/stm32h7xx_hal_mdma.c **** /**
 290:Drivers/STM32H7xx_HAL_Driver/Src/stm32h7xx_hal_mdma.c ****   * @brief  DeInitializes the MDMA peripheral
 291:Drivers/STM32H7xx_HAL_Driver/Src/stm32h7xx_hal_mdma.c ****   * @param  hmdma: pointer to a MDMA_HandleTypeDef structure that contains
 292:Drivers/STM32H7xx_HAL_Driver/Src/stm32h7xx_hal_mdma.c ****   *               the configuration information for the specified MDMA Channel.
 293:Drivers/STM32H7xx_HAL_Driver/Src/stm32h7xx_hal_mdma.c ****   * @retval HAL status
 294:Drivers/STM32H7xx_HAL_Driver/Src/stm32h7xx_hal_mdma.c ****   */
 295:Drivers/STM32H7xx_HAL_Driver/Src/stm32h7xx_hal_mdma.c **** HAL_StatusTypeDef HAL_MDMA_DeInit(MDMA_HandleTypeDef *hmdma)
 296:Drivers/STM32H7xx_HAL_Driver/Src/stm32h7xx_hal_mdma.c **** {
 297:Drivers/STM32H7xx_HAL_Driver/Src/stm32h7xx_hal_mdma.c **** 
 298:Drivers/STM32H7xx_HAL_Driver/Src/stm32h7xx_hal_mdma.c ****   /* Check the MDMA peripheral handle */
 299:Drivers/STM32H7xx_HAL_Driver/Src/stm32h7xx_hal_mdma.c ****   if(hmdma == NULL)
 300:Drivers/STM32H7xx_HAL_Driver/Src/stm32h7xx_hal_mdma.c ****   {
 301:Drivers/STM32H7xx_HAL_Driver/Src/stm32h7xx_hal_mdma.c ****     return HAL_ERROR;
 302:Drivers/STM32H7xx_HAL_Driver/Src/stm32h7xx_hal_mdma.c ****   }
 303:Drivers/STM32H7xx_HAL_Driver/Src/stm32h7xx_hal_mdma.c **** 
 304:Drivers/STM32H7xx_HAL_Driver/Src/stm32h7xx_hal_mdma.c ****   /* Disable the selected MDMA Channelx */
 305:Drivers/STM32H7xx_HAL_Driver/Src/stm32h7xx_hal_mdma.c ****   __HAL_MDMA_DISABLE(hmdma);
 306:Drivers/STM32H7xx_HAL_Driver/Src/stm32h7xx_hal_mdma.c **** 
 307:Drivers/STM32H7xx_HAL_Driver/Src/stm32h7xx_hal_mdma.c ****   /* Reset MDMA Channel control register */
 308:Drivers/STM32H7xx_HAL_Driver/Src/stm32h7xx_hal_mdma.c ****   hmdma->Instance->CCR  = 0;
 309:Drivers/STM32H7xx_HAL_Driver/Src/stm32h7xx_hal_mdma.c ****   hmdma->Instance->CTCR = 0;
 310:Drivers/STM32H7xx_HAL_Driver/Src/stm32h7xx_hal_mdma.c ****   hmdma->Instance->CBNDTR = 0;
 311:Drivers/STM32H7xx_HAL_Driver/Src/stm32h7xx_hal_mdma.c ****   hmdma->Instance->CSAR = 0;
 312:Drivers/STM32H7xx_HAL_Driver/Src/stm32h7xx_hal_mdma.c ****   hmdma->Instance->CDAR = 0;
 313:Drivers/STM32H7xx_HAL_Driver/Src/stm32h7xx_hal_mdma.c ****   hmdma->Instance->CBRUR = 0;
 314:Drivers/STM32H7xx_HAL_Driver/Src/stm32h7xx_hal_mdma.c ****   hmdma->Instance->CLAR = 0;
 315:Drivers/STM32H7xx_HAL_Driver/Src/stm32h7xx_hal_mdma.c ****   hmdma->Instance->CTBR = 0;
 316:Drivers/STM32H7xx_HAL_Driver/Src/stm32h7xx_hal_mdma.c ****   hmdma->Instance->CMAR = 0;
 317:Drivers/STM32H7xx_HAL_Driver/Src/stm32h7xx_hal_mdma.c ****   hmdma->Instance->CMDR = 0;
 318:Drivers/STM32H7xx_HAL_Driver/Src/stm32h7xx_hal_mdma.c **** 
ARM GAS  C:\Users\MadeuxS\AppData\Local\Temp\ccHqWtrv.s 			page 9


 319:Drivers/STM32H7xx_HAL_Driver/Src/stm32h7xx_hal_mdma.c ****   /* Clear all flags */
 320:Drivers/STM32H7xx_HAL_Driver/Src/stm32h7xx_hal_mdma.c ****   __HAL_MDMA_CLEAR_FLAG(hmdma,(MDMA_FLAG_TE | MDMA_FLAG_CTC | MDMA_FLAG_BRT | MDMA_FLAG_BT | MDMA_F
 321:Drivers/STM32H7xx_HAL_Driver/Src/stm32h7xx_hal_mdma.c **** 
 322:Drivers/STM32H7xx_HAL_Driver/Src/stm32h7xx_hal_mdma.c ****   /* Reset the  MDMA first/last linkedlist node addresses and node counter */
 323:Drivers/STM32H7xx_HAL_Driver/Src/stm32h7xx_hal_mdma.c ****   hmdma->FirstLinkedListNodeAddress  = 0;
 324:Drivers/STM32H7xx_HAL_Driver/Src/stm32h7xx_hal_mdma.c ****   hmdma->LastLinkedListNodeAddress   = 0;
 325:Drivers/STM32H7xx_HAL_Driver/Src/stm32h7xx_hal_mdma.c ****   hmdma->LinkedListNodeCounter  = 0;
 326:Drivers/STM32H7xx_HAL_Driver/Src/stm32h7xx_hal_mdma.c **** 
 327:Drivers/STM32H7xx_HAL_Driver/Src/stm32h7xx_hal_mdma.c ****   /* Initialize the error code */
 328:Drivers/STM32H7xx_HAL_Driver/Src/stm32h7xx_hal_mdma.c ****   hmdma->ErrorCode = HAL_MDMA_ERROR_NONE;
 329:Drivers/STM32H7xx_HAL_Driver/Src/stm32h7xx_hal_mdma.c **** 
 330:Drivers/STM32H7xx_HAL_Driver/Src/stm32h7xx_hal_mdma.c ****   /* Initialize the MDMA state */
 331:Drivers/STM32H7xx_HAL_Driver/Src/stm32h7xx_hal_mdma.c ****   hmdma->State = HAL_MDMA_STATE_RESET;
 332:Drivers/STM32H7xx_HAL_Driver/Src/stm32h7xx_hal_mdma.c **** 
 333:Drivers/STM32H7xx_HAL_Driver/Src/stm32h7xx_hal_mdma.c ****   /* Release Lock */
 334:Drivers/STM32H7xx_HAL_Driver/Src/stm32h7xx_hal_mdma.c ****   __HAL_UNLOCK(hmdma);
 335:Drivers/STM32H7xx_HAL_Driver/Src/stm32h7xx_hal_mdma.c **** 
 336:Drivers/STM32H7xx_HAL_Driver/Src/stm32h7xx_hal_mdma.c ****   return HAL_OK;
 337:Drivers/STM32H7xx_HAL_Driver/Src/stm32h7xx_hal_mdma.c **** }
 338:Drivers/STM32H7xx_HAL_Driver/Src/stm32h7xx_hal_mdma.c **** 
 339:Drivers/STM32H7xx_HAL_Driver/Src/stm32h7xx_hal_mdma.c **** /**
 340:Drivers/STM32H7xx_HAL_Driver/Src/stm32h7xx_hal_mdma.c ****   * @brief  Config the Post request Mask address and Mask data
 341:Drivers/STM32H7xx_HAL_Driver/Src/stm32h7xx_hal_mdma.c ****   * @param  hmdma      : pointer to a MDMA_HandleTypeDef structure that contains
 342:Drivers/STM32H7xx_HAL_Driver/Src/stm32h7xx_hal_mdma.c ****   *                               the configuration information for the specified MDMA Channel.
 343:Drivers/STM32H7xx_HAL_Driver/Src/stm32h7xx_hal_mdma.c ****   * @param  MaskAddress: specifies the address to be updated (written) with MaskData after a reques
 344:Drivers/STM32H7xx_HAL_Driver/Src/stm32h7xx_hal_mdma.c ****   * @param  MaskData:    specifies the value to be written to MaskAddress after a request is served
 345:Drivers/STM32H7xx_HAL_Driver/Src/stm32h7xx_hal_mdma.c ****   *                      MaskAddress and MaskData could be used to automatically clear a peripheral
 346:Drivers/STM32H7xx_HAL_Driver/Src/stm32h7xx_hal_mdma.c ****   * @retval HAL status
 347:Drivers/STM32H7xx_HAL_Driver/Src/stm32h7xx_hal_mdma.c ****   */
 348:Drivers/STM32H7xx_HAL_Driver/Src/stm32h7xx_hal_mdma.c **** HAL_StatusTypeDef HAL_MDMA_ConfigPostRequestMask(MDMA_HandleTypeDef *hmdma, uint32_t MaskAddress, u
 349:Drivers/STM32H7xx_HAL_Driver/Src/stm32h7xx_hal_mdma.c **** {
 350:Drivers/STM32H7xx_HAL_Driver/Src/stm32h7xx_hal_mdma.c ****   HAL_StatusTypeDef  status = HAL_OK;
 351:Drivers/STM32H7xx_HAL_Driver/Src/stm32h7xx_hal_mdma.c **** 
 352:Drivers/STM32H7xx_HAL_Driver/Src/stm32h7xx_hal_mdma.c ****   /* Check the MDMA peripheral handle */
 353:Drivers/STM32H7xx_HAL_Driver/Src/stm32h7xx_hal_mdma.c ****   if(hmdma == NULL)
 354:Drivers/STM32H7xx_HAL_Driver/Src/stm32h7xx_hal_mdma.c ****   {
 355:Drivers/STM32H7xx_HAL_Driver/Src/stm32h7xx_hal_mdma.c ****     return HAL_ERROR;
 356:Drivers/STM32H7xx_HAL_Driver/Src/stm32h7xx_hal_mdma.c ****   }
 357:Drivers/STM32H7xx_HAL_Driver/Src/stm32h7xx_hal_mdma.c **** 
 358:Drivers/STM32H7xx_HAL_Driver/Src/stm32h7xx_hal_mdma.c ****   /* Process locked */
 359:Drivers/STM32H7xx_HAL_Driver/Src/stm32h7xx_hal_mdma.c ****   __HAL_LOCK(hmdma);
 360:Drivers/STM32H7xx_HAL_Driver/Src/stm32h7xx_hal_mdma.c **** 
 361:Drivers/STM32H7xx_HAL_Driver/Src/stm32h7xx_hal_mdma.c ****   if(HAL_MDMA_STATE_READY == hmdma->State)
 362:Drivers/STM32H7xx_HAL_Driver/Src/stm32h7xx_hal_mdma.c ****   {
 363:Drivers/STM32H7xx_HAL_Driver/Src/stm32h7xx_hal_mdma.c ****     /* if HW request set Post Request MaskAddress and MaskData,  */
 364:Drivers/STM32H7xx_HAL_Driver/Src/stm32h7xx_hal_mdma.c ****     if((hmdma->Instance->CTCR & MDMA_CTCR_SWRM) == 0U)
 365:Drivers/STM32H7xx_HAL_Driver/Src/stm32h7xx_hal_mdma.c ****     {
 366:Drivers/STM32H7xx_HAL_Driver/Src/stm32h7xx_hal_mdma.c ****       /* Set the HW request clear Mask and Data */
 367:Drivers/STM32H7xx_HAL_Driver/Src/stm32h7xx_hal_mdma.c ****       hmdma->Instance->CMAR = MaskAddress;
 368:Drivers/STM32H7xx_HAL_Driver/Src/stm32h7xx_hal_mdma.c ****       hmdma->Instance->CMDR = MaskData;
 369:Drivers/STM32H7xx_HAL_Driver/Src/stm32h7xx_hal_mdma.c **** 
 370:Drivers/STM32H7xx_HAL_Driver/Src/stm32h7xx_hal_mdma.c ****       /*
 371:Drivers/STM32H7xx_HAL_Driver/Src/stm32h7xx_hal_mdma.c ****       -If the request is done by SW : BWM could be set to 1 or 0.
 372:Drivers/STM32H7xx_HAL_Driver/Src/stm32h7xx_hal_mdma.c ****       -If the request is done by a peripheral :
 373:Drivers/STM32H7xx_HAL_Driver/Src/stm32h7xx_hal_mdma.c ****          If mask address not set (0) => BWM must be set to 0
 374:Drivers/STM32H7xx_HAL_Driver/Src/stm32h7xx_hal_mdma.c ****          If mask address set (different than 0) => BWM could be set to 1 or 0
 375:Drivers/STM32H7xx_HAL_Driver/Src/stm32h7xx_hal_mdma.c ****       */
ARM GAS  C:\Users\MadeuxS\AppData\Local\Temp\ccHqWtrv.s 			page 10


 376:Drivers/STM32H7xx_HAL_Driver/Src/stm32h7xx_hal_mdma.c ****       if(MaskAddress == 0U)
 377:Drivers/STM32H7xx_HAL_Driver/Src/stm32h7xx_hal_mdma.c ****       {
 378:Drivers/STM32H7xx_HAL_Driver/Src/stm32h7xx_hal_mdma.c ****         hmdma->Instance->CTCR &=  ~MDMA_CTCR_BWM;
 379:Drivers/STM32H7xx_HAL_Driver/Src/stm32h7xx_hal_mdma.c ****       }
 380:Drivers/STM32H7xx_HAL_Driver/Src/stm32h7xx_hal_mdma.c ****       else
 381:Drivers/STM32H7xx_HAL_Driver/Src/stm32h7xx_hal_mdma.c ****       {
 382:Drivers/STM32H7xx_HAL_Driver/Src/stm32h7xx_hal_mdma.c ****         hmdma->Instance->CTCR |=  MDMA_CTCR_BWM;
 383:Drivers/STM32H7xx_HAL_Driver/Src/stm32h7xx_hal_mdma.c ****       }
 384:Drivers/STM32H7xx_HAL_Driver/Src/stm32h7xx_hal_mdma.c ****     }
 385:Drivers/STM32H7xx_HAL_Driver/Src/stm32h7xx_hal_mdma.c ****     else
 386:Drivers/STM32H7xx_HAL_Driver/Src/stm32h7xx_hal_mdma.c ****     {
 387:Drivers/STM32H7xx_HAL_Driver/Src/stm32h7xx_hal_mdma.c ****       /* Return error status */
 388:Drivers/STM32H7xx_HAL_Driver/Src/stm32h7xx_hal_mdma.c ****       status =  HAL_ERROR;
 389:Drivers/STM32H7xx_HAL_Driver/Src/stm32h7xx_hal_mdma.c ****     }
 390:Drivers/STM32H7xx_HAL_Driver/Src/stm32h7xx_hal_mdma.c ****   }
 391:Drivers/STM32H7xx_HAL_Driver/Src/stm32h7xx_hal_mdma.c ****   else
 392:Drivers/STM32H7xx_HAL_Driver/Src/stm32h7xx_hal_mdma.c ****   {
 393:Drivers/STM32H7xx_HAL_Driver/Src/stm32h7xx_hal_mdma.c ****     /* Return error status */
 394:Drivers/STM32H7xx_HAL_Driver/Src/stm32h7xx_hal_mdma.c ****     status =  HAL_ERROR;
 395:Drivers/STM32H7xx_HAL_Driver/Src/stm32h7xx_hal_mdma.c ****   }
 396:Drivers/STM32H7xx_HAL_Driver/Src/stm32h7xx_hal_mdma.c ****   /* Release Lock */
 397:Drivers/STM32H7xx_HAL_Driver/Src/stm32h7xx_hal_mdma.c ****   __HAL_UNLOCK(hmdma);
 398:Drivers/STM32H7xx_HAL_Driver/Src/stm32h7xx_hal_mdma.c **** 
 399:Drivers/STM32H7xx_HAL_Driver/Src/stm32h7xx_hal_mdma.c ****   return status;
 400:Drivers/STM32H7xx_HAL_Driver/Src/stm32h7xx_hal_mdma.c **** }
 401:Drivers/STM32H7xx_HAL_Driver/Src/stm32h7xx_hal_mdma.c **** 
 402:Drivers/STM32H7xx_HAL_Driver/Src/stm32h7xx_hal_mdma.c **** /**
 403:Drivers/STM32H7xx_HAL_Driver/Src/stm32h7xx_hal_mdma.c ****   * @brief  Register callbacks
 404:Drivers/STM32H7xx_HAL_Driver/Src/stm32h7xx_hal_mdma.c ****   * @param  hmdma:                pointer to a MDMA_HandleTypeDef structure that contains
 405:Drivers/STM32H7xx_HAL_Driver/Src/stm32h7xx_hal_mdma.c ****   *                               the configuration information for the specified MDMA Channel.
 406:Drivers/STM32H7xx_HAL_Driver/Src/stm32h7xx_hal_mdma.c ****   * @param  CallbackID:           User Callback identifier
 407:Drivers/STM32H7xx_HAL_Driver/Src/stm32h7xx_hal_mdma.c ****   * @param  pCallback:            pointer to callbacsk function.
 408:Drivers/STM32H7xx_HAL_Driver/Src/stm32h7xx_hal_mdma.c ****   * @retval HAL status
 409:Drivers/STM32H7xx_HAL_Driver/Src/stm32h7xx_hal_mdma.c ****   */
 410:Drivers/STM32H7xx_HAL_Driver/Src/stm32h7xx_hal_mdma.c **** HAL_StatusTypeDef HAL_MDMA_RegisterCallback(MDMA_HandleTypeDef *hmdma, HAL_MDMA_CallbackIDTypeDef C
 411:Drivers/STM32H7xx_HAL_Driver/Src/stm32h7xx_hal_mdma.c **** {
 412:Drivers/STM32H7xx_HAL_Driver/Src/stm32h7xx_hal_mdma.c ****   HAL_StatusTypeDef status = HAL_OK;
 413:Drivers/STM32H7xx_HAL_Driver/Src/stm32h7xx_hal_mdma.c **** 
 414:Drivers/STM32H7xx_HAL_Driver/Src/stm32h7xx_hal_mdma.c ****   /* Check the MDMA peripheral handle */
 415:Drivers/STM32H7xx_HAL_Driver/Src/stm32h7xx_hal_mdma.c ****   if(hmdma == NULL)
 416:Drivers/STM32H7xx_HAL_Driver/Src/stm32h7xx_hal_mdma.c ****   {
 417:Drivers/STM32H7xx_HAL_Driver/Src/stm32h7xx_hal_mdma.c ****     return HAL_ERROR;
 418:Drivers/STM32H7xx_HAL_Driver/Src/stm32h7xx_hal_mdma.c ****   }
 419:Drivers/STM32H7xx_HAL_Driver/Src/stm32h7xx_hal_mdma.c **** 
 420:Drivers/STM32H7xx_HAL_Driver/Src/stm32h7xx_hal_mdma.c ****   /* Process locked */
 421:Drivers/STM32H7xx_HAL_Driver/Src/stm32h7xx_hal_mdma.c ****   __HAL_LOCK(hmdma);
 422:Drivers/STM32H7xx_HAL_Driver/Src/stm32h7xx_hal_mdma.c **** 
 423:Drivers/STM32H7xx_HAL_Driver/Src/stm32h7xx_hal_mdma.c ****   if(HAL_MDMA_STATE_READY == hmdma->State)
 424:Drivers/STM32H7xx_HAL_Driver/Src/stm32h7xx_hal_mdma.c ****   {
 425:Drivers/STM32H7xx_HAL_Driver/Src/stm32h7xx_hal_mdma.c ****     switch (CallbackID)
 426:Drivers/STM32H7xx_HAL_Driver/Src/stm32h7xx_hal_mdma.c ****     {
 427:Drivers/STM32H7xx_HAL_Driver/Src/stm32h7xx_hal_mdma.c ****     case  HAL_MDMA_XFER_CPLT_CB_ID:
 428:Drivers/STM32H7xx_HAL_Driver/Src/stm32h7xx_hal_mdma.c ****       hmdma->XferCpltCallback = pCallback;
 429:Drivers/STM32H7xx_HAL_Driver/Src/stm32h7xx_hal_mdma.c ****       break;
 430:Drivers/STM32H7xx_HAL_Driver/Src/stm32h7xx_hal_mdma.c **** 
 431:Drivers/STM32H7xx_HAL_Driver/Src/stm32h7xx_hal_mdma.c ****     case  HAL_MDMA_XFER_BUFFERCPLT_CB_ID:
 432:Drivers/STM32H7xx_HAL_Driver/Src/stm32h7xx_hal_mdma.c ****       hmdma->XferBufferCpltCallback = pCallback;
ARM GAS  C:\Users\MadeuxS\AppData\Local\Temp\ccHqWtrv.s 			page 11


 433:Drivers/STM32H7xx_HAL_Driver/Src/stm32h7xx_hal_mdma.c ****       break;
 434:Drivers/STM32H7xx_HAL_Driver/Src/stm32h7xx_hal_mdma.c **** 
 435:Drivers/STM32H7xx_HAL_Driver/Src/stm32h7xx_hal_mdma.c ****     case  HAL_MDMA_XFER_BLOCKCPLT_CB_ID:
 436:Drivers/STM32H7xx_HAL_Driver/Src/stm32h7xx_hal_mdma.c ****       hmdma->XferBlockCpltCallback = pCallback;
 437:Drivers/STM32H7xx_HAL_Driver/Src/stm32h7xx_hal_mdma.c ****       break;
 438:Drivers/STM32H7xx_HAL_Driver/Src/stm32h7xx_hal_mdma.c **** 
 439:Drivers/STM32H7xx_HAL_Driver/Src/stm32h7xx_hal_mdma.c ****     case  HAL_MDMA_XFER_REPBLOCKCPLT_CB_ID:
 440:Drivers/STM32H7xx_HAL_Driver/Src/stm32h7xx_hal_mdma.c ****       hmdma->XferRepeatBlockCpltCallback = pCallback;
 441:Drivers/STM32H7xx_HAL_Driver/Src/stm32h7xx_hal_mdma.c ****       break;
 442:Drivers/STM32H7xx_HAL_Driver/Src/stm32h7xx_hal_mdma.c **** 
 443:Drivers/STM32H7xx_HAL_Driver/Src/stm32h7xx_hal_mdma.c ****     case  HAL_MDMA_XFER_ERROR_CB_ID:
 444:Drivers/STM32H7xx_HAL_Driver/Src/stm32h7xx_hal_mdma.c ****       hmdma->XferErrorCallback = pCallback;
 445:Drivers/STM32H7xx_HAL_Driver/Src/stm32h7xx_hal_mdma.c ****       break;
 446:Drivers/STM32H7xx_HAL_Driver/Src/stm32h7xx_hal_mdma.c **** 
 447:Drivers/STM32H7xx_HAL_Driver/Src/stm32h7xx_hal_mdma.c ****     case  HAL_MDMA_XFER_ABORT_CB_ID:
 448:Drivers/STM32H7xx_HAL_Driver/Src/stm32h7xx_hal_mdma.c ****       hmdma->XferAbortCallback = pCallback;
 449:Drivers/STM32H7xx_HAL_Driver/Src/stm32h7xx_hal_mdma.c ****       break;
 450:Drivers/STM32H7xx_HAL_Driver/Src/stm32h7xx_hal_mdma.c **** 
 451:Drivers/STM32H7xx_HAL_Driver/Src/stm32h7xx_hal_mdma.c ****     default:
 452:Drivers/STM32H7xx_HAL_Driver/Src/stm32h7xx_hal_mdma.c ****       break;
 453:Drivers/STM32H7xx_HAL_Driver/Src/stm32h7xx_hal_mdma.c ****     }
 454:Drivers/STM32H7xx_HAL_Driver/Src/stm32h7xx_hal_mdma.c ****   }
 455:Drivers/STM32H7xx_HAL_Driver/Src/stm32h7xx_hal_mdma.c ****   else
 456:Drivers/STM32H7xx_HAL_Driver/Src/stm32h7xx_hal_mdma.c ****   {
 457:Drivers/STM32H7xx_HAL_Driver/Src/stm32h7xx_hal_mdma.c ****     /* Return error status */
 458:Drivers/STM32H7xx_HAL_Driver/Src/stm32h7xx_hal_mdma.c ****     status =  HAL_ERROR;
 459:Drivers/STM32H7xx_HAL_Driver/Src/stm32h7xx_hal_mdma.c ****   }
 460:Drivers/STM32H7xx_HAL_Driver/Src/stm32h7xx_hal_mdma.c **** 
 461:Drivers/STM32H7xx_HAL_Driver/Src/stm32h7xx_hal_mdma.c ****   /* Release Lock */
 462:Drivers/STM32H7xx_HAL_Driver/Src/stm32h7xx_hal_mdma.c ****   __HAL_UNLOCK(hmdma);
 463:Drivers/STM32H7xx_HAL_Driver/Src/stm32h7xx_hal_mdma.c **** 
 464:Drivers/STM32H7xx_HAL_Driver/Src/stm32h7xx_hal_mdma.c ****   return status;
 465:Drivers/STM32H7xx_HAL_Driver/Src/stm32h7xx_hal_mdma.c **** }
 466:Drivers/STM32H7xx_HAL_Driver/Src/stm32h7xx_hal_mdma.c **** 
 467:Drivers/STM32H7xx_HAL_Driver/Src/stm32h7xx_hal_mdma.c **** /**
 468:Drivers/STM32H7xx_HAL_Driver/Src/stm32h7xx_hal_mdma.c ****   * @brief  UnRegister callbacks
 469:Drivers/STM32H7xx_HAL_Driver/Src/stm32h7xx_hal_mdma.c ****   * @param  hmdma:                 pointer to a MDMA_HandleTypeDef structure that contains
 470:Drivers/STM32H7xx_HAL_Driver/Src/stm32h7xx_hal_mdma.c ****   *                               the configuration information for the specified MDMA Channel.
 471:Drivers/STM32H7xx_HAL_Driver/Src/stm32h7xx_hal_mdma.c ****   * @param  CallbackID:           User Callback identifier
 472:Drivers/STM32H7xx_HAL_Driver/Src/stm32h7xx_hal_mdma.c ****   *                               a HAL_MDMA_CallbackIDTypeDef ENUM as parameter.
 473:Drivers/STM32H7xx_HAL_Driver/Src/stm32h7xx_hal_mdma.c ****   * @retval HAL status
 474:Drivers/STM32H7xx_HAL_Driver/Src/stm32h7xx_hal_mdma.c ****   */
 475:Drivers/STM32H7xx_HAL_Driver/Src/stm32h7xx_hal_mdma.c **** HAL_StatusTypeDef HAL_MDMA_UnRegisterCallback(MDMA_HandleTypeDef *hmdma, HAL_MDMA_CallbackIDTypeDef
 476:Drivers/STM32H7xx_HAL_Driver/Src/stm32h7xx_hal_mdma.c **** {
 477:Drivers/STM32H7xx_HAL_Driver/Src/stm32h7xx_hal_mdma.c ****   HAL_StatusTypeDef status = HAL_OK;
 478:Drivers/STM32H7xx_HAL_Driver/Src/stm32h7xx_hal_mdma.c **** 
 479:Drivers/STM32H7xx_HAL_Driver/Src/stm32h7xx_hal_mdma.c ****   /* Check the MDMA peripheral handle */
 480:Drivers/STM32H7xx_HAL_Driver/Src/stm32h7xx_hal_mdma.c ****   if(hmdma == NULL)
 481:Drivers/STM32H7xx_HAL_Driver/Src/stm32h7xx_hal_mdma.c ****   {
 482:Drivers/STM32H7xx_HAL_Driver/Src/stm32h7xx_hal_mdma.c ****     return HAL_ERROR;
 483:Drivers/STM32H7xx_HAL_Driver/Src/stm32h7xx_hal_mdma.c ****   }
 484:Drivers/STM32H7xx_HAL_Driver/Src/stm32h7xx_hal_mdma.c **** 
 485:Drivers/STM32H7xx_HAL_Driver/Src/stm32h7xx_hal_mdma.c ****   /* Process locked */
 486:Drivers/STM32H7xx_HAL_Driver/Src/stm32h7xx_hal_mdma.c ****   __HAL_LOCK(hmdma);
 487:Drivers/STM32H7xx_HAL_Driver/Src/stm32h7xx_hal_mdma.c **** 
 488:Drivers/STM32H7xx_HAL_Driver/Src/stm32h7xx_hal_mdma.c ****   if(HAL_MDMA_STATE_READY == hmdma->State)
 489:Drivers/STM32H7xx_HAL_Driver/Src/stm32h7xx_hal_mdma.c ****   {
ARM GAS  C:\Users\MadeuxS\AppData\Local\Temp\ccHqWtrv.s 			page 12


 490:Drivers/STM32H7xx_HAL_Driver/Src/stm32h7xx_hal_mdma.c ****     switch (CallbackID)
 491:Drivers/STM32H7xx_HAL_Driver/Src/stm32h7xx_hal_mdma.c ****     {
 492:Drivers/STM32H7xx_HAL_Driver/Src/stm32h7xx_hal_mdma.c ****     case  HAL_MDMA_XFER_CPLT_CB_ID:
 493:Drivers/STM32H7xx_HAL_Driver/Src/stm32h7xx_hal_mdma.c ****       hmdma->XferCpltCallback = NULL;
 494:Drivers/STM32H7xx_HAL_Driver/Src/stm32h7xx_hal_mdma.c ****       break;
 495:Drivers/STM32H7xx_HAL_Driver/Src/stm32h7xx_hal_mdma.c **** 
 496:Drivers/STM32H7xx_HAL_Driver/Src/stm32h7xx_hal_mdma.c ****     case  HAL_MDMA_XFER_BUFFERCPLT_CB_ID:
 497:Drivers/STM32H7xx_HAL_Driver/Src/stm32h7xx_hal_mdma.c ****       hmdma->XferBufferCpltCallback = NULL;
 498:Drivers/STM32H7xx_HAL_Driver/Src/stm32h7xx_hal_mdma.c ****       break;
 499:Drivers/STM32H7xx_HAL_Driver/Src/stm32h7xx_hal_mdma.c **** 
 500:Drivers/STM32H7xx_HAL_Driver/Src/stm32h7xx_hal_mdma.c ****     case  HAL_MDMA_XFER_BLOCKCPLT_CB_ID:
 501:Drivers/STM32H7xx_HAL_Driver/Src/stm32h7xx_hal_mdma.c ****       hmdma->XferBlockCpltCallback = NULL;
 502:Drivers/STM32H7xx_HAL_Driver/Src/stm32h7xx_hal_mdma.c ****       break;
 503:Drivers/STM32H7xx_HAL_Driver/Src/stm32h7xx_hal_mdma.c **** 
 504:Drivers/STM32H7xx_HAL_Driver/Src/stm32h7xx_hal_mdma.c ****     case  HAL_MDMA_XFER_REPBLOCKCPLT_CB_ID:
 505:Drivers/STM32H7xx_HAL_Driver/Src/stm32h7xx_hal_mdma.c ****       hmdma->XferRepeatBlockCpltCallback = NULL;
 506:Drivers/STM32H7xx_HAL_Driver/Src/stm32h7xx_hal_mdma.c ****       break;
 507:Drivers/STM32H7xx_HAL_Driver/Src/stm32h7xx_hal_mdma.c **** 
 508:Drivers/STM32H7xx_HAL_Driver/Src/stm32h7xx_hal_mdma.c ****     case  HAL_MDMA_XFER_ERROR_CB_ID:
 509:Drivers/STM32H7xx_HAL_Driver/Src/stm32h7xx_hal_mdma.c ****       hmdma->XferErrorCallback = NULL;
 510:Drivers/STM32H7xx_HAL_Driver/Src/stm32h7xx_hal_mdma.c ****       break;
 511:Drivers/STM32H7xx_HAL_Driver/Src/stm32h7xx_hal_mdma.c **** 
 512:Drivers/STM32H7xx_HAL_Driver/Src/stm32h7xx_hal_mdma.c ****     case  HAL_MDMA_XFER_ABORT_CB_ID:
 513:Drivers/STM32H7xx_HAL_Driver/Src/stm32h7xx_hal_mdma.c ****       hmdma->XferAbortCallback = NULL;
 514:Drivers/STM32H7xx_HAL_Driver/Src/stm32h7xx_hal_mdma.c ****       break;
 515:Drivers/STM32H7xx_HAL_Driver/Src/stm32h7xx_hal_mdma.c **** 
 516:Drivers/STM32H7xx_HAL_Driver/Src/stm32h7xx_hal_mdma.c ****     case   HAL_MDMA_XFER_ALL_CB_ID:
 517:Drivers/STM32H7xx_HAL_Driver/Src/stm32h7xx_hal_mdma.c ****       hmdma->XferCpltCallback = NULL;
 518:Drivers/STM32H7xx_HAL_Driver/Src/stm32h7xx_hal_mdma.c ****       hmdma->XferBufferCpltCallback = NULL;
 519:Drivers/STM32H7xx_HAL_Driver/Src/stm32h7xx_hal_mdma.c ****       hmdma->XferBlockCpltCallback = NULL;
 520:Drivers/STM32H7xx_HAL_Driver/Src/stm32h7xx_hal_mdma.c ****       hmdma->XferRepeatBlockCpltCallback = NULL;
 521:Drivers/STM32H7xx_HAL_Driver/Src/stm32h7xx_hal_mdma.c ****       hmdma->XferErrorCallback = NULL;
 522:Drivers/STM32H7xx_HAL_Driver/Src/stm32h7xx_hal_mdma.c ****       hmdma->XferAbortCallback = NULL;
 523:Drivers/STM32H7xx_HAL_Driver/Src/stm32h7xx_hal_mdma.c ****       break;
 524:Drivers/STM32H7xx_HAL_Driver/Src/stm32h7xx_hal_mdma.c **** 
 525:Drivers/STM32H7xx_HAL_Driver/Src/stm32h7xx_hal_mdma.c ****     default:
 526:Drivers/STM32H7xx_HAL_Driver/Src/stm32h7xx_hal_mdma.c ****       status = HAL_ERROR;
 527:Drivers/STM32H7xx_HAL_Driver/Src/stm32h7xx_hal_mdma.c ****       break;
 528:Drivers/STM32H7xx_HAL_Driver/Src/stm32h7xx_hal_mdma.c ****     }
 529:Drivers/STM32H7xx_HAL_Driver/Src/stm32h7xx_hal_mdma.c ****   }
 530:Drivers/STM32H7xx_HAL_Driver/Src/stm32h7xx_hal_mdma.c ****   else
 531:Drivers/STM32H7xx_HAL_Driver/Src/stm32h7xx_hal_mdma.c ****   {
 532:Drivers/STM32H7xx_HAL_Driver/Src/stm32h7xx_hal_mdma.c ****     status = HAL_ERROR;
 533:Drivers/STM32H7xx_HAL_Driver/Src/stm32h7xx_hal_mdma.c ****   }
 534:Drivers/STM32H7xx_HAL_Driver/Src/stm32h7xx_hal_mdma.c **** 
 535:Drivers/STM32H7xx_HAL_Driver/Src/stm32h7xx_hal_mdma.c ****   /* Release Lock */
 536:Drivers/STM32H7xx_HAL_Driver/Src/stm32h7xx_hal_mdma.c ****   __HAL_UNLOCK(hmdma);
 537:Drivers/STM32H7xx_HAL_Driver/Src/stm32h7xx_hal_mdma.c **** 
 538:Drivers/STM32H7xx_HAL_Driver/Src/stm32h7xx_hal_mdma.c ****   return status;
 539:Drivers/STM32H7xx_HAL_Driver/Src/stm32h7xx_hal_mdma.c **** }
 540:Drivers/STM32H7xx_HAL_Driver/Src/stm32h7xx_hal_mdma.c **** 
 541:Drivers/STM32H7xx_HAL_Driver/Src/stm32h7xx_hal_mdma.c **** /**
 542:Drivers/STM32H7xx_HAL_Driver/Src/stm32h7xx_hal_mdma.c ****   * @}
 543:Drivers/STM32H7xx_HAL_Driver/Src/stm32h7xx_hal_mdma.c ****   */
 544:Drivers/STM32H7xx_HAL_Driver/Src/stm32h7xx_hal_mdma.c **** 
 545:Drivers/STM32H7xx_HAL_Driver/Src/stm32h7xx_hal_mdma.c **** /** @addtogroup MDMA_Exported_Functions_Group2
 546:Drivers/STM32H7xx_HAL_Driver/Src/stm32h7xx_hal_mdma.c ****  *
ARM GAS  C:\Users\MadeuxS\AppData\Local\Temp\ccHqWtrv.s 			page 13


 547:Drivers/STM32H7xx_HAL_Driver/Src/stm32h7xx_hal_mdma.c **** @verbatim
 548:Drivers/STM32H7xx_HAL_Driver/Src/stm32h7xx_hal_mdma.c ****  ===============================================================================
 549:Drivers/STM32H7xx_HAL_Driver/Src/stm32h7xx_hal_mdma.c ****                       #####  Linked list operation functions  #####
 550:Drivers/STM32H7xx_HAL_Driver/Src/stm32h7xx_hal_mdma.c ****  ===============================================================================
 551:Drivers/STM32H7xx_HAL_Driver/Src/stm32h7xx_hal_mdma.c ****     [..]  This section provides functions allowing to:
 552:Drivers/STM32H7xx_HAL_Driver/Src/stm32h7xx_hal_mdma.c ****       (+) Create a linked list node
 553:Drivers/STM32H7xx_HAL_Driver/Src/stm32h7xx_hal_mdma.c ****       (+) Add a node to the MDMA linked list
 554:Drivers/STM32H7xx_HAL_Driver/Src/stm32h7xx_hal_mdma.c ****       (+) Remove a node from the MDMA linked list
 555:Drivers/STM32H7xx_HAL_Driver/Src/stm32h7xx_hal_mdma.c ****       (+) Enable/Disable linked list circular mode
 556:Drivers/STM32H7xx_HAL_Driver/Src/stm32h7xx_hal_mdma.c **** @endverbatim
 557:Drivers/STM32H7xx_HAL_Driver/Src/stm32h7xx_hal_mdma.c ****   * @{
 558:Drivers/STM32H7xx_HAL_Driver/Src/stm32h7xx_hal_mdma.c ****   */
 559:Drivers/STM32H7xx_HAL_Driver/Src/stm32h7xx_hal_mdma.c **** 
 560:Drivers/STM32H7xx_HAL_Driver/Src/stm32h7xx_hal_mdma.c **** /**
 561:Drivers/STM32H7xx_HAL_Driver/Src/stm32h7xx_hal_mdma.c ****   * @brief  Initializes an MDMA Link Node according to the specified
 562:Drivers/STM32H7xx_HAL_Driver/Src/stm32h7xx_hal_mdma.c ****   *         parameters in the pMDMA_LinkedListNodeConfig .
 563:Drivers/STM32H7xx_HAL_Driver/Src/stm32h7xx_hal_mdma.c ****   * @param  pNode: Pointer to a MDMA_LinkNodeTypeDef structure that contains Linked list node
 564:Drivers/STM32H7xx_HAL_Driver/Src/stm32h7xx_hal_mdma.c ****   *         registers configurations.
 565:Drivers/STM32H7xx_HAL_Driver/Src/stm32h7xx_hal_mdma.c ****   * @param  pNodeConfig: Pointer to a MDMA_LinkNodeConfTypeDef structure that contains
 566:Drivers/STM32H7xx_HAL_Driver/Src/stm32h7xx_hal_mdma.c ****   *               the configuration information for the specified MDMA Linked List Node.
 567:Drivers/STM32H7xx_HAL_Driver/Src/stm32h7xx_hal_mdma.c ****   * @retval HAL status
 568:Drivers/STM32H7xx_HAL_Driver/Src/stm32h7xx_hal_mdma.c ****   */
 569:Drivers/STM32H7xx_HAL_Driver/Src/stm32h7xx_hal_mdma.c **** HAL_StatusTypeDef HAL_MDMA_LinkedList_CreateNode(MDMA_LinkNodeTypeDef *pNode, MDMA_LinkNodeConfType
 570:Drivers/STM32H7xx_HAL_Driver/Src/stm32h7xx_hal_mdma.c **** {
 571:Drivers/STM32H7xx_HAL_Driver/Src/stm32h7xx_hal_mdma.c ****   uint32_t addressMask;
 572:Drivers/STM32H7xx_HAL_Driver/Src/stm32h7xx_hal_mdma.c ****   uint32_t blockoffset;
 573:Drivers/STM32H7xx_HAL_Driver/Src/stm32h7xx_hal_mdma.c **** 
 574:Drivers/STM32H7xx_HAL_Driver/Src/stm32h7xx_hal_mdma.c ****   /* Check the MDMA peripheral state */
 575:Drivers/STM32H7xx_HAL_Driver/Src/stm32h7xx_hal_mdma.c ****   if((pNode == NULL) || (pNodeConfig == NULL))
 576:Drivers/STM32H7xx_HAL_Driver/Src/stm32h7xx_hal_mdma.c ****   {
 577:Drivers/STM32H7xx_HAL_Driver/Src/stm32h7xx_hal_mdma.c ****     return HAL_ERROR;
 578:Drivers/STM32H7xx_HAL_Driver/Src/stm32h7xx_hal_mdma.c ****   }
 579:Drivers/STM32H7xx_HAL_Driver/Src/stm32h7xx_hal_mdma.c **** 
 580:Drivers/STM32H7xx_HAL_Driver/Src/stm32h7xx_hal_mdma.c ****   /* Check the parameters */
 581:Drivers/STM32H7xx_HAL_Driver/Src/stm32h7xx_hal_mdma.c ****   assert_param(IS_MDMA_PRIORITY(pNodeConfig->Init.Priority));
 582:Drivers/STM32H7xx_HAL_Driver/Src/stm32h7xx_hal_mdma.c ****   assert_param(IS_MDMA_ENDIANNESS_MODE(pNodeConfig->Init.Endianness));
 583:Drivers/STM32H7xx_HAL_Driver/Src/stm32h7xx_hal_mdma.c ****   assert_param(IS_MDMA_REQUEST(pNodeConfig->Init.Request));
 584:Drivers/STM32H7xx_HAL_Driver/Src/stm32h7xx_hal_mdma.c ****   assert_param(IS_MDMA_SOURCE_INC(pNodeConfig->Init.SourceInc));
 585:Drivers/STM32H7xx_HAL_Driver/Src/stm32h7xx_hal_mdma.c ****   assert_param(IS_MDMA_DESTINATION_INC(pNodeConfig->Init.DestinationInc));
 586:Drivers/STM32H7xx_HAL_Driver/Src/stm32h7xx_hal_mdma.c ****   assert_param(IS_MDMA_SOURCE_DATASIZE(pNodeConfig->Init.SourceDataSize));
 587:Drivers/STM32H7xx_HAL_Driver/Src/stm32h7xx_hal_mdma.c ****   assert_param(IS_MDMA_DESTINATION_DATASIZE(pNodeConfig->Init.DestDataSize));
 588:Drivers/STM32H7xx_HAL_Driver/Src/stm32h7xx_hal_mdma.c ****   assert_param(IS_MDMA_DATA_ALIGNMENT(pNodeConfig->Init.DataAlignment));
 589:Drivers/STM32H7xx_HAL_Driver/Src/stm32h7xx_hal_mdma.c ****   assert_param(IS_MDMA_SOURCE_BURST(pNodeConfig->Init.SourceBurst));
 590:Drivers/STM32H7xx_HAL_Driver/Src/stm32h7xx_hal_mdma.c ****   assert_param(IS_MDMA_DESTINATION_BURST(pNodeConfig->Init.DestBurst));
 591:Drivers/STM32H7xx_HAL_Driver/Src/stm32h7xx_hal_mdma.c ****   assert_param(IS_MDMA_BUFFER_TRANSFER_LENGTH(pNodeConfig->Init.BufferTransferLength));
 592:Drivers/STM32H7xx_HAL_Driver/Src/stm32h7xx_hal_mdma.c ****   assert_param(IS_MDMA_TRANSFER_TRIGGER_MODE(pNodeConfig->Init.TransferTriggerMode));
 593:Drivers/STM32H7xx_HAL_Driver/Src/stm32h7xx_hal_mdma.c ****   assert_param(IS_MDMA_BLOCK_ADDR_OFFSET(pNodeConfig->Init.SourceBlockAddressOffset));
 594:Drivers/STM32H7xx_HAL_Driver/Src/stm32h7xx_hal_mdma.c ****   assert_param(IS_MDMA_BLOCK_ADDR_OFFSET(pNodeConfig->Init.DestBlockAddressOffset));
 595:Drivers/STM32H7xx_HAL_Driver/Src/stm32h7xx_hal_mdma.c **** 
 596:Drivers/STM32H7xx_HAL_Driver/Src/stm32h7xx_hal_mdma.c ****   assert_param(IS_MDMA_TRANSFER_LENGTH(pNodeConfig->BlockDataLength));
 597:Drivers/STM32H7xx_HAL_Driver/Src/stm32h7xx_hal_mdma.c ****   assert_param(IS_MDMA_BLOCK_COUNT(pNodeConfig->BlockCount));
 598:Drivers/STM32H7xx_HAL_Driver/Src/stm32h7xx_hal_mdma.c **** 
 599:Drivers/STM32H7xx_HAL_Driver/Src/stm32h7xx_hal_mdma.c **** 
 600:Drivers/STM32H7xx_HAL_Driver/Src/stm32h7xx_hal_mdma.c ****   /* Configure next Link node Address Register to zero */
 601:Drivers/STM32H7xx_HAL_Driver/Src/stm32h7xx_hal_mdma.c ****   pNode->CLAR =  0;
 602:Drivers/STM32H7xx_HAL_Driver/Src/stm32h7xx_hal_mdma.c **** 
 603:Drivers/STM32H7xx_HAL_Driver/Src/stm32h7xx_hal_mdma.c ****   /* Configure the Link Node registers*/
ARM GAS  C:\Users\MadeuxS\AppData\Local\Temp\ccHqWtrv.s 			page 14


 604:Drivers/STM32H7xx_HAL_Driver/Src/stm32h7xx_hal_mdma.c ****   pNode->CTBR   = 0;
 605:Drivers/STM32H7xx_HAL_Driver/Src/stm32h7xx_hal_mdma.c ****   pNode->CMAR   = 0;
 606:Drivers/STM32H7xx_HAL_Driver/Src/stm32h7xx_hal_mdma.c ****   pNode->CMDR   = 0;
 607:Drivers/STM32H7xx_HAL_Driver/Src/stm32h7xx_hal_mdma.c ****   pNode->Reserved = 0;
 608:Drivers/STM32H7xx_HAL_Driver/Src/stm32h7xx_hal_mdma.c **** 
 609:Drivers/STM32H7xx_HAL_Driver/Src/stm32h7xx_hal_mdma.c ****   /* Write new CTCR Register value */
 610:Drivers/STM32H7xx_HAL_Driver/Src/stm32h7xx_hal_mdma.c ****   pNode->CTCR =  pNodeConfig->Init.SourceInc | pNodeConfig->Init.DestinationInc | \
 611:Drivers/STM32H7xx_HAL_Driver/Src/stm32h7xx_hal_mdma.c ****     pNodeConfig->Init.SourceDataSize | pNodeConfig->Init.DestDataSize           | \
 612:Drivers/STM32H7xx_HAL_Driver/Src/stm32h7xx_hal_mdma.c ****       pNodeConfig->Init.DataAlignment| pNodeConfig->Init.SourceBurst            | \
 613:Drivers/STM32H7xx_HAL_Driver/Src/stm32h7xx_hal_mdma.c ****         pNodeConfig->Init.DestBurst                                             | \
 614:Drivers/STM32H7xx_HAL_Driver/Src/stm32h7xx_hal_mdma.c ****           ((pNodeConfig->Init.BufferTransferLength - 1U) << MDMA_CTCR_TLEN_Pos) | \
 615:Drivers/STM32H7xx_HAL_Driver/Src/stm32h7xx_hal_mdma.c ****             pNodeConfig->Init.TransferTriggerMode;
 616:Drivers/STM32H7xx_HAL_Driver/Src/stm32h7xx_hal_mdma.c **** 
 617:Drivers/STM32H7xx_HAL_Driver/Src/stm32h7xx_hal_mdma.c ****   /* If SW request set the CTCR register to SW Request Mode*/
 618:Drivers/STM32H7xx_HAL_Driver/Src/stm32h7xx_hal_mdma.c ****   if(pNodeConfig->Init.Request == MDMA_REQUEST_SW)
 619:Drivers/STM32H7xx_HAL_Driver/Src/stm32h7xx_hal_mdma.c ****   {
 620:Drivers/STM32H7xx_HAL_Driver/Src/stm32h7xx_hal_mdma.c ****     pNode->CTCR |= MDMA_CTCR_SWRM;
 621:Drivers/STM32H7xx_HAL_Driver/Src/stm32h7xx_hal_mdma.c ****   }
 622:Drivers/STM32H7xx_HAL_Driver/Src/stm32h7xx_hal_mdma.c **** 
 623:Drivers/STM32H7xx_HAL_Driver/Src/stm32h7xx_hal_mdma.c ****   /*
 624:Drivers/STM32H7xx_HAL_Driver/Src/stm32h7xx_hal_mdma.c ****   -If the request is done by SW : BWM could be set to 1 or 0.
 625:Drivers/STM32H7xx_HAL_Driver/Src/stm32h7xx_hal_mdma.c ****   -If the request is done by a peripheral :
 626:Drivers/STM32H7xx_HAL_Driver/Src/stm32h7xx_hal_mdma.c ****      If mask address not set (0) => BWM must be set to 0
 627:Drivers/STM32H7xx_HAL_Driver/Src/stm32h7xx_hal_mdma.c ****      If mask address set (different than 0) => BWM could be set to 1 or 0
 628:Drivers/STM32H7xx_HAL_Driver/Src/stm32h7xx_hal_mdma.c ****   */
 629:Drivers/STM32H7xx_HAL_Driver/Src/stm32h7xx_hal_mdma.c ****   if((pNodeConfig->Init.Request == MDMA_REQUEST_SW) || (pNodeConfig->PostRequestMaskAddress != 0U))
 630:Drivers/STM32H7xx_HAL_Driver/Src/stm32h7xx_hal_mdma.c ****   {
 631:Drivers/STM32H7xx_HAL_Driver/Src/stm32h7xx_hal_mdma.c ****     pNode->CTCR |=  MDMA_CTCR_BWM;
 632:Drivers/STM32H7xx_HAL_Driver/Src/stm32h7xx_hal_mdma.c ****   }
 633:Drivers/STM32H7xx_HAL_Driver/Src/stm32h7xx_hal_mdma.c **** 
 634:Drivers/STM32H7xx_HAL_Driver/Src/stm32h7xx_hal_mdma.c ****   /* Set the new CBNDTR Register value */
 635:Drivers/STM32H7xx_HAL_Driver/Src/stm32h7xx_hal_mdma.c ****   pNode->CBNDTR = ((pNodeConfig->BlockCount - 1U) << MDMA_CBNDTR_BRC_Pos) & MDMA_CBNDTR_BRC;
 636:Drivers/STM32H7xx_HAL_Driver/Src/stm32h7xx_hal_mdma.c **** 
 637:Drivers/STM32H7xx_HAL_Driver/Src/stm32h7xx_hal_mdma.c ****   /* if block source address offset is negative set the Block Repeat Source address Update Mode to 
 638:Drivers/STM32H7xx_HAL_Driver/Src/stm32h7xx_hal_mdma.c ****   if(pNodeConfig->Init.SourceBlockAddressOffset < 0)
 639:Drivers/STM32H7xx_HAL_Driver/Src/stm32h7xx_hal_mdma.c ****   {
 640:Drivers/STM32H7xx_HAL_Driver/Src/stm32h7xx_hal_mdma.c ****     pNode->CBNDTR |= MDMA_CBNDTR_BRSUM;
 641:Drivers/STM32H7xx_HAL_Driver/Src/stm32h7xx_hal_mdma.c ****     /*write new CBRUR Register value : source repeat block offset */
 642:Drivers/STM32H7xx_HAL_Driver/Src/stm32h7xx_hal_mdma.c ****     blockoffset = (uint32_t)(- pNodeConfig->Init.SourceBlockAddressOffset);
 643:Drivers/STM32H7xx_HAL_Driver/Src/stm32h7xx_hal_mdma.c ****     pNode->CBRUR = blockoffset & 0x0000FFFFU;
 644:Drivers/STM32H7xx_HAL_Driver/Src/stm32h7xx_hal_mdma.c ****   }
 645:Drivers/STM32H7xx_HAL_Driver/Src/stm32h7xx_hal_mdma.c ****   else
 646:Drivers/STM32H7xx_HAL_Driver/Src/stm32h7xx_hal_mdma.c ****   {
 647:Drivers/STM32H7xx_HAL_Driver/Src/stm32h7xx_hal_mdma.c ****     /*write new CBRUR Register value : source repeat block offset */
 648:Drivers/STM32H7xx_HAL_Driver/Src/stm32h7xx_hal_mdma.c ****     pNode->CBRUR = (((uint32_t) pNodeConfig->Init.SourceBlockAddressOffset) & 0x0000FFFFU);
 649:Drivers/STM32H7xx_HAL_Driver/Src/stm32h7xx_hal_mdma.c ****   }
 650:Drivers/STM32H7xx_HAL_Driver/Src/stm32h7xx_hal_mdma.c **** 
 651:Drivers/STM32H7xx_HAL_Driver/Src/stm32h7xx_hal_mdma.c ****   /* if block destination address offset is negative set the Block Repeat destination address Updat
 652:Drivers/STM32H7xx_HAL_Driver/Src/stm32h7xx_hal_mdma.c ****   if(pNodeConfig->Init.DestBlockAddressOffset < 0)
 653:Drivers/STM32H7xx_HAL_Driver/Src/stm32h7xx_hal_mdma.c ****   {
 654:Drivers/STM32H7xx_HAL_Driver/Src/stm32h7xx_hal_mdma.c ****     pNode->CBNDTR |= MDMA_CBNDTR_BRDUM;
 655:Drivers/STM32H7xx_HAL_Driver/Src/stm32h7xx_hal_mdma.c ****     /*write new CBRUR Register value : destination repeat block offset */
 656:Drivers/STM32H7xx_HAL_Driver/Src/stm32h7xx_hal_mdma.c ****     blockoffset = (uint32_t)(- pNodeConfig->Init.DestBlockAddressOffset);
 657:Drivers/STM32H7xx_HAL_Driver/Src/stm32h7xx_hal_mdma.c ****     pNode->CBRUR |= ((blockoffset & 0x0000FFFFU) << MDMA_CBRUR_DUV_Pos);
 658:Drivers/STM32H7xx_HAL_Driver/Src/stm32h7xx_hal_mdma.c ****   }
 659:Drivers/STM32H7xx_HAL_Driver/Src/stm32h7xx_hal_mdma.c ****   else
 660:Drivers/STM32H7xx_HAL_Driver/Src/stm32h7xx_hal_mdma.c ****   {
ARM GAS  C:\Users\MadeuxS\AppData\Local\Temp\ccHqWtrv.s 			page 15


 661:Drivers/STM32H7xx_HAL_Driver/Src/stm32h7xx_hal_mdma.c ****     /*write new CBRUR Register value : destination repeat block offset */
 662:Drivers/STM32H7xx_HAL_Driver/Src/stm32h7xx_hal_mdma.c ****     pNode->CBRUR |= ((((uint32_t)pNodeConfig->Init.DestBlockAddressOffset) & 0x0000FFFFU) << MDMA_C
 663:Drivers/STM32H7xx_HAL_Driver/Src/stm32h7xx_hal_mdma.c ****   }
 664:Drivers/STM32H7xx_HAL_Driver/Src/stm32h7xx_hal_mdma.c **** 
 665:Drivers/STM32H7xx_HAL_Driver/Src/stm32h7xx_hal_mdma.c ****   /* Configure MDMA Link Node data length */
 666:Drivers/STM32H7xx_HAL_Driver/Src/stm32h7xx_hal_mdma.c ****   pNode->CBNDTR |=  pNodeConfig->BlockDataLength;
 667:Drivers/STM32H7xx_HAL_Driver/Src/stm32h7xx_hal_mdma.c **** 
 668:Drivers/STM32H7xx_HAL_Driver/Src/stm32h7xx_hal_mdma.c ****   /* Configure MDMA Link Node destination address */
 669:Drivers/STM32H7xx_HAL_Driver/Src/stm32h7xx_hal_mdma.c ****   pNode->CDAR = pNodeConfig->DstAddress;
 670:Drivers/STM32H7xx_HAL_Driver/Src/stm32h7xx_hal_mdma.c **** 
 671:Drivers/STM32H7xx_HAL_Driver/Src/stm32h7xx_hal_mdma.c ****   /* Configure MDMA Link Node Source address */
 672:Drivers/STM32H7xx_HAL_Driver/Src/stm32h7xx_hal_mdma.c ****   pNode->CSAR = pNodeConfig->SrcAddress;
 673:Drivers/STM32H7xx_HAL_Driver/Src/stm32h7xx_hal_mdma.c **** 
 674:Drivers/STM32H7xx_HAL_Driver/Src/stm32h7xx_hal_mdma.c ****   /* if HW request set the HW request and the requet CleraMask and ClearData MaskData,  */
 675:Drivers/STM32H7xx_HAL_Driver/Src/stm32h7xx_hal_mdma.c ****   if(pNodeConfig->Init.Request != MDMA_REQUEST_SW)
 676:Drivers/STM32H7xx_HAL_Driver/Src/stm32h7xx_hal_mdma.c ****   {
 677:Drivers/STM32H7xx_HAL_Driver/Src/stm32h7xx_hal_mdma.c ****     /* Set the HW request in CTBR register  */
 678:Drivers/STM32H7xx_HAL_Driver/Src/stm32h7xx_hal_mdma.c ****     pNode->CTBR = pNodeConfig->Init.Request & MDMA_CTBR_TSEL;
 679:Drivers/STM32H7xx_HAL_Driver/Src/stm32h7xx_hal_mdma.c ****     /* Set the HW request clear Mask and Data */
 680:Drivers/STM32H7xx_HAL_Driver/Src/stm32h7xx_hal_mdma.c ****     pNode->CMAR = pNodeConfig->PostRequestMaskAddress;
 681:Drivers/STM32H7xx_HAL_Driver/Src/stm32h7xx_hal_mdma.c ****     pNode->CMDR = pNodeConfig->PostRequestMaskData;
 682:Drivers/STM32H7xx_HAL_Driver/Src/stm32h7xx_hal_mdma.c ****   }
 683:Drivers/STM32H7xx_HAL_Driver/Src/stm32h7xx_hal_mdma.c **** 
 684:Drivers/STM32H7xx_HAL_Driver/Src/stm32h7xx_hal_mdma.c ****   addressMask = pNodeConfig->SrcAddress & 0xFF000000U;
 685:Drivers/STM32H7xx_HAL_Driver/Src/stm32h7xx_hal_mdma.c ****   if((addressMask == 0x20000000U) || (addressMask == 0x00000000U))
 686:Drivers/STM32H7xx_HAL_Driver/Src/stm32h7xx_hal_mdma.c ****   {
 687:Drivers/STM32H7xx_HAL_Driver/Src/stm32h7xx_hal_mdma.c ****     /*The AHBSbus is used as source (read operation) on channel x */
 688:Drivers/STM32H7xx_HAL_Driver/Src/stm32h7xx_hal_mdma.c ****     pNode->CTBR |= MDMA_CTBR_SBUS;
 689:Drivers/STM32H7xx_HAL_Driver/Src/stm32h7xx_hal_mdma.c ****   }
 690:Drivers/STM32H7xx_HAL_Driver/Src/stm32h7xx_hal_mdma.c **** 
 691:Drivers/STM32H7xx_HAL_Driver/Src/stm32h7xx_hal_mdma.c ****   addressMask = pNodeConfig->DstAddress & 0xFF000000U;
 692:Drivers/STM32H7xx_HAL_Driver/Src/stm32h7xx_hal_mdma.c ****   if((addressMask == 0x20000000U) || (addressMask == 0x00000000U))
 693:Drivers/STM32H7xx_HAL_Driver/Src/stm32h7xx_hal_mdma.c ****   {
 694:Drivers/STM32H7xx_HAL_Driver/Src/stm32h7xx_hal_mdma.c ****     /*The AHB bus is used as destination (write operation) on channel x */
 695:Drivers/STM32H7xx_HAL_Driver/Src/stm32h7xx_hal_mdma.c ****     pNode->CTBR |= MDMA_CTBR_DBUS;
 696:Drivers/STM32H7xx_HAL_Driver/Src/stm32h7xx_hal_mdma.c ****   }
 697:Drivers/STM32H7xx_HAL_Driver/Src/stm32h7xx_hal_mdma.c **** 
 698:Drivers/STM32H7xx_HAL_Driver/Src/stm32h7xx_hal_mdma.c ****   return HAL_OK;
 699:Drivers/STM32H7xx_HAL_Driver/Src/stm32h7xx_hal_mdma.c **** }
 700:Drivers/STM32H7xx_HAL_Driver/Src/stm32h7xx_hal_mdma.c **** 
 701:Drivers/STM32H7xx_HAL_Driver/Src/stm32h7xx_hal_mdma.c **** /**
 702:Drivers/STM32H7xx_HAL_Driver/Src/stm32h7xx_hal_mdma.c ****   * @brief  Connect a node to the linked list.
 703:Drivers/STM32H7xx_HAL_Driver/Src/stm32h7xx_hal_mdma.c ****   * @param  hmdma    : Pointer to a MDMA_HandleTypeDef structure that contains
 704:Drivers/STM32H7xx_HAL_Driver/Src/stm32h7xx_hal_mdma.c ****   *                    the configuration information for the specified MDMA Channel.
 705:Drivers/STM32H7xx_HAL_Driver/Src/stm32h7xx_hal_mdma.c ****   * @param  pNewNode : Pointer to a MDMA_LinkNodeTypeDef structure that contains Linked list node
 706:Drivers/STM32H7xx_HAL_Driver/Src/stm32h7xx_hal_mdma.c ****   *                    to be add to the list.
 707:Drivers/STM32H7xx_HAL_Driver/Src/stm32h7xx_hal_mdma.c ****   * @param pPrevNode : Pointer to the new node position in the linked list or zero to insert the ne
 708:Drivers/STM32H7xx_HAL_Driver/Src/stm32h7xx_hal_mdma.c ****   *                    at the end of the list
 709:Drivers/STM32H7xx_HAL_Driver/Src/stm32h7xx_hal_mdma.c ****   *
 710:Drivers/STM32H7xx_HAL_Driver/Src/stm32h7xx_hal_mdma.c ****   * @retval HAL status
 711:Drivers/STM32H7xx_HAL_Driver/Src/stm32h7xx_hal_mdma.c ****   */
 712:Drivers/STM32H7xx_HAL_Driver/Src/stm32h7xx_hal_mdma.c **** HAL_StatusTypeDef HAL_MDMA_LinkedList_AddNode(MDMA_HandleTypeDef *hmdma, MDMA_LinkNodeTypeDef *pNew
 713:Drivers/STM32H7xx_HAL_Driver/Src/stm32h7xx_hal_mdma.c **** {
 714:Drivers/STM32H7xx_HAL_Driver/Src/stm32h7xx_hal_mdma.c ****   MDMA_LinkNodeTypeDef *pNode;
 715:Drivers/STM32H7xx_HAL_Driver/Src/stm32h7xx_hal_mdma.c ****   uint32_t counter = 0, nodeInserted = 0;
 716:Drivers/STM32H7xx_HAL_Driver/Src/stm32h7xx_hal_mdma.c ****   HAL_StatusTypeDef hal_status = HAL_OK;
 717:Drivers/STM32H7xx_HAL_Driver/Src/stm32h7xx_hal_mdma.c **** 
ARM GAS  C:\Users\MadeuxS\AppData\Local\Temp\ccHqWtrv.s 			page 16


 718:Drivers/STM32H7xx_HAL_Driver/Src/stm32h7xx_hal_mdma.c ****   /* Check the MDMA peripheral handle */
 719:Drivers/STM32H7xx_HAL_Driver/Src/stm32h7xx_hal_mdma.c ****   if((hmdma == NULL) || (pNewNode == NULL))
 720:Drivers/STM32H7xx_HAL_Driver/Src/stm32h7xx_hal_mdma.c ****   {
 721:Drivers/STM32H7xx_HAL_Driver/Src/stm32h7xx_hal_mdma.c ****     return HAL_ERROR;
 722:Drivers/STM32H7xx_HAL_Driver/Src/stm32h7xx_hal_mdma.c ****   }
 723:Drivers/STM32H7xx_HAL_Driver/Src/stm32h7xx_hal_mdma.c **** 
 724:Drivers/STM32H7xx_HAL_Driver/Src/stm32h7xx_hal_mdma.c ****   /* Process locked */
 725:Drivers/STM32H7xx_HAL_Driver/Src/stm32h7xx_hal_mdma.c ****   __HAL_LOCK(hmdma);
 726:Drivers/STM32H7xx_HAL_Driver/Src/stm32h7xx_hal_mdma.c **** 
 727:Drivers/STM32H7xx_HAL_Driver/Src/stm32h7xx_hal_mdma.c ****   if(HAL_MDMA_STATE_READY == hmdma->State)
 728:Drivers/STM32H7xx_HAL_Driver/Src/stm32h7xx_hal_mdma.c ****   {
 729:Drivers/STM32H7xx_HAL_Driver/Src/stm32h7xx_hal_mdma.c ****     /* Change MDMA peripheral state */
 730:Drivers/STM32H7xx_HAL_Driver/Src/stm32h7xx_hal_mdma.c ****     hmdma->State = HAL_MDMA_STATE_BUSY;
 731:Drivers/STM32H7xx_HAL_Driver/Src/stm32h7xx_hal_mdma.c **** 
 732:Drivers/STM32H7xx_HAL_Driver/Src/stm32h7xx_hal_mdma.c ****     /* Check if this is the first node (after the Inititlization node) */
 733:Drivers/STM32H7xx_HAL_Driver/Src/stm32h7xx_hal_mdma.c ****     if((uint32_t)hmdma->FirstLinkedListNodeAddress == 0U)
 734:Drivers/STM32H7xx_HAL_Driver/Src/stm32h7xx_hal_mdma.c ****     {
 735:Drivers/STM32H7xx_HAL_Driver/Src/stm32h7xx_hal_mdma.c ****       if(pPrevNode == NULL)
 736:Drivers/STM32H7xx_HAL_Driver/Src/stm32h7xx_hal_mdma.c ****       {
 737:Drivers/STM32H7xx_HAL_Driver/Src/stm32h7xx_hal_mdma.c ****         /* if this is the first node after the initialization
 738:Drivers/STM32H7xx_HAL_Driver/Src/stm32h7xx_hal_mdma.c ****         connect this node to the node 0 by updating
 739:Drivers/STM32H7xx_HAL_Driver/Src/stm32h7xx_hal_mdma.c ****         the MDMA channel CLAR register to this node address */
 740:Drivers/STM32H7xx_HAL_Driver/Src/stm32h7xx_hal_mdma.c ****         hmdma->Instance->CLAR = (uint32_t)pNewNode;
 741:Drivers/STM32H7xx_HAL_Driver/Src/stm32h7xx_hal_mdma.c ****         /* Set the MDMA handle First linked List node*/
 742:Drivers/STM32H7xx_HAL_Driver/Src/stm32h7xx_hal_mdma.c ****         hmdma->FirstLinkedListNodeAddress = pNewNode;
 743:Drivers/STM32H7xx_HAL_Driver/Src/stm32h7xx_hal_mdma.c **** 
 744:Drivers/STM32H7xx_HAL_Driver/Src/stm32h7xx_hal_mdma.c ****         /*reset New node link */
 745:Drivers/STM32H7xx_HAL_Driver/Src/stm32h7xx_hal_mdma.c ****         pNewNode->CLAR = 0;
 746:Drivers/STM32H7xx_HAL_Driver/Src/stm32h7xx_hal_mdma.c **** 
 747:Drivers/STM32H7xx_HAL_Driver/Src/stm32h7xx_hal_mdma.c ****         /* Update the Handle last node address */
 748:Drivers/STM32H7xx_HAL_Driver/Src/stm32h7xx_hal_mdma.c ****         hmdma->LastLinkedListNodeAddress = pNewNode;
 749:Drivers/STM32H7xx_HAL_Driver/Src/stm32h7xx_hal_mdma.c **** 
 750:Drivers/STM32H7xx_HAL_Driver/Src/stm32h7xx_hal_mdma.c ****         hmdma->LinkedListNodeCounter = 1;
 751:Drivers/STM32H7xx_HAL_Driver/Src/stm32h7xx_hal_mdma.c ****       }
 752:Drivers/STM32H7xx_HAL_Driver/Src/stm32h7xx_hal_mdma.c ****       else
 753:Drivers/STM32H7xx_HAL_Driver/Src/stm32h7xx_hal_mdma.c ****       {
 754:Drivers/STM32H7xx_HAL_Driver/Src/stm32h7xx_hal_mdma.c ****         hal_status = HAL_ERROR;
 755:Drivers/STM32H7xx_HAL_Driver/Src/stm32h7xx_hal_mdma.c ****       }
 756:Drivers/STM32H7xx_HAL_Driver/Src/stm32h7xx_hal_mdma.c ****     }
 757:Drivers/STM32H7xx_HAL_Driver/Src/stm32h7xx_hal_mdma.c ****     else if(hmdma->FirstLinkedListNodeAddress != pNewNode)
 758:Drivers/STM32H7xx_HAL_Driver/Src/stm32h7xx_hal_mdma.c ****     {
 759:Drivers/STM32H7xx_HAL_Driver/Src/stm32h7xx_hal_mdma.c ****       /* Check if the node to insert already exists*/
 760:Drivers/STM32H7xx_HAL_Driver/Src/stm32h7xx_hal_mdma.c ****       pNode = hmdma->FirstLinkedListNodeAddress;
 761:Drivers/STM32H7xx_HAL_Driver/Src/stm32h7xx_hal_mdma.c ****       while((counter < hmdma->LinkedListNodeCounter) && (hal_status == HAL_OK))
 762:Drivers/STM32H7xx_HAL_Driver/Src/stm32h7xx_hal_mdma.c ****       {
 763:Drivers/STM32H7xx_HAL_Driver/Src/stm32h7xx_hal_mdma.c ****         if(pNode->CLAR == (uint32_t)pNewNode)
 764:Drivers/STM32H7xx_HAL_Driver/Src/stm32h7xx_hal_mdma.c ****         {
 765:Drivers/STM32H7xx_HAL_Driver/Src/stm32h7xx_hal_mdma.c ****           hal_status = HAL_ERROR; /* error this node already exist in the linked list and it is not
 766:Drivers/STM32H7xx_HAL_Driver/Src/stm32h7xx_hal_mdma.c ****         }
 767:Drivers/STM32H7xx_HAL_Driver/Src/stm32h7xx_hal_mdma.c ****         pNode = (MDMA_LinkNodeTypeDef *)pNode->CLAR;
 768:Drivers/STM32H7xx_HAL_Driver/Src/stm32h7xx_hal_mdma.c ****         counter++;
 769:Drivers/STM32H7xx_HAL_Driver/Src/stm32h7xx_hal_mdma.c ****       }
 770:Drivers/STM32H7xx_HAL_Driver/Src/stm32h7xx_hal_mdma.c **** 
 771:Drivers/STM32H7xx_HAL_Driver/Src/stm32h7xx_hal_mdma.c ****       if(hal_status == HAL_OK)
 772:Drivers/STM32H7xx_HAL_Driver/Src/stm32h7xx_hal_mdma.c ****       {
 773:Drivers/STM32H7xx_HAL_Driver/Src/stm32h7xx_hal_mdma.c ****         /* Check if the previous node is the last one in the current list or zero */
 774:Drivers/STM32H7xx_HAL_Driver/Src/stm32h7xx_hal_mdma.c ****         if((pPrevNode == hmdma->LastLinkedListNodeAddress) || (pPrevNode == NULL))
ARM GAS  C:\Users\MadeuxS\AppData\Local\Temp\ccHqWtrv.s 			page 17


 775:Drivers/STM32H7xx_HAL_Driver/Src/stm32h7xx_hal_mdma.c ****         {
 776:Drivers/STM32H7xx_HAL_Driver/Src/stm32h7xx_hal_mdma.c ****           /* insert the new node at the end of the list */
 777:Drivers/STM32H7xx_HAL_Driver/Src/stm32h7xx_hal_mdma.c ****           pNewNode->CLAR = hmdma->LastLinkedListNodeAddress->CLAR;
 778:Drivers/STM32H7xx_HAL_Driver/Src/stm32h7xx_hal_mdma.c ****           hmdma->LastLinkedListNodeAddress->CLAR = (uint32_t)pNewNode;
 779:Drivers/STM32H7xx_HAL_Driver/Src/stm32h7xx_hal_mdma.c ****           /* Update the Handle last node address */
 780:Drivers/STM32H7xx_HAL_Driver/Src/stm32h7xx_hal_mdma.c ****           hmdma->LastLinkedListNodeAddress = pNewNode;
 781:Drivers/STM32H7xx_HAL_Driver/Src/stm32h7xx_hal_mdma.c ****           /* Increment the linked list node counter */
 782:Drivers/STM32H7xx_HAL_Driver/Src/stm32h7xx_hal_mdma.c ****           hmdma->LinkedListNodeCounter++;
 783:Drivers/STM32H7xx_HAL_Driver/Src/stm32h7xx_hal_mdma.c ****         }
 784:Drivers/STM32H7xx_HAL_Driver/Src/stm32h7xx_hal_mdma.c ****         else
 785:Drivers/STM32H7xx_HAL_Driver/Src/stm32h7xx_hal_mdma.c ****         {
 786:Drivers/STM32H7xx_HAL_Driver/Src/stm32h7xx_hal_mdma.c ****           /*insert the new node after the pPreviousNode node */
 787:Drivers/STM32H7xx_HAL_Driver/Src/stm32h7xx_hal_mdma.c ****           pNode = hmdma->FirstLinkedListNodeAddress;
 788:Drivers/STM32H7xx_HAL_Driver/Src/stm32h7xx_hal_mdma.c ****           counter = 0;
 789:Drivers/STM32H7xx_HAL_Driver/Src/stm32h7xx_hal_mdma.c ****           while((counter < hmdma->LinkedListNodeCounter) && (nodeInserted == 0U))
 790:Drivers/STM32H7xx_HAL_Driver/Src/stm32h7xx_hal_mdma.c ****           {
 791:Drivers/STM32H7xx_HAL_Driver/Src/stm32h7xx_hal_mdma.c ****             counter++;
 792:Drivers/STM32H7xx_HAL_Driver/Src/stm32h7xx_hal_mdma.c ****             if(pNode == pPrevNode)
 793:Drivers/STM32H7xx_HAL_Driver/Src/stm32h7xx_hal_mdma.c ****             {
 794:Drivers/STM32H7xx_HAL_Driver/Src/stm32h7xx_hal_mdma.c ****               /*Insert the new node after the previous one */
 795:Drivers/STM32H7xx_HAL_Driver/Src/stm32h7xx_hal_mdma.c ****               pNewNode->CLAR = pNode->CLAR;
 796:Drivers/STM32H7xx_HAL_Driver/Src/stm32h7xx_hal_mdma.c ****               pNode->CLAR = (uint32_t)pNewNode;
 797:Drivers/STM32H7xx_HAL_Driver/Src/stm32h7xx_hal_mdma.c ****               /* Increment the linked list node counter */
 798:Drivers/STM32H7xx_HAL_Driver/Src/stm32h7xx_hal_mdma.c ****               hmdma->LinkedListNodeCounter++;
 799:Drivers/STM32H7xx_HAL_Driver/Src/stm32h7xx_hal_mdma.c ****               nodeInserted = 1;
 800:Drivers/STM32H7xx_HAL_Driver/Src/stm32h7xx_hal_mdma.c ****             }
 801:Drivers/STM32H7xx_HAL_Driver/Src/stm32h7xx_hal_mdma.c ****             else
 802:Drivers/STM32H7xx_HAL_Driver/Src/stm32h7xx_hal_mdma.c ****             {
 803:Drivers/STM32H7xx_HAL_Driver/Src/stm32h7xx_hal_mdma.c ****               pNode = (MDMA_LinkNodeTypeDef *)pNode->CLAR;
 804:Drivers/STM32H7xx_HAL_Driver/Src/stm32h7xx_hal_mdma.c ****             }
 805:Drivers/STM32H7xx_HAL_Driver/Src/stm32h7xx_hal_mdma.c ****           }
 806:Drivers/STM32H7xx_HAL_Driver/Src/stm32h7xx_hal_mdma.c **** 
 807:Drivers/STM32H7xx_HAL_Driver/Src/stm32h7xx_hal_mdma.c ****           if(nodeInserted == 0U)
 808:Drivers/STM32H7xx_HAL_Driver/Src/stm32h7xx_hal_mdma.c ****           {
 809:Drivers/STM32H7xx_HAL_Driver/Src/stm32h7xx_hal_mdma.c ****             hal_status = HAL_ERROR;
 810:Drivers/STM32H7xx_HAL_Driver/Src/stm32h7xx_hal_mdma.c ****           }
 811:Drivers/STM32H7xx_HAL_Driver/Src/stm32h7xx_hal_mdma.c ****         }
 812:Drivers/STM32H7xx_HAL_Driver/Src/stm32h7xx_hal_mdma.c ****       }
 813:Drivers/STM32H7xx_HAL_Driver/Src/stm32h7xx_hal_mdma.c ****     }
 814:Drivers/STM32H7xx_HAL_Driver/Src/stm32h7xx_hal_mdma.c ****     else
 815:Drivers/STM32H7xx_HAL_Driver/Src/stm32h7xx_hal_mdma.c ****     {
 816:Drivers/STM32H7xx_HAL_Driver/Src/stm32h7xx_hal_mdma.c ****       hal_status = HAL_ERROR;
 817:Drivers/STM32H7xx_HAL_Driver/Src/stm32h7xx_hal_mdma.c ****     }
 818:Drivers/STM32H7xx_HAL_Driver/Src/stm32h7xx_hal_mdma.c **** 
 819:Drivers/STM32H7xx_HAL_Driver/Src/stm32h7xx_hal_mdma.c ****     /* Process unlocked */
 820:Drivers/STM32H7xx_HAL_Driver/Src/stm32h7xx_hal_mdma.c ****     __HAL_UNLOCK(hmdma);
 821:Drivers/STM32H7xx_HAL_Driver/Src/stm32h7xx_hal_mdma.c **** 
 822:Drivers/STM32H7xx_HAL_Driver/Src/stm32h7xx_hal_mdma.c ****     hmdma->State = HAL_MDMA_STATE_READY;
 823:Drivers/STM32H7xx_HAL_Driver/Src/stm32h7xx_hal_mdma.c **** 
 824:Drivers/STM32H7xx_HAL_Driver/Src/stm32h7xx_hal_mdma.c ****     return hal_status;
 825:Drivers/STM32H7xx_HAL_Driver/Src/stm32h7xx_hal_mdma.c ****   }
 826:Drivers/STM32H7xx_HAL_Driver/Src/stm32h7xx_hal_mdma.c ****   else
 827:Drivers/STM32H7xx_HAL_Driver/Src/stm32h7xx_hal_mdma.c ****   {
 828:Drivers/STM32H7xx_HAL_Driver/Src/stm32h7xx_hal_mdma.c ****     /* Process unlocked */
 829:Drivers/STM32H7xx_HAL_Driver/Src/stm32h7xx_hal_mdma.c ****     __HAL_UNLOCK(hmdma);
 830:Drivers/STM32H7xx_HAL_Driver/Src/stm32h7xx_hal_mdma.c **** 
 831:Drivers/STM32H7xx_HAL_Driver/Src/stm32h7xx_hal_mdma.c ****     /* Return error status */
ARM GAS  C:\Users\MadeuxS\AppData\Local\Temp\ccHqWtrv.s 			page 18


 832:Drivers/STM32H7xx_HAL_Driver/Src/stm32h7xx_hal_mdma.c ****     return HAL_BUSY;
 833:Drivers/STM32H7xx_HAL_Driver/Src/stm32h7xx_hal_mdma.c ****   }
 834:Drivers/STM32H7xx_HAL_Driver/Src/stm32h7xx_hal_mdma.c **** }
 835:Drivers/STM32H7xx_HAL_Driver/Src/stm32h7xx_hal_mdma.c **** 
 836:Drivers/STM32H7xx_HAL_Driver/Src/stm32h7xx_hal_mdma.c **** /**
 837:Drivers/STM32H7xx_HAL_Driver/Src/stm32h7xx_hal_mdma.c ****   * @brief  Disconnect/Remove a node from the transfer linked list.
 838:Drivers/STM32H7xx_HAL_Driver/Src/stm32h7xx_hal_mdma.c ****   * @param  hmdma : Pointer to a MDMA_HandleTypeDef structure that contains
 839:Drivers/STM32H7xx_HAL_Driver/Src/stm32h7xx_hal_mdma.c ****   *                 the configuration information for the specified MDMA Channel.
 840:Drivers/STM32H7xx_HAL_Driver/Src/stm32h7xx_hal_mdma.c ****   * @param  pNode : Pointer to a MDMA_LinkNodeTypeDef structure that contains Linked list node
 841:Drivers/STM32H7xx_HAL_Driver/Src/stm32h7xx_hal_mdma.c ****   *                 to be removed from the list.
 842:Drivers/STM32H7xx_HAL_Driver/Src/stm32h7xx_hal_mdma.c ****   *
 843:Drivers/STM32H7xx_HAL_Driver/Src/stm32h7xx_hal_mdma.c ****   * @retval HAL status
 844:Drivers/STM32H7xx_HAL_Driver/Src/stm32h7xx_hal_mdma.c ****   */
 845:Drivers/STM32H7xx_HAL_Driver/Src/stm32h7xx_hal_mdma.c **** HAL_StatusTypeDef HAL_MDMA_LinkedList_RemoveNode(MDMA_HandleTypeDef *hmdma, MDMA_LinkNodeTypeDef *p
 846:Drivers/STM32H7xx_HAL_Driver/Src/stm32h7xx_hal_mdma.c **** {
 847:Drivers/STM32H7xx_HAL_Driver/Src/stm32h7xx_hal_mdma.c ****   MDMA_LinkNodeTypeDef *ptmpNode;
 848:Drivers/STM32H7xx_HAL_Driver/Src/stm32h7xx_hal_mdma.c ****   uint32_t counter = 0, nodeDeleted = 0;
 849:Drivers/STM32H7xx_HAL_Driver/Src/stm32h7xx_hal_mdma.c ****   HAL_StatusTypeDef hal_status = HAL_OK;
 850:Drivers/STM32H7xx_HAL_Driver/Src/stm32h7xx_hal_mdma.c **** 
 851:Drivers/STM32H7xx_HAL_Driver/Src/stm32h7xx_hal_mdma.c ****   /* Check the MDMA peripheral handle */
 852:Drivers/STM32H7xx_HAL_Driver/Src/stm32h7xx_hal_mdma.c ****   if((hmdma == NULL) || (pNode == NULL))
 853:Drivers/STM32H7xx_HAL_Driver/Src/stm32h7xx_hal_mdma.c ****   {
 854:Drivers/STM32H7xx_HAL_Driver/Src/stm32h7xx_hal_mdma.c ****     return HAL_ERROR;
 855:Drivers/STM32H7xx_HAL_Driver/Src/stm32h7xx_hal_mdma.c ****   }
 856:Drivers/STM32H7xx_HAL_Driver/Src/stm32h7xx_hal_mdma.c **** 
 857:Drivers/STM32H7xx_HAL_Driver/Src/stm32h7xx_hal_mdma.c ****   /* Process locked */
 858:Drivers/STM32H7xx_HAL_Driver/Src/stm32h7xx_hal_mdma.c ****   __HAL_LOCK(hmdma);
 859:Drivers/STM32H7xx_HAL_Driver/Src/stm32h7xx_hal_mdma.c **** 
 860:Drivers/STM32H7xx_HAL_Driver/Src/stm32h7xx_hal_mdma.c ****   if(HAL_MDMA_STATE_READY == hmdma->State)
 861:Drivers/STM32H7xx_HAL_Driver/Src/stm32h7xx_hal_mdma.c ****   {
 862:Drivers/STM32H7xx_HAL_Driver/Src/stm32h7xx_hal_mdma.c ****     /* Change MDMA peripheral state */
 863:Drivers/STM32H7xx_HAL_Driver/Src/stm32h7xx_hal_mdma.c ****     hmdma->State = HAL_MDMA_STATE_BUSY;
 864:Drivers/STM32H7xx_HAL_Driver/Src/stm32h7xx_hal_mdma.c **** 
 865:Drivers/STM32H7xx_HAL_Driver/Src/stm32h7xx_hal_mdma.c ****     /* If first and last node are null (no nodes in the list) : return error*/
 866:Drivers/STM32H7xx_HAL_Driver/Src/stm32h7xx_hal_mdma.c ****     if(((uint32_t)hmdma->FirstLinkedListNodeAddress == 0U) || ((uint32_t)hmdma->LastLinkedListNodeA
 867:Drivers/STM32H7xx_HAL_Driver/Src/stm32h7xx_hal_mdma.c ****     {
 868:Drivers/STM32H7xx_HAL_Driver/Src/stm32h7xx_hal_mdma.c ****       hal_status = HAL_ERROR;
 869:Drivers/STM32H7xx_HAL_Driver/Src/stm32h7xx_hal_mdma.c ****     }
 870:Drivers/STM32H7xx_HAL_Driver/Src/stm32h7xx_hal_mdma.c ****     else if(hmdma->FirstLinkedListNodeAddress == pNode) /* Deleting first node */
 871:Drivers/STM32H7xx_HAL_Driver/Src/stm32h7xx_hal_mdma.c ****     {
 872:Drivers/STM32H7xx_HAL_Driver/Src/stm32h7xx_hal_mdma.c ****       /* Delete 1st node */
 873:Drivers/STM32H7xx_HAL_Driver/Src/stm32h7xx_hal_mdma.c ****       if(hmdma->LastLinkedListNodeAddress == pNode)
 874:Drivers/STM32H7xx_HAL_Driver/Src/stm32h7xx_hal_mdma.c ****       {
 875:Drivers/STM32H7xx_HAL_Driver/Src/stm32h7xx_hal_mdma.c ****         /*if the last node is at the same time the first one (1 single node after the init node 0)
 876:Drivers/STM32H7xx_HAL_Driver/Src/stm32h7xx_hal_mdma.c ****         then update the last node too */
 877:Drivers/STM32H7xx_HAL_Driver/Src/stm32h7xx_hal_mdma.c **** 
 878:Drivers/STM32H7xx_HAL_Driver/Src/stm32h7xx_hal_mdma.c ****         hmdma->FirstLinkedListNodeAddress = 0;
 879:Drivers/STM32H7xx_HAL_Driver/Src/stm32h7xx_hal_mdma.c ****         hmdma->LastLinkedListNodeAddress  = 0;
 880:Drivers/STM32H7xx_HAL_Driver/Src/stm32h7xx_hal_mdma.c ****         hmdma->LinkedListNodeCounter = 0;
 881:Drivers/STM32H7xx_HAL_Driver/Src/stm32h7xx_hal_mdma.c **** 
 882:Drivers/STM32H7xx_HAL_Driver/Src/stm32h7xx_hal_mdma.c ****         hmdma->Instance->CLAR = 0;
 883:Drivers/STM32H7xx_HAL_Driver/Src/stm32h7xx_hal_mdma.c ****       }
 884:Drivers/STM32H7xx_HAL_Driver/Src/stm32h7xx_hal_mdma.c ****       else
 885:Drivers/STM32H7xx_HAL_Driver/Src/stm32h7xx_hal_mdma.c ****       {
 886:Drivers/STM32H7xx_HAL_Driver/Src/stm32h7xx_hal_mdma.c ****         if((uint32_t)hmdma->FirstLinkedListNodeAddress == hmdma->LastLinkedListNodeAddress->CLAR)
 887:Drivers/STM32H7xx_HAL_Driver/Src/stm32h7xx_hal_mdma.c ****         {
 888:Drivers/STM32H7xx_HAL_Driver/Src/stm32h7xx_hal_mdma.c ****           /* if last node is looping to first (circular list) one update the last node connection *
ARM GAS  C:\Users\MadeuxS\AppData\Local\Temp\ccHqWtrv.s 			page 19


 889:Drivers/STM32H7xx_HAL_Driver/Src/stm32h7xx_hal_mdma.c ****           hmdma->LastLinkedListNodeAddress->CLAR = pNode->CLAR;
 890:Drivers/STM32H7xx_HAL_Driver/Src/stm32h7xx_hal_mdma.c ****         }
 891:Drivers/STM32H7xx_HAL_Driver/Src/stm32h7xx_hal_mdma.c **** 
 892:Drivers/STM32H7xx_HAL_Driver/Src/stm32h7xx_hal_mdma.c ****         /* if deleting the first node after the initialization
 893:Drivers/STM32H7xx_HAL_Driver/Src/stm32h7xx_hal_mdma.c ****         connect the next node to the node 0 by updating
 894:Drivers/STM32H7xx_HAL_Driver/Src/stm32h7xx_hal_mdma.c ****         the MDMA channel CLAR register to this node address */
 895:Drivers/STM32H7xx_HAL_Driver/Src/stm32h7xx_hal_mdma.c ****         hmdma->Instance->CLAR = pNode->CLAR;
 896:Drivers/STM32H7xx_HAL_Driver/Src/stm32h7xx_hal_mdma.c ****         hmdma->FirstLinkedListNodeAddress = (MDMA_LinkNodeTypeDef *)hmdma->Instance->CLAR;
 897:Drivers/STM32H7xx_HAL_Driver/Src/stm32h7xx_hal_mdma.c ****         /* Update the Handle node counter */
 898:Drivers/STM32H7xx_HAL_Driver/Src/stm32h7xx_hal_mdma.c ****         hmdma->LinkedListNodeCounter--;
 899:Drivers/STM32H7xx_HAL_Driver/Src/stm32h7xx_hal_mdma.c ****       }
 900:Drivers/STM32H7xx_HAL_Driver/Src/stm32h7xx_hal_mdma.c ****     }
 901:Drivers/STM32H7xx_HAL_Driver/Src/stm32h7xx_hal_mdma.c ****     else /* Deleting any other node */
 902:Drivers/STM32H7xx_HAL_Driver/Src/stm32h7xx_hal_mdma.c ****     {
 903:Drivers/STM32H7xx_HAL_Driver/Src/stm32h7xx_hal_mdma.c ****       /*Deleted node is not the first one : find it  */
 904:Drivers/STM32H7xx_HAL_Driver/Src/stm32h7xx_hal_mdma.c ****       ptmpNode = hmdma->FirstLinkedListNodeAddress;
 905:Drivers/STM32H7xx_HAL_Driver/Src/stm32h7xx_hal_mdma.c ****       while((counter < hmdma->LinkedListNodeCounter) && (nodeDeleted == 0U))
 906:Drivers/STM32H7xx_HAL_Driver/Src/stm32h7xx_hal_mdma.c ****       {
 907:Drivers/STM32H7xx_HAL_Driver/Src/stm32h7xx_hal_mdma.c ****         counter++;
 908:Drivers/STM32H7xx_HAL_Driver/Src/stm32h7xx_hal_mdma.c ****         if(ptmpNode->CLAR == ((uint32_t)pNode))
 909:Drivers/STM32H7xx_HAL_Driver/Src/stm32h7xx_hal_mdma.c ****         {
 910:Drivers/STM32H7xx_HAL_Driver/Src/stm32h7xx_hal_mdma.c ****           /* if deleting the last node */
 911:Drivers/STM32H7xx_HAL_Driver/Src/stm32h7xx_hal_mdma.c ****           if(pNode == hmdma->LastLinkedListNodeAddress)
 912:Drivers/STM32H7xx_HAL_Driver/Src/stm32h7xx_hal_mdma.c ****           {
 913:Drivers/STM32H7xx_HAL_Driver/Src/stm32h7xx_hal_mdma.c ****             /*Update the linked list last node address in the handle*/
 914:Drivers/STM32H7xx_HAL_Driver/Src/stm32h7xx_hal_mdma.c ****             hmdma->LastLinkedListNodeAddress = ptmpNode;
 915:Drivers/STM32H7xx_HAL_Driver/Src/stm32h7xx_hal_mdma.c ****           }
 916:Drivers/STM32H7xx_HAL_Driver/Src/stm32h7xx_hal_mdma.c ****           /* update the next node link after deleting pMDMA_LinkedListNode */
 917:Drivers/STM32H7xx_HAL_Driver/Src/stm32h7xx_hal_mdma.c ****           ptmpNode->CLAR = pNode->CLAR;
 918:Drivers/STM32H7xx_HAL_Driver/Src/stm32h7xx_hal_mdma.c ****           nodeDeleted = 1;
 919:Drivers/STM32H7xx_HAL_Driver/Src/stm32h7xx_hal_mdma.c ****           /* Update the Handle node counter */
 920:Drivers/STM32H7xx_HAL_Driver/Src/stm32h7xx_hal_mdma.c ****           hmdma->LinkedListNodeCounter--;
 921:Drivers/STM32H7xx_HAL_Driver/Src/stm32h7xx_hal_mdma.c ****         }
 922:Drivers/STM32H7xx_HAL_Driver/Src/stm32h7xx_hal_mdma.c ****         else
 923:Drivers/STM32H7xx_HAL_Driver/Src/stm32h7xx_hal_mdma.c ****         {
 924:Drivers/STM32H7xx_HAL_Driver/Src/stm32h7xx_hal_mdma.c ****           ptmpNode = (MDMA_LinkNodeTypeDef *)ptmpNode->CLAR;
 925:Drivers/STM32H7xx_HAL_Driver/Src/stm32h7xx_hal_mdma.c ****         }
 926:Drivers/STM32H7xx_HAL_Driver/Src/stm32h7xx_hal_mdma.c ****       }
 927:Drivers/STM32H7xx_HAL_Driver/Src/stm32h7xx_hal_mdma.c **** 
 928:Drivers/STM32H7xx_HAL_Driver/Src/stm32h7xx_hal_mdma.c ****       if(nodeDeleted == 0U)
 929:Drivers/STM32H7xx_HAL_Driver/Src/stm32h7xx_hal_mdma.c ****       {
 930:Drivers/STM32H7xx_HAL_Driver/Src/stm32h7xx_hal_mdma.c ****         /* last node reashed without finding the node to delete : return error */
 931:Drivers/STM32H7xx_HAL_Driver/Src/stm32h7xx_hal_mdma.c ****         hal_status = HAL_ERROR;
 932:Drivers/STM32H7xx_HAL_Driver/Src/stm32h7xx_hal_mdma.c ****       }
 933:Drivers/STM32H7xx_HAL_Driver/Src/stm32h7xx_hal_mdma.c ****     }
 934:Drivers/STM32H7xx_HAL_Driver/Src/stm32h7xx_hal_mdma.c **** 
 935:Drivers/STM32H7xx_HAL_Driver/Src/stm32h7xx_hal_mdma.c ****     /* Process unlocked */
 936:Drivers/STM32H7xx_HAL_Driver/Src/stm32h7xx_hal_mdma.c ****     __HAL_UNLOCK(hmdma);
 937:Drivers/STM32H7xx_HAL_Driver/Src/stm32h7xx_hal_mdma.c **** 
 938:Drivers/STM32H7xx_HAL_Driver/Src/stm32h7xx_hal_mdma.c ****     hmdma->State = HAL_MDMA_STATE_READY;
 939:Drivers/STM32H7xx_HAL_Driver/Src/stm32h7xx_hal_mdma.c **** 
 940:Drivers/STM32H7xx_HAL_Driver/Src/stm32h7xx_hal_mdma.c ****     return hal_status;
 941:Drivers/STM32H7xx_HAL_Driver/Src/stm32h7xx_hal_mdma.c ****   }
 942:Drivers/STM32H7xx_HAL_Driver/Src/stm32h7xx_hal_mdma.c ****   else
 943:Drivers/STM32H7xx_HAL_Driver/Src/stm32h7xx_hal_mdma.c ****   {
 944:Drivers/STM32H7xx_HAL_Driver/Src/stm32h7xx_hal_mdma.c ****     /* Process unlocked */
 945:Drivers/STM32H7xx_HAL_Driver/Src/stm32h7xx_hal_mdma.c ****     __HAL_UNLOCK(hmdma);
ARM GAS  C:\Users\MadeuxS\AppData\Local\Temp\ccHqWtrv.s 			page 20


 946:Drivers/STM32H7xx_HAL_Driver/Src/stm32h7xx_hal_mdma.c **** 
 947:Drivers/STM32H7xx_HAL_Driver/Src/stm32h7xx_hal_mdma.c ****     /* Return error status */
 948:Drivers/STM32H7xx_HAL_Driver/Src/stm32h7xx_hal_mdma.c ****     return HAL_BUSY;
 949:Drivers/STM32H7xx_HAL_Driver/Src/stm32h7xx_hal_mdma.c ****   }
 950:Drivers/STM32H7xx_HAL_Driver/Src/stm32h7xx_hal_mdma.c **** }
 951:Drivers/STM32H7xx_HAL_Driver/Src/stm32h7xx_hal_mdma.c **** 
 952:Drivers/STM32H7xx_HAL_Driver/Src/stm32h7xx_hal_mdma.c **** /**
 953:Drivers/STM32H7xx_HAL_Driver/Src/stm32h7xx_hal_mdma.c ****   * @brief  Make the linked list circular by connecting the last node to the first.
 954:Drivers/STM32H7xx_HAL_Driver/Src/stm32h7xx_hal_mdma.c ****   * @param  hmdma : Pointer to a MDMA_HandleTypeDef structure that contains
 955:Drivers/STM32H7xx_HAL_Driver/Src/stm32h7xx_hal_mdma.c ****   *                 the configuration information for the specified MDMA Channel.
 956:Drivers/STM32H7xx_HAL_Driver/Src/stm32h7xx_hal_mdma.c ****   * @retval HAL status
 957:Drivers/STM32H7xx_HAL_Driver/Src/stm32h7xx_hal_mdma.c ****   */
 958:Drivers/STM32H7xx_HAL_Driver/Src/stm32h7xx_hal_mdma.c **** HAL_StatusTypeDef HAL_MDMA_LinkedList_EnableCircularMode(MDMA_HandleTypeDef *hmdma)
 959:Drivers/STM32H7xx_HAL_Driver/Src/stm32h7xx_hal_mdma.c **** {
 960:Drivers/STM32H7xx_HAL_Driver/Src/stm32h7xx_hal_mdma.c ****   HAL_StatusTypeDef hal_status = HAL_OK;
 961:Drivers/STM32H7xx_HAL_Driver/Src/stm32h7xx_hal_mdma.c **** 
 962:Drivers/STM32H7xx_HAL_Driver/Src/stm32h7xx_hal_mdma.c ****   /* Check the MDMA peripheral handle */
 963:Drivers/STM32H7xx_HAL_Driver/Src/stm32h7xx_hal_mdma.c ****   if(hmdma == NULL)
 964:Drivers/STM32H7xx_HAL_Driver/Src/stm32h7xx_hal_mdma.c ****   {
 965:Drivers/STM32H7xx_HAL_Driver/Src/stm32h7xx_hal_mdma.c ****     return HAL_ERROR;
 966:Drivers/STM32H7xx_HAL_Driver/Src/stm32h7xx_hal_mdma.c ****   }
 967:Drivers/STM32H7xx_HAL_Driver/Src/stm32h7xx_hal_mdma.c **** 
 968:Drivers/STM32H7xx_HAL_Driver/Src/stm32h7xx_hal_mdma.c ****   /* Process locked */
 969:Drivers/STM32H7xx_HAL_Driver/Src/stm32h7xx_hal_mdma.c ****   __HAL_LOCK(hmdma);
 970:Drivers/STM32H7xx_HAL_Driver/Src/stm32h7xx_hal_mdma.c **** 
 971:Drivers/STM32H7xx_HAL_Driver/Src/stm32h7xx_hal_mdma.c ****   if(HAL_MDMA_STATE_READY == hmdma->State)
 972:Drivers/STM32H7xx_HAL_Driver/Src/stm32h7xx_hal_mdma.c ****   {
 973:Drivers/STM32H7xx_HAL_Driver/Src/stm32h7xx_hal_mdma.c ****     /* Change MDMA peripheral state */
 974:Drivers/STM32H7xx_HAL_Driver/Src/stm32h7xx_hal_mdma.c ****     hmdma->State = HAL_MDMA_STATE_BUSY;
 975:Drivers/STM32H7xx_HAL_Driver/Src/stm32h7xx_hal_mdma.c **** 
 976:Drivers/STM32H7xx_HAL_Driver/Src/stm32h7xx_hal_mdma.c ****     /* If first and last node are null (no nodes in the list) : return error*/
 977:Drivers/STM32H7xx_HAL_Driver/Src/stm32h7xx_hal_mdma.c ****     if(((uint32_t)hmdma->FirstLinkedListNodeAddress == 0U) || ((uint32_t)hmdma->LastLinkedListNodeA
 978:Drivers/STM32H7xx_HAL_Driver/Src/stm32h7xx_hal_mdma.c ****     {
 979:Drivers/STM32H7xx_HAL_Driver/Src/stm32h7xx_hal_mdma.c ****       hal_status = HAL_ERROR;
 980:Drivers/STM32H7xx_HAL_Driver/Src/stm32h7xx_hal_mdma.c ****     }
 981:Drivers/STM32H7xx_HAL_Driver/Src/stm32h7xx_hal_mdma.c ****     else
 982:Drivers/STM32H7xx_HAL_Driver/Src/stm32h7xx_hal_mdma.c ****     {
 983:Drivers/STM32H7xx_HAL_Driver/Src/stm32h7xx_hal_mdma.c ****       /* to enable circular mode Last Node should be connected to first node */
 984:Drivers/STM32H7xx_HAL_Driver/Src/stm32h7xx_hal_mdma.c ****       hmdma->LastLinkedListNodeAddress->CLAR = (uint32_t)hmdma->FirstLinkedListNodeAddress;
 985:Drivers/STM32H7xx_HAL_Driver/Src/stm32h7xx_hal_mdma.c ****     }
 986:Drivers/STM32H7xx_HAL_Driver/Src/stm32h7xx_hal_mdma.c **** 
 987:Drivers/STM32H7xx_HAL_Driver/Src/stm32h7xx_hal_mdma.c ****   }
 988:Drivers/STM32H7xx_HAL_Driver/Src/stm32h7xx_hal_mdma.c ****   /* Process unlocked */
 989:Drivers/STM32H7xx_HAL_Driver/Src/stm32h7xx_hal_mdma.c ****   __HAL_UNLOCK(hmdma);
 990:Drivers/STM32H7xx_HAL_Driver/Src/stm32h7xx_hal_mdma.c **** 
 991:Drivers/STM32H7xx_HAL_Driver/Src/stm32h7xx_hal_mdma.c ****   hmdma->State = HAL_MDMA_STATE_READY;
 992:Drivers/STM32H7xx_HAL_Driver/Src/stm32h7xx_hal_mdma.c **** 
 993:Drivers/STM32H7xx_HAL_Driver/Src/stm32h7xx_hal_mdma.c ****   return hal_status;
 994:Drivers/STM32H7xx_HAL_Driver/Src/stm32h7xx_hal_mdma.c **** }
 995:Drivers/STM32H7xx_HAL_Driver/Src/stm32h7xx_hal_mdma.c **** 
 996:Drivers/STM32H7xx_HAL_Driver/Src/stm32h7xx_hal_mdma.c **** /**
 997:Drivers/STM32H7xx_HAL_Driver/Src/stm32h7xx_hal_mdma.c ****   * @brief  Disable the linked list circular mode by setting the last node connection to null
 998:Drivers/STM32H7xx_HAL_Driver/Src/stm32h7xx_hal_mdma.c ****   * @param  hmdma : Pointer to a MDMA_HandleTypeDef structure that contains
 999:Drivers/STM32H7xx_HAL_Driver/Src/stm32h7xx_hal_mdma.c ****   *                 the configuration information for the specified MDMA Channel.
1000:Drivers/STM32H7xx_HAL_Driver/Src/stm32h7xx_hal_mdma.c ****   * @retval HAL status
1001:Drivers/STM32H7xx_HAL_Driver/Src/stm32h7xx_hal_mdma.c ****   */
1002:Drivers/STM32H7xx_HAL_Driver/Src/stm32h7xx_hal_mdma.c **** HAL_StatusTypeDef HAL_MDMA_LinkedList_DisableCircularMode(MDMA_HandleTypeDef *hmdma)
ARM GAS  C:\Users\MadeuxS\AppData\Local\Temp\ccHqWtrv.s 			page 21


1003:Drivers/STM32H7xx_HAL_Driver/Src/stm32h7xx_hal_mdma.c **** {
1004:Drivers/STM32H7xx_HAL_Driver/Src/stm32h7xx_hal_mdma.c ****   HAL_StatusTypeDef hal_status = HAL_OK;
1005:Drivers/STM32H7xx_HAL_Driver/Src/stm32h7xx_hal_mdma.c **** 
1006:Drivers/STM32H7xx_HAL_Driver/Src/stm32h7xx_hal_mdma.c ****   /* Check the MDMA peripheral handle */
1007:Drivers/STM32H7xx_HAL_Driver/Src/stm32h7xx_hal_mdma.c ****   if(hmdma == NULL)
1008:Drivers/STM32H7xx_HAL_Driver/Src/stm32h7xx_hal_mdma.c ****   {
1009:Drivers/STM32H7xx_HAL_Driver/Src/stm32h7xx_hal_mdma.c ****     return HAL_ERROR;
1010:Drivers/STM32H7xx_HAL_Driver/Src/stm32h7xx_hal_mdma.c ****   }
1011:Drivers/STM32H7xx_HAL_Driver/Src/stm32h7xx_hal_mdma.c **** 
1012:Drivers/STM32H7xx_HAL_Driver/Src/stm32h7xx_hal_mdma.c ****   /* Process locked */
1013:Drivers/STM32H7xx_HAL_Driver/Src/stm32h7xx_hal_mdma.c ****   __HAL_LOCK(hmdma);
1014:Drivers/STM32H7xx_HAL_Driver/Src/stm32h7xx_hal_mdma.c **** 
1015:Drivers/STM32H7xx_HAL_Driver/Src/stm32h7xx_hal_mdma.c ****   if(HAL_MDMA_STATE_READY == hmdma->State)
1016:Drivers/STM32H7xx_HAL_Driver/Src/stm32h7xx_hal_mdma.c ****   {
1017:Drivers/STM32H7xx_HAL_Driver/Src/stm32h7xx_hal_mdma.c ****     /* Change MDMA peripheral state */
1018:Drivers/STM32H7xx_HAL_Driver/Src/stm32h7xx_hal_mdma.c ****     hmdma->State = HAL_MDMA_STATE_BUSY;
1019:Drivers/STM32H7xx_HAL_Driver/Src/stm32h7xx_hal_mdma.c **** 
1020:Drivers/STM32H7xx_HAL_Driver/Src/stm32h7xx_hal_mdma.c ****     /* If first and last node are null (no nodes in the list) : return error*/
1021:Drivers/STM32H7xx_HAL_Driver/Src/stm32h7xx_hal_mdma.c ****     if(((uint32_t)hmdma->FirstLinkedListNodeAddress == 0U) || ((uint32_t)hmdma->LastLinkedListNodeA
1022:Drivers/STM32H7xx_HAL_Driver/Src/stm32h7xx_hal_mdma.c ****     {
1023:Drivers/STM32H7xx_HAL_Driver/Src/stm32h7xx_hal_mdma.c ****       hal_status = HAL_ERROR;
1024:Drivers/STM32H7xx_HAL_Driver/Src/stm32h7xx_hal_mdma.c ****     }
1025:Drivers/STM32H7xx_HAL_Driver/Src/stm32h7xx_hal_mdma.c ****     else
1026:Drivers/STM32H7xx_HAL_Driver/Src/stm32h7xx_hal_mdma.c ****     {
1027:Drivers/STM32H7xx_HAL_Driver/Src/stm32h7xx_hal_mdma.c ****       /* to disable circular mode Last Node should be connected to NULL */
1028:Drivers/STM32H7xx_HAL_Driver/Src/stm32h7xx_hal_mdma.c ****       hmdma->LastLinkedListNodeAddress->CLAR = 0;
1029:Drivers/STM32H7xx_HAL_Driver/Src/stm32h7xx_hal_mdma.c ****     }
1030:Drivers/STM32H7xx_HAL_Driver/Src/stm32h7xx_hal_mdma.c **** 
1031:Drivers/STM32H7xx_HAL_Driver/Src/stm32h7xx_hal_mdma.c ****   }
1032:Drivers/STM32H7xx_HAL_Driver/Src/stm32h7xx_hal_mdma.c ****   /* Process unlocked */
1033:Drivers/STM32H7xx_HAL_Driver/Src/stm32h7xx_hal_mdma.c ****   __HAL_UNLOCK(hmdma);
1034:Drivers/STM32H7xx_HAL_Driver/Src/stm32h7xx_hal_mdma.c **** 
1035:Drivers/STM32H7xx_HAL_Driver/Src/stm32h7xx_hal_mdma.c ****   hmdma->State = HAL_MDMA_STATE_READY;
1036:Drivers/STM32H7xx_HAL_Driver/Src/stm32h7xx_hal_mdma.c **** 
1037:Drivers/STM32H7xx_HAL_Driver/Src/stm32h7xx_hal_mdma.c ****   return hal_status;
1038:Drivers/STM32H7xx_HAL_Driver/Src/stm32h7xx_hal_mdma.c **** }
1039:Drivers/STM32H7xx_HAL_Driver/Src/stm32h7xx_hal_mdma.c **** 
1040:Drivers/STM32H7xx_HAL_Driver/Src/stm32h7xx_hal_mdma.c **** /**
1041:Drivers/STM32H7xx_HAL_Driver/Src/stm32h7xx_hal_mdma.c ****   * @}
1042:Drivers/STM32H7xx_HAL_Driver/Src/stm32h7xx_hal_mdma.c ****   */
1043:Drivers/STM32H7xx_HAL_Driver/Src/stm32h7xx_hal_mdma.c **** 
1044:Drivers/STM32H7xx_HAL_Driver/Src/stm32h7xx_hal_mdma.c **** /** @addtogroup MDMA_Exported_Functions_Group3
1045:Drivers/STM32H7xx_HAL_Driver/Src/stm32h7xx_hal_mdma.c ****  *
1046:Drivers/STM32H7xx_HAL_Driver/Src/stm32h7xx_hal_mdma.c **** @verbatim
1047:Drivers/STM32H7xx_HAL_Driver/Src/stm32h7xx_hal_mdma.c ****  ===============================================================================
1048:Drivers/STM32H7xx_HAL_Driver/Src/stm32h7xx_hal_mdma.c ****                       #####  IO operation functions  #####
1049:Drivers/STM32H7xx_HAL_Driver/Src/stm32h7xx_hal_mdma.c ****  ===============================================================================
1050:Drivers/STM32H7xx_HAL_Driver/Src/stm32h7xx_hal_mdma.c ****     [..]  This section provides functions allowing to:
1051:Drivers/STM32H7xx_HAL_Driver/Src/stm32h7xx_hal_mdma.c ****       (+) Configure the source, destination address and data length and Start MDMA transfer
1052:Drivers/STM32H7xx_HAL_Driver/Src/stm32h7xx_hal_mdma.c ****       (+) Configure the source, destination address and data length and
1053:Drivers/STM32H7xx_HAL_Driver/Src/stm32h7xx_hal_mdma.c ****           Start MDMA transfer with interrupt
1054:Drivers/STM32H7xx_HAL_Driver/Src/stm32h7xx_hal_mdma.c ****       (+) Abort MDMA transfer
1055:Drivers/STM32H7xx_HAL_Driver/Src/stm32h7xx_hal_mdma.c ****       (+) Poll for transfer complete
1056:Drivers/STM32H7xx_HAL_Driver/Src/stm32h7xx_hal_mdma.c ****       (+) Generate a SW request (when Request is set to MDMA_REQUEST_SW)
1057:Drivers/STM32H7xx_HAL_Driver/Src/stm32h7xx_hal_mdma.c ****       (+) Handle MDMA interrupt request
1058:Drivers/STM32H7xx_HAL_Driver/Src/stm32h7xx_hal_mdma.c **** 
1059:Drivers/STM32H7xx_HAL_Driver/Src/stm32h7xx_hal_mdma.c **** @endverbatim
ARM GAS  C:\Users\MadeuxS\AppData\Local\Temp\ccHqWtrv.s 			page 22


1060:Drivers/STM32H7xx_HAL_Driver/Src/stm32h7xx_hal_mdma.c ****   * @{
1061:Drivers/STM32H7xx_HAL_Driver/Src/stm32h7xx_hal_mdma.c ****   */
1062:Drivers/STM32H7xx_HAL_Driver/Src/stm32h7xx_hal_mdma.c **** 
1063:Drivers/STM32H7xx_HAL_Driver/Src/stm32h7xx_hal_mdma.c **** /**
1064:Drivers/STM32H7xx_HAL_Driver/Src/stm32h7xx_hal_mdma.c ****   * @brief  Starts the MDMA Transfer.
1065:Drivers/STM32H7xx_HAL_Driver/Src/stm32h7xx_hal_mdma.c ****   * @param  hmdma           : pointer to a MDMA_HandleTypeDef structure that contains
1066:Drivers/STM32H7xx_HAL_Driver/Src/stm32h7xx_hal_mdma.c ****   *                           the configuration information for the specified MDMA Channel.
1067:Drivers/STM32H7xx_HAL_Driver/Src/stm32h7xx_hal_mdma.c ****   * @param  SrcAddress      : The source memory Buffer address
1068:Drivers/STM32H7xx_HAL_Driver/Src/stm32h7xx_hal_mdma.c ****   * @param  DstAddress      : The destination memory Buffer address
1069:Drivers/STM32H7xx_HAL_Driver/Src/stm32h7xx_hal_mdma.c ****   * @param  BlockDataLength : The length of a block transfer in bytes
1070:Drivers/STM32H7xx_HAL_Driver/Src/stm32h7xx_hal_mdma.c ****   * @param  BlockCount      : The number of a blocks to be transfer
1071:Drivers/STM32H7xx_HAL_Driver/Src/stm32h7xx_hal_mdma.c ****   * @retval HAL status
1072:Drivers/STM32H7xx_HAL_Driver/Src/stm32h7xx_hal_mdma.c ****   */
1073:Drivers/STM32H7xx_HAL_Driver/Src/stm32h7xx_hal_mdma.c **** HAL_StatusTypeDef HAL_MDMA_Start(MDMA_HandleTypeDef *hmdma, uint32_t SrcAddress, uint32_t DstAddres
1074:Drivers/STM32H7xx_HAL_Driver/Src/stm32h7xx_hal_mdma.c **** {
1075:Drivers/STM32H7xx_HAL_Driver/Src/stm32h7xx_hal_mdma.c ****   /* Check the parameters */
1076:Drivers/STM32H7xx_HAL_Driver/Src/stm32h7xx_hal_mdma.c ****   assert_param(IS_MDMA_TRANSFER_LENGTH(BlockDataLength));
1077:Drivers/STM32H7xx_HAL_Driver/Src/stm32h7xx_hal_mdma.c ****   assert_param(IS_MDMA_BLOCK_COUNT(BlockCount));
1078:Drivers/STM32H7xx_HAL_Driver/Src/stm32h7xx_hal_mdma.c **** 
1079:Drivers/STM32H7xx_HAL_Driver/Src/stm32h7xx_hal_mdma.c ****   /* Check the MDMA peripheral handle */
1080:Drivers/STM32H7xx_HAL_Driver/Src/stm32h7xx_hal_mdma.c ****   if(hmdma == NULL)
1081:Drivers/STM32H7xx_HAL_Driver/Src/stm32h7xx_hal_mdma.c ****   {
1082:Drivers/STM32H7xx_HAL_Driver/Src/stm32h7xx_hal_mdma.c ****     return HAL_ERROR;
1083:Drivers/STM32H7xx_HAL_Driver/Src/stm32h7xx_hal_mdma.c ****   }
1084:Drivers/STM32H7xx_HAL_Driver/Src/stm32h7xx_hal_mdma.c **** 
1085:Drivers/STM32H7xx_HAL_Driver/Src/stm32h7xx_hal_mdma.c ****   /* Process locked */
1086:Drivers/STM32H7xx_HAL_Driver/Src/stm32h7xx_hal_mdma.c ****   __HAL_LOCK(hmdma);
1087:Drivers/STM32H7xx_HAL_Driver/Src/stm32h7xx_hal_mdma.c **** 
1088:Drivers/STM32H7xx_HAL_Driver/Src/stm32h7xx_hal_mdma.c ****   if(HAL_MDMA_STATE_READY == hmdma->State)
1089:Drivers/STM32H7xx_HAL_Driver/Src/stm32h7xx_hal_mdma.c ****   {
1090:Drivers/STM32H7xx_HAL_Driver/Src/stm32h7xx_hal_mdma.c ****     /* Change MDMA peripheral state */
1091:Drivers/STM32H7xx_HAL_Driver/Src/stm32h7xx_hal_mdma.c ****     hmdma->State = HAL_MDMA_STATE_BUSY;
1092:Drivers/STM32H7xx_HAL_Driver/Src/stm32h7xx_hal_mdma.c **** 
1093:Drivers/STM32H7xx_HAL_Driver/Src/stm32h7xx_hal_mdma.c ****     /* Initialize the error code */
1094:Drivers/STM32H7xx_HAL_Driver/Src/stm32h7xx_hal_mdma.c ****     hmdma->ErrorCode = HAL_MDMA_ERROR_NONE;
1095:Drivers/STM32H7xx_HAL_Driver/Src/stm32h7xx_hal_mdma.c **** 
1096:Drivers/STM32H7xx_HAL_Driver/Src/stm32h7xx_hal_mdma.c ****     /* Disable the peripheral */
1097:Drivers/STM32H7xx_HAL_Driver/Src/stm32h7xx_hal_mdma.c ****     __HAL_MDMA_DISABLE(hmdma);
1098:Drivers/STM32H7xx_HAL_Driver/Src/stm32h7xx_hal_mdma.c **** 
1099:Drivers/STM32H7xx_HAL_Driver/Src/stm32h7xx_hal_mdma.c ****     /* Configure the source, destination address and the data length */
1100:Drivers/STM32H7xx_HAL_Driver/Src/stm32h7xx_hal_mdma.c ****     MDMA_SetConfig(hmdma, SrcAddress, DstAddress, BlockDataLength, BlockCount);
1101:Drivers/STM32H7xx_HAL_Driver/Src/stm32h7xx_hal_mdma.c **** 
1102:Drivers/STM32H7xx_HAL_Driver/Src/stm32h7xx_hal_mdma.c ****     /* Enable the Peripheral */
1103:Drivers/STM32H7xx_HAL_Driver/Src/stm32h7xx_hal_mdma.c ****     __HAL_MDMA_ENABLE(hmdma);
1104:Drivers/STM32H7xx_HAL_Driver/Src/stm32h7xx_hal_mdma.c **** 
1105:Drivers/STM32H7xx_HAL_Driver/Src/stm32h7xx_hal_mdma.c ****     if(hmdma->Init.Request == MDMA_REQUEST_SW)
1106:Drivers/STM32H7xx_HAL_Driver/Src/stm32h7xx_hal_mdma.c ****     {
1107:Drivers/STM32H7xx_HAL_Driver/Src/stm32h7xx_hal_mdma.c ****       /* activate If SW request mode*/
1108:Drivers/STM32H7xx_HAL_Driver/Src/stm32h7xx_hal_mdma.c ****       hmdma->Instance->CCR |=  MDMA_CCR_SWRQ;
1109:Drivers/STM32H7xx_HAL_Driver/Src/stm32h7xx_hal_mdma.c ****     }
1110:Drivers/STM32H7xx_HAL_Driver/Src/stm32h7xx_hal_mdma.c ****   }
1111:Drivers/STM32H7xx_HAL_Driver/Src/stm32h7xx_hal_mdma.c ****   else
1112:Drivers/STM32H7xx_HAL_Driver/Src/stm32h7xx_hal_mdma.c ****   {
1113:Drivers/STM32H7xx_HAL_Driver/Src/stm32h7xx_hal_mdma.c ****     /* Process unlocked */
1114:Drivers/STM32H7xx_HAL_Driver/Src/stm32h7xx_hal_mdma.c ****     __HAL_UNLOCK(hmdma);
1115:Drivers/STM32H7xx_HAL_Driver/Src/stm32h7xx_hal_mdma.c **** 
1116:Drivers/STM32H7xx_HAL_Driver/Src/stm32h7xx_hal_mdma.c ****     /* Return error status */
ARM GAS  C:\Users\MadeuxS\AppData\Local\Temp\ccHqWtrv.s 			page 23


1117:Drivers/STM32H7xx_HAL_Driver/Src/stm32h7xx_hal_mdma.c ****     return HAL_BUSY;
1118:Drivers/STM32H7xx_HAL_Driver/Src/stm32h7xx_hal_mdma.c ****   }
1119:Drivers/STM32H7xx_HAL_Driver/Src/stm32h7xx_hal_mdma.c **** 
1120:Drivers/STM32H7xx_HAL_Driver/Src/stm32h7xx_hal_mdma.c ****   return HAL_OK;
1121:Drivers/STM32H7xx_HAL_Driver/Src/stm32h7xx_hal_mdma.c **** }
1122:Drivers/STM32H7xx_HAL_Driver/Src/stm32h7xx_hal_mdma.c **** 
1123:Drivers/STM32H7xx_HAL_Driver/Src/stm32h7xx_hal_mdma.c **** /**
1124:Drivers/STM32H7xx_HAL_Driver/Src/stm32h7xx_hal_mdma.c ****   * @brief  Starts the MDMA Transfer with interrupts enabled.
1125:Drivers/STM32H7xx_HAL_Driver/Src/stm32h7xx_hal_mdma.c ****   * @param  hmdma           : pointer to a MDMA_HandleTypeDef structure that contains
1126:Drivers/STM32H7xx_HAL_Driver/Src/stm32h7xx_hal_mdma.c ****   *                           the configuration information for the specified MDMA Channel.
1127:Drivers/STM32H7xx_HAL_Driver/Src/stm32h7xx_hal_mdma.c ****   * @param  SrcAddress      : The source memory Buffer address
1128:Drivers/STM32H7xx_HAL_Driver/Src/stm32h7xx_hal_mdma.c ****   * @param  DstAddress      : The destination memory Buffer address
1129:Drivers/STM32H7xx_HAL_Driver/Src/stm32h7xx_hal_mdma.c ****   * @param  BlockDataLength : The length of a block transfer in bytes
1130:Drivers/STM32H7xx_HAL_Driver/Src/stm32h7xx_hal_mdma.c ****   * @param  BlockCount      : The number of a blocks to be transfer
1131:Drivers/STM32H7xx_HAL_Driver/Src/stm32h7xx_hal_mdma.c ****   * @retval HAL status
1132:Drivers/STM32H7xx_HAL_Driver/Src/stm32h7xx_hal_mdma.c ****   */
1133:Drivers/STM32H7xx_HAL_Driver/Src/stm32h7xx_hal_mdma.c **** HAL_StatusTypeDef HAL_MDMA_Start_IT(MDMA_HandleTypeDef *hmdma, uint32_t SrcAddress, uint32_t DstAdd
1134:Drivers/STM32H7xx_HAL_Driver/Src/stm32h7xx_hal_mdma.c **** {
1135:Drivers/STM32H7xx_HAL_Driver/Src/stm32h7xx_hal_mdma.c ****   /* Check the parameters */
1136:Drivers/STM32H7xx_HAL_Driver/Src/stm32h7xx_hal_mdma.c ****   assert_param(IS_MDMA_TRANSFER_LENGTH(BlockDataLength));
1137:Drivers/STM32H7xx_HAL_Driver/Src/stm32h7xx_hal_mdma.c ****   assert_param(IS_MDMA_BLOCK_COUNT(BlockCount));
1138:Drivers/STM32H7xx_HAL_Driver/Src/stm32h7xx_hal_mdma.c **** 
1139:Drivers/STM32H7xx_HAL_Driver/Src/stm32h7xx_hal_mdma.c ****   /* Check the MDMA peripheral handle */
1140:Drivers/STM32H7xx_HAL_Driver/Src/stm32h7xx_hal_mdma.c ****   if(hmdma == NULL)
1141:Drivers/STM32H7xx_HAL_Driver/Src/stm32h7xx_hal_mdma.c ****   {
1142:Drivers/STM32H7xx_HAL_Driver/Src/stm32h7xx_hal_mdma.c ****     return HAL_ERROR;
1143:Drivers/STM32H7xx_HAL_Driver/Src/stm32h7xx_hal_mdma.c ****   }
1144:Drivers/STM32H7xx_HAL_Driver/Src/stm32h7xx_hal_mdma.c **** 
1145:Drivers/STM32H7xx_HAL_Driver/Src/stm32h7xx_hal_mdma.c ****   /* Process locked */
1146:Drivers/STM32H7xx_HAL_Driver/Src/stm32h7xx_hal_mdma.c ****   __HAL_LOCK(hmdma);
1147:Drivers/STM32H7xx_HAL_Driver/Src/stm32h7xx_hal_mdma.c **** 
1148:Drivers/STM32H7xx_HAL_Driver/Src/stm32h7xx_hal_mdma.c ****   if(HAL_MDMA_STATE_READY == hmdma->State)
1149:Drivers/STM32H7xx_HAL_Driver/Src/stm32h7xx_hal_mdma.c ****   {
1150:Drivers/STM32H7xx_HAL_Driver/Src/stm32h7xx_hal_mdma.c ****     /* Change MDMA peripheral state */
1151:Drivers/STM32H7xx_HAL_Driver/Src/stm32h7xx_hal_mdma.c ****     hmdma->State = HAL_MDMA_STATE_BUSY;
1152:Drivers/STM32H7xx_HAL_Driver/Src/stm32h7xx_hal_mdma.c **** 
1153:Drivers/STM32H7xx_HAL_Driver/Src/stm32h7xx_hal_mdma.c ****     /* Initialize the error code */
1154:Drivers/STM32H7xx_HAL_Driver/Src/stm32h7xx_hal_mdma.c ****     hmdma->ErrorCode = HAL_MDMA_ERROR_NONE;
1155:Drivers/STM32H7xx_HAL_Driver/Src/stm32h7xx_hal_mdma.c **** 
1156:Drivers/STM32H7xx_HAL_Driver/Src/stm32h7xx_hal_mdma.c ****     /* Disable the peripheral */
1157:Drivers/STM32H7xx_HAL_Driver/Src/stm32h7xx_hal_mdma.c ****     __HAL_MDMA_DISABLE(hmdma);
1158:Drivers/STM32H7xx_HAL_Driver/Src/stm32h7xx_hal_mdma.c **** 
1159:Drivers/STM32H7xx_HAL_Driver/Src/stm32h7xx_hal_mdma.c ****     /* Configure the source, destination address and the data length */
1160:Drivers/STM32H7xx_HAL_Driver/Src/stm32h7xx_hal_mdma.c ****     MDMA_SetConfig(hmdma, SrcAddress, DstAddress, BlockDataLength, BlockCount);
1161:Drivers/STM32H7xx_HAL_Driver/Src/stm32h7xx_hal_mdma.c **** 
1162:Drivers/STM32H7xx_HAL_Driver/Src/stm32h7xx_hal_mdma.c ****     /* Enable Common interrupts i.e Transfer Error IT and Channel Transfer Complete IT*/
1163:Drivers/STM32H7xx_HAL_Driver/Src/stm32h7xx_hal_mdma.c ****     __HAL_MDMA_ENABLE_IT(hmdma, (MDMA_IT_TE | MDMA_IT_CTC));
1164:Drivers/STM32H7xx_HAL_Driver/Src/stm32h7xx_hal_mdma.c **** 
1165:Drivers/STM32H7xx_HAL_Driver/Src/stm32h7xx_hal_mdma.c ****     if(hmdma->XferBlockCpltCallback != NULL)
1166:Drivers/STM32H7xx_HAL_Driver/Src/stm32h7xx_hal_mdma.c ****     {
1167:Drivers/STM32H7xx_HAL_Driver/Src/stm32h7xx_hal_mdma.c ****       /* if Block transfer complete Callback is set enable the corresponding IT*/
1168:Drivers/STM32H7xx_HAL_Driver/Src/stm32h7xx_hal_mdma.c ****       __HAL_MDMA_ENABLE_IT(hmdma, MDMA_IT_BT);
1169:Drivers/STM32H7xx_HAL_Driver/Src/stm32h7xx_hal_mdma.c ****     }
1170:Drivers/STM32H7xx_HAL_Driver/Src/stm32h7xx_hal_mdma.c **** 
1171:Drivers/STM32H7xx_HAL_Driver/Src/stm32h7xx_hal_mdma.c ****     if(hmdma->XferRepeatBlockCpltCallback != NULL)
1172:Drivers/STM32H7xx_HAL_Driver/Src/stm32h7xx_hal_mdma.c ****     {
1173:Drivers/STM32H7xx_HAL_Driver/Src/stm32h7xx_hal_mdma.c ****       /* if Repeated Block transfer complete Callback is set enable the corresponding IT*/
ARM GAS  C:\Users\MadeuxS\AppData\Local\Temp\ccHqWtrv.s 			page 24


1174:Drivers/STM32H7xx_HAL_Driver/Src/stm32h7xx_hal_mdma.c ****       __HAL_MDMA_ENABLE_IT(hmdma, MDMA_IT_BRT);
1175:Drivers/STM32H7xx_HAL_Driver/Src/stm32h7xx_hal_mdma.c ****     }
1176:Drivers/STM32H7xx_HAL_Driver/Src/stm32h7xx_hal_mdma.c **** 
1177:Drivers/STM32H7xx_HAL_Driver/Src/stm32h7xx_hal_mdma.c ****     if(hmdma->XferBufferCpltCallback != NULL)
1178:Drivers/STM32H7xx_HAL_Driver/Src/stm32h7xx_hal_mdma.c ****     {
1179:Drivers/STM32H7xx_HAL_Driver/Src/stm32h7xx_hal_mdma.c ****       /* if buffer transfer complete Callback is set enable the corresponding IT*/
1180:Drivers/STM32H7xx_HAL_Driver/Src/stm32h7xx_hal_mdma.c ****       __HAL_MDMA_ENABLE_IT(hmdma, MDMA_IT_BFTC);
1181:Drivers/STM32H7xx_HAL_Driver/Src/stm32h7xx_hal_mdma.c ****     }
1182:Drivers/STM32H7xx_HAL_Driver/Src/stm32h7xx_hal_mdma.c **** 
1183:Drivers/STM32H7xx_HAL_Driver/Src/stm32h7xx_hal_mdma.c ****     /* Enable the Peripheral */
1184:Drivers/STM32H7xx_HAL_Driver/Src/stm32h7xx_hal_mdma.c ****     __HAL_MDMA_ENABLE(hmdma);
1185:Drivers/STM32H7xx_HAL_Driver/Src/stm32h7xx_hal_mdma.c **** 
1186:Drivers/STM32H7xx_HAL_Driver/Src/stm32h7xx_hal_mdma.c ****     if(hmdma->Init.Request == MDMA_REQUEST_SW)
1187:Drivers/STM32H7xx_HAL_Driver/Src/stm32h7xx_hal_mdma.c ****     {
1188:Drivers/STM32H7xx_HAL_Driver/Src/stm32h7xx_hal_mdma.c ****       /* activate If SW request mode*/
1189:Drivers/STM32H7xx_HAL_Driver/Src/stm32h7xx_hal_mdma.c ****       hmdma->Instance->CCR |=  MDMA_CCR_SWRQ;
1190:Drivers/STM32H7xx_HAL_Driver/Src/stm32h7xx_hal_mdma.c ****     }
1191:Drivers/STM32H7xx_HAL_Driver/Src/stm32h7xx_hal_mdma.c ****   }
1192:Drivers/STM32H7xx_HAL_Driver/Src/stm32h7xx_hal_mdma.c ****   else
1193:Drivers/STM32H7xx_HAL_Driver/Src/stm32h7xx_hal_mdma.c ****   {
1194:Drivers/STM32H7xx_HAL_Driver/Src/stm32h7xx_hal_mdma.c ****     /* Process unlocked */
1195:Drivers/STM32H7xx_HAL_Driver/Src/stm32h7xx_hal_mdma.c ****     __HAL_UNLOCK(hmdma);
1196:Drivers/STM32H7xx_HAL_Driver/Src/stm32h7xx_hal_mdma.c **** 
1197:Drivers/STM32H7xx_HAL_Driver/Src/stm32h7xx_hal_mdma.c ****     /* Return error status */
1198:Drivers/STM32H7xx_HAL_Driver/Src/stm32h7xx_hal_mdma.c ****     return HAL_BUSY;
1199:Drivers/STM32H7xx_HAL_Driver/Src/stm32h7xx_hal_mdma.c ****   }
1200:Drivers/STM32H7xx_HAL_Driver/Src/stm32h7xx_hal_mdma.c **** 
1201:Drivers/STM32H7xx_HAL_Driver/Src/stm32h7xx_hal_mdma.c ****   return HAL_OK;
1202:Drivers/STM32H7xx_HAL_Driver/Src/stm32h7xx_hal_mdma.c **** }
1203:Drivers/STM32H7xx_HAL_Driver/Src/stm32h7xx_hal_mdma.c **** 
1204:Drivers/STM32H7xx_HAL_Driver/Src/stm32h7xx_hal_mdma.c **** /**
1205:Drivers/STM32H7xx_HAL_Driver/Src/stm32h7xx_hal_mdma.c ****   * @brief  Aborts the MDMA Transfer.
1206:Drivers/STM32H7xx_HAL_Driver/Src/stm32h7xx_hal_mdma.c ****   * @param  hmdma  : pointer to a MDMA_HandleTypeDef structure that contains
1207:Drivers/STM32H7xx_HAL_Driver/Src/stm32h7xx_hal_mdma.c ****   *                 the configuration information for the specified MDMA Channel.
1208:Drivers/STM32H7xx_HAL_Driver/Src/stm32h7xx_hal_mdma.c ****   *
1209:Drivers/STM32H7xx_HAL_Driver/Src/stm32h7xx_hal_mdma.c ****   * @note  After disabling a MDMA Channel, a check for wait until the MDMA Channel is
1210:Drivers/STM32H7xx_HAL_Driver/Src/stm32h7xx_hal_mdma.c ****   *        effectively disabled is added. If a Channel is disabled
1211:Drivers/STM32H7xx_HAL_Driver/Src/stm32h7xx_hal_mdma.c ****   *        while a data transfer is ongoing, the current data will be transferred
1212:Drivers/STM32H7xx_HAL_Driver/Src/stm32h7xx_hal_mdma.c ****   *        and the Channel will be effectively disabled only after the transfer of
1213:Drivers/STM32H7xx_HAL_Driver/Src/stm32h7xx_hal_mdma.c ****   *        this single data is finished.
1214:Drivers/STM32H7xx_HAL_Driver/Src/stm32h7xx_hal_mdma.c ****   * @retval HAL status
1215:Drivers/STM32H7xx_HAL_Driver/Src/stm32h7xx_hal_mdma.c ****   */
1216:Drivers/STM32H7xx_HAL_Driver/Src/stm32h7xx_hal_mdma.c **** HAL_StatusTypeDef HAL_MDMA_Abort(MDMA_HandleTypeDef *hmdma)
1217:Drivers/STM32H7xx_HAL_Driver/Src/stm32h7xx_hal_mdma.c **** {
1218:Drivers/STM32H7xx_HAL_Driver/Src/stm32h7xx_hal_mdma.c ****   uint32_t tickstart =  HAL_GetTick();
1219:Drivers/STM32H7xx_HAL_Driver/Src/stm32h7xx_hal_mdma.c **** 
1220:Drivers/STM32H7xx_HAL_Driver/Src/stm32h7xx_hal_mdma.c ****   /* Check the MDMA peripheral handle */
1221:Drivers/STM32H7xx_HAL_Driver/Src/stm32h7xx_hal_mdma.c ****   if(hmdma == NULL)
1222:Drivers/STM32H7xx_HAL_Driver/Src/stm32h7xx_hal_mdma.c ****   {
1223:Drivers/STM32H7xx_HAL_Driver/Src/stm32h7xx_hal_mdma.c ****     return HAL_ERROR;
1224:Drivers/STM32H7xx_HAL_Driver/Src/stm32h7xx_hal_mdma.c ****   }
1225:Drivers/STM32H7xx_HAL_Driver/Src/stm32h7xx_hal_mdma.c **** 
1226:Drivers/STM32H7xx_HAL_Driver/Src/stm32h7xx_hal_mdma.c ****   if(HAL_MDMA_STATE_BUSY != hmdma->State)
1227:Drivers/STM32H7xx_HAL_Driver/Src/stm32h7xx_hal_mdma.c ****   {
1228:Drivers/STM32H7xx_HAL_Driver/Src/stm32h7xx_hal_mdma.c ****     hmdma->ErrorCode = HAL_MDMA_ERROR_NO_XFER;
1229:Drivers/STM32H7xx_HAL_Driver/Src/stm32h7xx_hal_mdma.c **** 
1230:Drivers/STM32H7xx_HAL_Driver/Src/stm32h7xx_hal_mdma.c ****     /* Process Unlocked */
ARM GAS  C:\Users\MadeuxS\AppData\Local\Temp\ccHqWtrv.s 			page 25


1231:Drivers/STM32H7xx_HAL_Driver/Src/stm32h7xx_hal_mdma.c ****     __HAL_UNLOCK(hmdma);
1232:Drivers/STM32H7xx_HAL_Driver/Src/stm32h7xx_hal_mdma.c **** 
1233:Drivers/STM32H7xx_HAL_Driver/Src/stm32h7xx_hal_mdma.c ****     return HAL_ERROR;
1234:Drivers/STM32H7xx_HAL_Driver/Src/stm32h7xx_hal_mdma.c ****   }
1235:Drivers/STM32H7xx_HAL_Driver/Src/stm32h7xx_hal_mdma.c ****   else
1236:Drivers/STM32H7xx_HAL_Driver/Src/stm32h7xx_hal_mdma.c ****   {
1237:Drivers/STM32H7xx_HAL_Driver/Src/stm32h7xx_hal_mdma.c ****     /* Disable all the transfer interrupts */
1238:Drivers/STM32H7xx_HAL_Driver/Src/stm32h7xx_hal_mdma.c ****     __HAL_MDMA_DISABLE_IT(hmdma, (MDMA_IT_TE | MDMA_IT_CTC | MDMA_IT_BT | MDMA_IT_BRT | MDMA_IT_BFT
1239:Drivers/STM32H7xx_HAL_Driver/Src/stm32h7xx_hal_mdma.c **** 
1240:Drivers/STM32H7xx_HAL_Driver/Src/stm32h7xx_hal_mdma.c ****     /* Disable the channel */
1241:Drivers/STM32H7xx_HAL_Driver/Src/stm32h7xx_hal_mdma.c ****     __HAL_MDMA_DISABLE(hmdma);
1242:Drivers/STM32H7xx_HAL_Driver/Src/stm32h7xx_hal_mdma.c **** 
1243:Drivers/STM32H7xx_HAL_Driver/Src/stm32h7xx_hal_mdma.c ****     /* Check if the MDMA Channel is effectively disabled */
1244:Drivers/STM32H7xx_HAL_Driver/Src/stm32h7xx_hal_mdma.c ****     while((hmdma->Instance->CCR & MDMA_CCR_EN) != 0U)
1245:Drivers/STM32H7xx_HAL_Driver/Src/stm32h7xx_hal_mdma.c ****     {
1246:Drivers/STM32H7xx_HAL_Driver/Src/stm32h7xx_hal_mdma.c ****       /* Check for the Timeout */
1247:Drivers/STM32H7xx_HAL_Driver/Src/stm32h7xx_hal_mdma.c ****       if( (HAL_GetTick()  - tickstart ) > HAL_TIMEOUT_MDMA_ABORT)
1248:Drivers/STM32H7xx_HAL_Driver/Src/stm32h7xx_hal_mdma.c ****       {
1249:Drivers/STM32H7xx_HAL_Driver/Src/stm32h7xx_hal_mdma.c ****         /* Update error code */
1250:Drivers/STM32H7xx_HAL_Driver/Src/stm32h7xx_hal_mdma.c ****         hmdma->ErrorCode |= HAL_MDMA_ERROR_TIMEOUT;
1251:Drivers/STM32H7xx_HAL_Driver/Src/stm32h7xx_hal_mdma.c **** 
1252:Drivers/STM32H7xx_HAL_Driver/Src/stm32h7xx_hal_mdma.c ****         /* Process Unlocked */
1253:Drivers/STM32H7xx_HAL_Driver/Src/stm32h7xx_hal_mdma.c ****         __HAL_UNLOCK(hmdma);
1254:Drivers/STM32H7xx_HAL_Driver/Src/stm32h7xx_hal_mdma.c **** 
1255:Drivers/STM32H7xx_HAL_Driver/Src/stm32h7xx_hal_mdma.c ****         /* Change the MDMA state */
1256:Drivers/STM32H7xx_HAL_Driver/Src/stm32h7xx_hal_mdma.c ****         hmdma->State = HAL_MDMA_STATE_ERROR;
1257:Drivers/STM32H7xx_HAL_Driver/Src/stm32h7xx_hal_mdma.c **** 
1258:Drivers/STM32H7xx_HAL_Driver/Src/stm32h7xx_hal_mdma.c ****         return HAL_ERROR;
1259:Drivers/STM32H7xx_HAL_Driver/Src/stm32h7xx_hal_mdma.c ****       }
1260:Drivers/STM32H7xx_HAL_Driver/Src/stm32h7xx_hal_mdma.c ****     }
1261:Drivers/STM32H7xx_HAL_Driver/Src/stm32h7xx_hal_mdma.c **** 
1262:Drivers/STM32H7xx_HAL_Driver/Src/stm32h7xx_hal_mdma.c ****     /* Clear all interrupt flags */
1263:Drivers/STM32H7xx_HAL_Driver/Src/stm32h7xx_hal_mdma.c ****     __HAL_MDMA_CLEAR_FLAG(hmdma, (MDMA_FLAG_TE | MDMA_FLAG_CTC | MDMA_FLAG_BT | MDMA_FLAG_BRT | MDM
1264:Drivers/STM32H7xx_HAL_Driver/Src/stm32h7xx_hal_mdma.c **** 
1265:Drivers/STM32H7xx_HAL_Driver/Src/stm32h7xx_hal_mdma.c ****     /* Process Unlocked */
1266:Drivers/STM32H7xx_HAL_Driver/Src/stm32h7xx_hal_mdma.c ****     __HAL_UNLOCK(hmdma);
1267:Drivers/STM32H7xx_HAL_Driver/Src/stm32h7xx_hal_mdma.c **** 
1268:Drivers/STM32H7xx_HAL_Driver/Src/stm32h7xx_hal_mdma.c ****     /* Change the MDMA state*/
1269:Drivers/STM32H7xx_HAL_Driver/Src/stm32h7xx_hal_mdma.c ****     hmdma->State = HAL_MDMA_STATE_READY;
1270:Drivers/STM32H7xx_HAL_Driver/Src/stm32h7xx_hal_mdma.c ****   }
1271:Drivers/STM32H7xx_HAL_Driver/Src/stm32h7xx_hal_mdma.c **** 
1272:Drivers/STM32H7xx_HAL_Driver/Src/stm32h7xx_hal_mdma.c ****   return HAL_OK;
1273:Drivers/STM32H7xx_HAL_Driver/Src/stm32h7xx_hal_mdma.c **** }
1274:Drivers/STM32H7xx_HAL_Driver/Src/stm32h7xx_hal_mdma.c **** 
1275:Drivers/STM32H7xx_HAL_Driver/Src/stm32h7xx_hal_mdma.c **** /**
1276:Drivers/STM32H7xx_HAL_Driver/Src/stm32h7xx_hal_mdma.c ****   * @brief  Aborts the MDMA Transfer in Interrupt mode.
1277:Drivers/STM32H7xx_HAL_Driver/Src/stm32h7xx_hal_mdma.c ****   * @param  hmdma  : pointer to a MDMA_HandleTypeDef structure that contains
1278:Drivers/STM32H7xx_HAL_Driver/Src/stm32h7xx_hal_mdma.c ****   *                 the configuration information for the specified MDMA Channel.
1279:Drivers/STM32H7xx_HAL_Driver/Src/stm32h7xx_hal_mdma.c ****   * @retval HAL status
1280:Drivers/STM32H7xx_HAL_Driver/Src/stm32h7xx_hal_mdma.c ****   */
1281:Drivers/STM32H7xx_HAL_Driver/Src/stm32h7xx_hal_mdma.c **** HAL_StatusTypeDef HAL_MDMA_Abort_IT(MDMA_HandleTypeDef *hmdma)
1282:Drivers/STM32H7xx_HAL_Driver/Src/stm32h7xx_hal_mdma.c **** {
1283:Drivers/STM32H7xx_HAL_Driver/Src/stm32h7xx_hal_mdma.c ****   /* Check the MDMA peripheral handle */
1284:Drivers/STM32H7xx_HAL_Driver/Src/stm32h7xx_hal_mdma.c ****   if(hmdma == NULL)
1285:Drivers/STM32H7xx_HAL_Driver/Src/stm32h7xx_hal_mdma.c ****   {
1286:Drivers/STM32H7xx_HAL_Driver/Src/stm32h7xx_hal_mdma.c ****     return HAL_ERROR;
1287:Drivers/STM32H7xx_HAL_Driver/Src/stm32h7xx_hal_mdma.c ****   }
ARM GAS  C:\Users\MadeuxS\AppData\Local\Temp\ccHqWtrv.s 			page 26


1288:Drivers/STM32H7xx_HAL_Driver/Src/stm32h7xx_hal_mdma.c **** 
1289:Drivers/STM32H7xx_HAL_Driver/Src/stm32h7xx_hal_mdma.c ****   if(HAL_MDMA_STATE_BUSY != hmdma->State)
1290:Drivers/STM32H7xx_HAL_Driver/Src/stm32h7xx_hal_mdma.c ****   {
1291:Drivers/STM32H7xx_HAL_Driver/Src/stm32h7xx_hal_mdma.c ****     /* No transfer ongoing */
1292:Drivers/STM32H7xx_HAL_Driver/Src/stm32h7xx_hal_mdma.c ****     hmdma->ErrorCode = HAL_MDMA_ERROR_NO_XFER;
1293:Drivers/STM32H7xx_HAL_Driver/Src/stm32h7xx_hal_mdma.c **** 
1294:Drivers/STM32H7xx_HAL_Driver/Src/stm32h7xx_hal_mdma.c ****     return HAL_ERROR;
1295:Drivers/STM32H7xx_HAL_Driver/Src/stm32h7xx_hal_mdma.c ****   }
1296:Drivers/STM32H7xx_HAL_Driver/Src/stm32h7xx_hal_mdma.c ****   else
1297:Drivers/STM32H7xx_HAL_Driver/Src/stm32h7xx_hal_mdma.c ****   {
1298:Drivers/STM32H7xx_HAL_Driver/Src/stm32h7xx_hal_mdma.c ****     /* Set Abort State  */
1299:Drivers/STM32H7xx_HAL_Driver/Src/stm32h7xx_hal_mdma.c ****     hmdma->State = HAL_MDMA_STATE_ABORT;
1300:Drivers/STM32H7xx_HAL_Driver/Src/stm32h7xx_hal_mdma.c **** 
1301:Drivers/STM32H7xx_HAL_Driver/Src/stm32h7xx_hal_mdma.c ****     /* Disable the stream */
1302:Drivers/STM32H7xx_HAL_Driver/Src/stm32h7xx_hal_mdma.c ****     __HAL_MDMA_DISABLE(hmdma);
1303:Drivers/STM32H7xx_HAL_Driver/Src/stm32h7xx_hal_mdma.c ****   }
1304:Drivers/STM32H7xx_HAL_Driver/Src/stm32h7xx_hal_mdma.c **** 
1305:Drivers/STM32H7xx_HAL_Driver/Src/stm32h7xx_hal_mdma.c ****   return HAL_OK;
1306:Drivers/STM32H7xx_HAL_Driver/Src/stm32h7xx_hal_mdma.c **** }
1307:Drivers/STM32H7xx_HAL_Driver/Src/stm32h7xx_hal_mdma.c **** 
1308:Drivers/STM32H7xx_HAL_Driver/Src/stm32h7xx_hal_mdma.c **** /**
1309:Drivers/STM32H7xx_HAL_Driver/Src/stm32h7xx_hal_mdma.c ****   * @brief  Polling for transfer complete.
1310:Drivers/STM32H7xx_HAL_Driver/Src/stm32h7xx_hal_mdma.c ****   * @param  hmdma:          pointer to a MDMA_HandleTypeDef structure that contains
1311:Drivers/STM32H7xx_HAL_Driver/Src/stm32h7xx_hal_mdma.c ****   *                        the configuration information for the specified MDMA Channel.
1312:Drivers/STM32H7xx_HAL_Driver/Src/stm32h7xx_hal_mdma.c ****   * @param  CompleteLevel: Specifies the MDMA level complete.
1313:Drivers/STM32H7xx_HAL_Driver/Src/stm32h7xx_hal_mdma.c ****   * @param  Timeout:       Timeout duration.
1314:Drivers/STM32H7xx_HAL_Driver/Src/stm32h7xx_hal_mdma.c ****   * @retval HAL status
1315:Drivers/STM32H7xx_HAL_Driver/Src/stm32h7xx_hal_mdma.c ****   */
1316:Drivers/STM32H7xx_HAL_Driver/Src/stm32h7xx_hal_mdma.c **** HAL_StatusTypeDef HAL_MDMA_PollForTransfer(MDMA_HandleTypeDef *hmdma, HAL_MDMA_LevelCompleteTypeDef
1317:Drivers/STM32H7xx_HAL_Driver/Src/stm32h7xx_hal_mdma.c **** {
1318:Drivers/STM32H7xx_HAL_Driver/Src/stm32h7xx_hal_mdma.c ****   uint32_t levelFlag, errorFlag;
1319:Drivers/STM32H7xx_HAL_Driver/Src/stm32h7xx_hal_mdma.c ****   uint32_t tickstart;
1320:Drivers/STM32H7xx_HAL_Driver/Src/stm32h7xx_hal_mdma.c **** 
1321:Drivers/STM32H7xx_HAL_Driver/Src/stm32h7xx_hal_mdma.c ****   /* Check the parameters */
1322:Drivers/STM32H7xx_HAL_Driver/Src/stm32h7xx_hal_mdma.c ****   assert_param(IS_MDMA_LEVEL_COMPLETE(CompleteLevel));
1323:Drivers/STM32H7xx_HAL_Driver/Src/stm32h7xx_hal_mdma.c **** 
1324:Drivers/STM32H7xx_HAL_Driver/Src/stm32h7xx_hal_mdma.c ****   /* Check the MDMA peripheral handle */
1325:Drivers/STM32H7xx_HAL_Driver/Src/stm32h7xx_hal_mdma.c ****   if(hmdma == NULL)
1326:Drivers/STM32H7xx_HAL_Driver/Src/stm32h7xx_hal_mdma.c ****   {
1327:Drivers/STM32H7xx_HAL_Driver/Src/stm32h7xx_hal_mdma.c ****     return HAL_ERROR;
1328:Drivers/STM32H7xx_HAL_Driver/Src/stm32h7xx_hal_mdma.c ****   }
1329:Drivers/STM32H7xx_HAL_Driver/Src/stm32h7xx_hal_mdma.c **** 
1330:Drivers/STM32H7xx_HAL_Driver/Src/stm32h7xx_hal_mdma.c ****   if(HAL_MDMA_STATE_BUSY != hmdma->State)
1331:Drivers/STM32H7xx_HAL_Driver/Src/stm32h7xx_hal_mdma.c ****   {
1332:Drivers/STM32H7xx_HAL_Driver/Src/stm32h7xx_hal_mdma.c ****     /* No transfer ongoing */
1333:Drivers/STM32H7xx_HAL_Driver/Src/stm32h7xx_hal_mdma.c ****     hmdma->ErrorCode = HAL_MDMA_ERROR_NO_XFER;
1334:Drivers/STM32H7xx_HAL_Driver/Src/stm32h7xx_hal_mdma.c **** 
1335:Drivers/STM32H7xx_HAL_Driver/Src/stm32h7xx_hal_mdma.c ****     return HAL_ERROR;
1336:Drivers/STM32H7xx_HAL_Driver/Src/stm32h7xx_hal_mdma.c ****   }
1337:Drivers/STM32H7xx_HAL_Driver/Src/stm32h7xx_hal_mdma.c **** 
1338:Drivers/STM32H7xx_HAL_Driver/Src/stm32h7xx_hal_mdma.c ****   /* Get the level transfer complete flag */
1339:Drivers/STM32H7xx_HAL_Driver/Src/stm32h7xx_hal_mdma.c ****   levelFlag = ((CompleteLevel == HAL_MDMA_FULL_TRANSFER)  ? MDMA_FLAG_CTC  : \
1340:Drivers/STM32H7xx_HAL_Driver/Src/stm32h7xx_hal_mdma.c ****                (CompleteLevel == HAL_MDMA_BUFFER_TRANSFER)? MDMA_FLAG_BFTC : \
1341:Drivers/STM32H7xx_HAL_Driver/Src/stm32h7xx_hal_mdma.c ****                (CompleteLevel == HAL_MDMA_BLOCK_TRANSFER) ? MDMA_FLAG_BT   : \
1342:Drivers/STM32H7xx_HAL_Driver/Src/stm32h7xx_hal_mdma.c ****                MDMA_FLAG_BRT);
1343:Drivers/STM32H7xx_HAL_Driver/Src/stm32h7xx_hal_mdma.c **** 
1344:Drivers/STM32H7xx_HAL_Driver/Src/stm32h7xx_hal_mdma.c **** 
ARM GAS  C:\Users\MadeuxS\AppData\Local\Temp\ccHqWtrv.s 			page 27


1345:Drivers/STM32H7xx_HAL_Driver/Src/stm32h7xx_hal_mdma.c ****   /* Get timeout */
1346:Drivers/STM32H7xx_HAL_Driver/Src/stm32h7xx_hal_mdma.c ****   tickstart = HAL_GetTick();
1347:Drivers/STM32H7xx_HAL_Driver/Src/stm32h7xx_hal_mdma.c **** 
1348:Drivers/STM32H7xx_HAL_Driver/Src/stm32h7xx_hal_mdma.c ****   while(__HAL_MDMA_GET_FLAG(hmdma, levelFlag) == 0U)
1349:Drivers/STM32H7xx_HAL_Driver/Src/stm32h7xx_hal_mdma.c ****   {
1350:Drivers/STM32H7xx_HAL_Driver/Src/stm32h7xx_hal_mdma.c ****     if((__HAL_MDMA_GET_FLAG(hmdma, MDMA_FLAG_TE) != 0U))
1351:Drivers/STM32H7xx_HAL_Driver/Src/stm32h7xx_hal_mdma.c ****     {
1352:Drivers/STM32H7xx_HAL_Driver/Src/stm32h7xx_hal_mdma.c ****       /* Get the transfer error source flag */
1353:Drivers/STM32H7xx_HAL_Driver/Src/stm32h7xx_hal_mdma.c ****       errorFlag = hmdma->Instance->CESR;
1354:Drivers/STM32H7xx_HAL_Driver/Src/stm32h7xx_hal_mdma.c **** 
1355:Drivers/STM32H7xx_HAL_Driver/Src/stm32h7xx_hal_mdma.c ****       if((errorFlag & MDMA_CESR_TED) == 0U)
1356:Drivers/STM32H7xx_HAL_Driver/Src/stm32h7xx_hal_mdma.c ****       {
1357:Drivers/STM32H7xx_HAL_Driver/Src/stm32h7xx_hal_mdma.c ****         /* Update error code : Read Transfer error  */
1358:Drivers/STM32H7xx_HAL_Driver/Src/stm32h7xx_hal_mdma.c ****         hmdma->ErrorCode |= HAL_MDMA_ERROR_READ_XFER;
1359:Drivers/STM32H7xx_HAL_Driver/Src/stm32h7xx_hal_mdma.c ****       }
1360:Drivers/STM32H7xx_HAL_Driver/Src/stm32h7xx_hal_mdma.c ****       else
1361:Drivers/STM32H7xx_HAL_Driver/Src/stm32h7xx_hal_mdma.c ****       {
1362:Drivers/STM32H7xx_HAL_Driver/Src/stm32h7xx_hal_mdma.c ****         /* Update error code : Write Transfer error */
1363:Drivers/STM32H7xx_HAL_Driver/Src/stm32h7xx_hal_mdma.c ****         hmdma->ErrorCode |= HAL_MDMA_ERROR_WRITE_XFER;
1364:Drivers/STM32H7xx_HAL_Driver/Src/stm32h7xx_hal_mdma.c ****       }
1365:Drivers/STM32H7xx_HAL_Driver/Src/stm32h7xx_hal_mdma.c **** 
1366:Drivers/STM32H7xx_HAL_Driver/Src/stm32h7xx_hal_mdma.c ****       if((errorFlag & MDMA_CESR_TEMD) != 0U)
1367:Drivers/STM32H7xx_HAL_Driver/Src/stm32h7xx_hal_mdma.c ****       {
1368:Drivers/STM32H7xx_HAL_Driver/Src/stm32h7xx_hal_mdma.c ****         /* Update error code : Error Mask Data */
1369:Drivers/STM32H7xx_HAL_Driver/Src/stm32h7xx_hal_mdma.c ****         hmdma->ErrorCode |= HAL_MDMA_ERROR_MASK_DATA;
1370:Drivers/STM32H7xx_HAL_Driver/Src/stm32h7xx_hal_mdma.c ****       }
1371:Drivers/STM32H7xx_HAL_Driver/Src/stm32h7xx_hal_mdma.c **** 
1372:Drivers/STM32H7xx_HAL_Driver/Src/stm32h7xx_hal_mdma.c ****       if((errorFlag & MDMA_CESR_TELD) != 0U)
1373:Drivers/STM32H7xx_HAL_Driver/Src/stm32h7xx_hal_mdma.c ****       {
1374:Drivers/STM32H7xx_HAL_Driver/Src/stm32h7xx_hal_mdma.c ****         /* Update error code : Error Linked list */
1375:Drivers/STM32H7xx_HAL_Driver/Src/stm32h7xx_hal_mdma.c ****         hmdma->ErrorCode |= HAL_MDMA_ERROR_LINKED_LIST;
1376:Drivers/STM32H7xx_HAL_Driver/Src/stm32h7xx_hal_mdma.c ****       }
1377:Drivers/STM32H7xx_HAL_Driver/Src/stm32h7xx_hal_mdma.c **** 
1378:Drivers/STM32H7xx_HAL_Driver/Src/stm32h7xx_hal_mdma.c ****       if((errorFlag & MDMA_CESR_ASE) != 0U)
1379:Drivers/STM32H7xx_HAL_Driver/Src/stm32h7xx_hal_mdma.c ****       {
1380:Drivers/STM32H7xx_HAL_Driver/Src/stm32h7xx_hal_mdma.c ****         /* Update error code : Address/Size alignment error */
1381:Drivers/STM32H7xx_HAL_Driver/Src/stm32h7xx_hal_mdma.c ****         hmdma->ErrorCode |= HAL_MDMA_ERROR_ALIGNMENT;
1382:Drivers/STM32H7xx_HAL_Driver/Src/stm32h7xx_hal_mdma.c ****       }
1383:Drivers/STM32H7xx_HAL_Driver/Src/stm32h7xx_hal_mdma.c **** 
1384:Drivers/STM32H7xx_HAL_Driver/Src/stm32h7xx_hal_mdma.c ****       if((errorFlag & MDMA_CESR_BSE) != 0U)
1385:Drivers/STM32H7xx_HAL_Driver/Src/stm32h7xx_hal_mdma.c ****       {
1386:Drivers/STM32H7xx_HAL_Driver/Src/stm32h7xx_hal_mdma.c ****         /* Update error code : Block Size error */
1387:Drivers/STM32H7xx_HAL_Driver/Src/stm32h7xx_hal_mdma.c ****         hmdma->ErrorCode |= HAL_MDMA_ERROR_BLOCK_SIZE;
1388:Drivers/STM32H7xx_HAL_Driver/Src/stm32h7xx_hal_mdma.c ****       }
1389:Drivers/STM32H7xx_HAL_Driver/Src/stm32h7xx_hal_mdma.c **** 
1390:Drivers/STM32H7xx_HAL_Driver/Src/stm32h7xx_hal_mdma.c ****       (void) HAL_MDMA_Abort(hmdma); /* if error then abort the current transfer */
1391:Drivers/STM32H7xx_HAL_Driver/Src/stm32h7xx_hal_mdma.c **** 
1392:Drivers/STM32H7xx_HAL_Driver/Src/stm32h7xx_hal_mdma.c ****       /*
1393:Drivers/STM32H7xx_HAL_Driver/Src/stm32h7xx_hal_mdma.c ****         Note that the Abort function will
1394:Drivers/STM32H7xx_HAL_Driver/Src/stm32h7xx_hal_mdma.c ****           - Clear all transfer flags
1395:Drivers/STM32H7xx_HAL_Driver/Src/stm32h7xx_hal_mdma.c ****           - Unlock
1396:Drivers/STM32H7xx_HAL_Driver/Src/stm32h7xx_hal_mdma.c ****           - Set the State
1397:Drivers/STM32H7xx_HAL_Driver/Src/stm32h7xx_hal_mdma.c ****       */
1398:Drivers/STM32H7xx_HAL_Driver/Src/stm32h7xx_hal_mdma.c **** 
1399:Drivers/STM32H7xx_HAL_Driver/Src/stm32h7xx_hal_mdma.c ****       return HAL_ERROR;
1400:Drivers/STM32H7xx_HAL_Driver/Src/stm32h7xx_hal_mdma.c **** 
1401:Drivers/STM32H7xx_HAL_Driver/Src/stm32h7xx_hal_mdma.c ****     }
ARM GAS  C:\Users\MadeuxS\AppData\Local\Temp\ccHqWtrv.s 			page 28


1402:Drivers/STM32H7xx_HAL_Driver/Src/stm32h7xx_hal_mdma.c **** 
1403:Drivers/STM32H7xx_HAL_Driver/Src/stm32h7xx_hal_mdma.c ****     /* Check for the Timeout */
1404:Drivers/STM32H7xx_HAL_Driver/Src/stm32h7xx_hal_mdma.c ****     if(Timeout != HAL_MAX_DELAY)
1405:Drivers/STM32H7xx_HAL_Driver/Src/stm32h7xx_hal_mdma.c ****     {
1406:Drivers/STM32H7xx_HAL_Driver/Src/stm32h7xx_hal_mdma.c ****       if(((HAL_GetTick() - tickstart ) > Timeout) || (Timeout == 0U))
1407:Drivers/STM32H7xx_HAL_Driver/Src/stm32h7xx_hal_mdma.c ****       {
1408:Drivers/STM32H7xx_HAL_Driver/Src/stm32h7xx_hal_mdma.c ****         /* Update error code */
1409:Drivers/STM32H7xx_HAL_Driver/Src/stm32h7xx_hal_mdma.c ****         hmdma->ErrorCode |= HAL_MDMA_ERROR_TIMEOUT;
1410:Drivers/STM32H7xx_HAL_Driver/Src/stm32h7xx_hal_mdma.c **** 
1411:Drivers/STM32H7xx_HAL_Driver/Src/stm32h7xx_hal_mdma.c ****         (void) HAL_MDMA_Abort(hmdma); /* if timeout then abort the current transfer */
1412:Drivers/STM32H7xx_HAL_Driver/Src/stm32h7xx_hal_mdma.c **** 
1413:Drivers/STM32H7xx_HAL_Driver/Src/stm32h7xx_hal_mdma.c ****         /*
1414:Drivers/STM32H7xx_HAL_Driver/Src/stm32h7xx_hal_mdma.c ****           Note that the Abort function will
1415:Drivers/STM32H7xx_HAL_Driver/Src/stm32h7xx_hal_mdma.c ****             - Clear all transfer flags
1416:Drivers/STM32H7xx_HAL_Driver/Src/stm32h7xx_hal_mdma.c ****             - Unlock
1417:Drivers/STM32H7xx_HAL_Driver/Src/stm32h7xx_hal_mdma.c ****             - Set the State
1418:Drivers/STM32H7xx_HAL_Driver/Src/stm32h7xx_hal_mdma.c ****         */
1419:Drivers/STM32H7xx_HAL_Driver/Src/stm32h7xx_hal_mdma.c **** 
1420:Drivers/STM32H7xx_HAL_Driver/Src/stm32h7xx_hal_mdma.c ****         return HAL_ERROR;
1421:Drivers/STM32H7xx_HAL_Driver/Src/stm32h7xx_hal_mdma.c ****       }
1422:Drivers/STM32H7xx_HAL_Driver/Src/stm32h7xx_hal_mdma.c ****     }
1423:Drivers/STM32H7xx_HAL_Driver/Src/stm32h7xx_hal_mdma.c ****   }
1424:Drivers/STM32H7xx_HAL_Driver/Src/stm32h7xx_hal_mdma.c **** 
1425:Drivers/STM32H7xx_HAL_Driver/Src/stm32h7xx_hal_mdma.c ****   /* Clear the transfer level flag */
1426:Drivers/STM32H7xx_HAL_Driver/Src/stm32h7xx_hal_mdma.c ****   if(CompleteLevel == HAL_MDMA_BUFFER_TRANSFER)
1427:Drivers/STM32H7xx_HAL_Driver/Src/stm32h7xx_hal_mdma.c ****   {
1428:Drivers/STM32H7xx_HAL_Driver/Src/stm32h7xx_hal_mdma.c ****     __HAL_MDMA_CLEAR_FLAG(hmdma, MDMA_FLAG_BFTC);
1429:Drivers/STM32H7xx_HAL_Driver/Src/stm32h7xx_hal_mdma.c **** 
1430:Drivers/STM32H7xx_HAL_Driver/Src/stm32h7xx_hal_mdma.c ****   }
1431:Drivers/STM32H7xx_HAL_Driver/Src/stm32h7xx_hal_mdma.c ****   else if(CompleteLevel == HAL_MDMA_BLOCK_TRANSFER)
1432:Drivers/STM32H7xx_HAL_Driver/Src/stm32h7xx_hal_mdma.c ****   {
1433:Drivers/STM32H7xx_HAL_Driver/Src/stm32h7xx_hal_mdma.c ****     __HAL_MDMA_CLEAR_FLAG(hmdma, (MDMA_FLAG_BFTC | MDMA_FLAG_BT));
1434:Drivers/STM32H7xx_HAL_Driver/Src/stm32h7xx_hal_mdma.c **** 
1435:Drivers/STM32H7xx_HAL_Driver/Src/stm32h7xx_hal_mdma.c ****   }
1436:Drivers/STM32H7xx_HAL_Driver/Src/stm32h7xx_hal_mdma.c ****   else if(CompleteLevel == HAL_MDMA_REPEAT_BLOCK_TRANSFER)
1437:Drivers/STM32H7xx_HAL_Driver/Src/stm32h7xx_hal_mdma.c ****   {
1438:Drivers/STM32H7xx_HAL_Driver/Src/stm32h7xx_hal_mdma.c ****     __HAL_MDMA_CLEAR_FLAG(hmdma, (MDMA_FLAG_BFTC | MDMA_FLAG_BT | MDMA_FLAG_BRT));
1439:Drivers/STM32H7xx_HAL_Driver/Src/stm32h7xx_hal_mdma.c ****   }
1440:Drivers/STM32H7xx_HAL_Driver/Src/stm32h7xx_hal_mdma.c ****   else if(CompleteLevel == HAL_MDMA_FULL_TRANSFER)
1441:Drivers/STM32H7xx_HAL_Driver/Src/stm32h7xx_hal_mdma.c ****   {
1442:Drivers/STM32H7xx_HAL_Driver/Src/stm32h7xx_hal_mdma.c ****     __HAL_MDMA_CLEAR_FLAG(hmdma, (MDMA_FLAG_BRT | MDMA_FLAG_BT | MDMA_FLAG_BFTC | MDMA_FLAG_CTC));
1443:Drivers/STM32H7xx_HAL_Driver/Src/stm32h7xx_hal_mdma.c **** 
1444:Drivers/STM32H7xx_HAL_Driver/Src/stm32h7xx_hal_mdma.c ****     /* Process unlocked */
1445:Drivers/STM32H7xx_HAL_Driver/Src/stm32h7xx_hal_mdma.c ****     __HAL_UNLOCK(hmdma);
1446:Drivers/STM32H7xx_HAL_Driver/Src/stm32h7xx_hal_mdma.c **** 
1447:Drivers/STM32H7xx_HAL_Driver/Src/stm32h7xx_hal_mdma.c ****     hmdma->State = HAL_MDMA_STATE_READY;
1448:Drivers/STM32H7xx_HAL_Driver/Src/stm32h7xx_hal_mdma.c ****   }
1449:Drivers/STM32H7xx_HAL_Driver/Src/stm32h7xx_hal_mdma.c ****   else
1450:Drivers/STM32H7xx_HAL_Driver/Src/stm32h7xx_hal_mdma.c ****   {
1451:Drivers/STM32H7xx_HAL_Driver/Src/stm32h7xx_hal_mdma.c ****     return HAL_ERROR;
1452:Drivers/STM32H7xx_HAL_Driver/Src/stm32h7xx_hal_mdma.c ****   }
1453:Drivers/STM32H7xx_HAL_Driver/Src/stm32h7xx_hal_mdma.c **** 
1454:Drivers/STM32H7xx_HAL_Driver/Src/stm32h7xx_hal_mdma.c ****   return HAL_OK;
1455:Drivers/STM32H7xx_HAL_Driver/Src/stm32h7xx_hal_mdma.c **** }
1456:Drivers/STM32H7xx_HAL_Driver/Src/stm32h7xx_hal_mdma.c **** 
1457:Drivers/STM32H7xx_HAL_Driver/Src/stm32h7xx_hal_mdma.c **** /**
1458:Drivers/STM32H7xx_HAL_Driver/Src/stm32h7xx_hal_mdma.c ****   * @brief  Generate an MDMA SW request trigger to activate the request on the given Channel.
ARM GAS  C:\Users\MadeuxS\AppData\Local\Temp\ccHqWtrv.s 			page 29


1459:Drivers/STM32H7xx_HAL_Driver/Src/stm32h7xx_hal_mdma.c ****   * @param  hmdma:       pointer to a MDMA_HandleTypeDef structure that contains
1460:Drivers/STM32H7xx_HAL_Driver/Src/stm32h7xx_hal_mdma.c ****   *                     the configuration information for the specified MDMA Stream.
1461:Drivers/STM32H7xx_HAL_Driver/Src/stm32h7xx_hal_mdma.c ****   * @retval HAL status
1462:Drivers/STM32H7xx_HAL_Driver/Src/stm32h7xx_hal_mdma.c ****   */
1463:Drivers/STM32H7xx_HAL_Driver/Src/stm32h7xx_hal_mdma.c **** HAL_StatusTypeDef HAL_MDMA_GenerateSWRequest(MDMA_HandleTypeDef *hmdma)
1464:Drivers/STM32H7xx_HAL_Driver/Src/stm32h7xx_hal_mdma.c **** {
1465:Drivers/STM32H7xx_HAL_Driver/Src/stm32h7xx_hal_mdma.c ****   uint32_t request_mode;
1466:Drivers/STM32H7xx_HAL_Driver/Src/stm32h7xx_hal_mdma.c **** 
1467:Drivers/STM32H7xx_HAL_Driver/Src/stm32h7xx_hal_mdma.c ****   /* Check the MDMA peripheral handle */
1468:Drivers/STM32H7xx_HAL_Driver/Src/stm32h7xx_hal_mdma.c ****   if(hmdma == NULL)
1469:Drivers/STM32H7xx_HAL_Driver/Src/stm32h7xx_hal_mdma.c ****   {
1470:Drivers/STM32H7xx_HAL_Driver/Src/stm32h7xx_hal_mdma.c ****     return HAL_ERROR;
1471:Drivers/STM32H7xx_HAL_Driver/Src/stm32h7xx_hal_mdma.c ****   }
1472:Drivers/STM32H7xx_HAL_Driver/Src/stm32h7xx_hal_mdma.c **** 
1473:Drivers/STM32H7xx_HAL_Driver/Src/stm32h7xx_hal_mdma.c ****   /* Get the softawre request mode */
1474:Drivers/STM32H7xx_HAL_Driver/Src/stm32h7xx_hal_mdma.c ****   request_mode = hmdma->Instance->CTCR & MDMA_CTCR_SWRM;
1475:Drivers/STM32H7xx_HAL_Driver/Src/stm32h7xx_hal_mdma.c **** 
1476:Drivers/STM32H7xx_HAL_Driver/Src/stm32h7xx_hal_mdma.c ****   if((hmdma->Instance->CCR &  MDMA_CCR_EN) == 0U)
1477:Drivers/STM32H7xx_HAL_Driver/Src/stm32h7xx_hal_mdma.c ****   {
1478:Drivers/STM32H7xx_HAL_Driver/Src/stm32h7xx_hal_mdma.c ****     /* if no Transfer on going (MDMA enable bit not set) return error */
1479:Drivers/STM32H7xx_HAL_Driver/Src/stm32h7xx_hal_mdma.c ****     hmdma->ErrorCode = HAL_MDMA_ERROR_NO_XFER;
1480:Drivers/STM32H7xx_HAL_Driver/Src/stm32h7xx_hal_mdma.c **** 
1481:Drivers/STM32H7xx_HAL_Driver/Src/stm32h7xx_hal_mdma.c ****     return HAL_ERROR;
1482:Drivers/STM32H7xx_HAL_Driver/Src/stm32h7xx_hal_mdma.c ****   }
1483:Drivers/STM32H7xx_HAL_Driver/Src/stm32h7xx_hal_mdma.c ****   else if(((hmdma->Instance->CISR &  MDMA_CISR_CRQA) != 0U) || (request_mode == 0U))
1484:Drivers/STM32H7xx_HAL_Driver/Src/stm32h7xx_hal_mdma.c ****   {
1485:Drivers/STM32H7xx_HAL_Driver/Src/stm32h7xx_hal_mdma.c ****     /* if an MDMA ongoing request has not yet end or if request mode is not SW request return error
1486:Drivers/STM32H7xx_HAL_Driver/Src/stm32h7xx_hal_mdma.c ****     hmdma->ErrorCode = HAL_MDMA_ERROR_BUSY;
1487:Drivers/STM32H7xx_HAL_Driver/Src/stm32h7xx_hal_mdma.c **** 
1488:Drivers/STM32H7xx_HAL_Driver/Src/stm32h7xx_hal_mdma.c ****     return HAL_ERROR;
1489:Drivers/STM32H7xx_HAL_Driver/Src/stm32h7xx_hal_mdma.c ****   }
1490:Drivers/STM32H7xx_HAL_Driver/Src/stm32h7xx_hal_mdma.c ****   else
1491:Drivers/STM32H7xx_HAL_Driver/Src/stm32h7xx_hal_mdma.c ****   {
1492:Drivers/STM32H7xx_HAL_Driver/Src/stm32h7xx_hal_mdma.c ****     /* Set the SW request bit to activate the request on the Channel */
1493:Drivers/STM32H7xx_HAL_Driver/Src/stm32h7xx_hal_mdma.c ****     hmdma->Instance->CCR |= MDMA_CCR_SWRQ;
1494:Drivers/STM32H7xx_HAL_Driver/Src/stm32h7xx_hal_mdma.c **** 
1495:Drivers/STM32H7xx_HAL_Driver/Src/stm32h7xx_hal_mdma.c ****     return HAL_OK;
1496:Drivers/STM32H7xx_HAL_Driver/Src/stm32h7xx_hal_mdma.c ****   }
1497:Drivers/STM32H7xx_HAL_Driver/Src/stm32h7xx_hal_mdma.c **** }
1498:Drivers/STM32H7xx_HAL_Driver/Src/stm32h7xx_hal_mdma.c **** 
1499:Drivers/STM32H7xx_HAL_Driver/Src/stm32h7xx_hal_mdma.c **** /**
1500:Drivers/STM32H7xx_HAL_Driver/Src/stm32h7xx_hal_mdma.c ****   * @brief  Handles MDMA interrupt request.
1501:Drivers/STM32H7xx_HAL_Driver/Src/stm32h7xx_hal_mdma.c ****   * @param  hmdma: pointer to a MDMA_HandleTypeDef structure that contains
1502:Drivers/STM32H7xx_HAL_Driver/Src/stm32h7xx_hal_mdma.c ****   *               the configuration information for the specified MDMA Channel.
1503:Drivers/STM32H7xx_HAL_Driver/Src/stm32h7xx_hal_mdma.c ****   * @retval None
1504:Drivers/STM32H7xx_HAL_Driver/Src/stm32h7xx_hal_mdma.c ****   */
1505:Drivers/STM32H7xx_HAL_Driver/Src/stm32h7xx_hal_mdma.c **** void HAL_MDMA_IRQHandler(MDMA_HandleTypeDef *hmdma)
1506:Drivers/STM32H7xx_HAL_Driver/Src/stm32h7xx_hal_mdma.c **** {
1507:Drivers/STM32H7xx_HAL_Driver/Src/stm32h7xx_hal_mdma.c ****   __IO uint32_t count = 0;
1508:Drivers/STM32H7xx_HAL_Driver/Src/stm32h7xx_hal_mdma.c ****   uint32_t timeout = SystemCoreClock / 9600U;
1509:Drivers/STM32H7xx_HAL_Driver/Src/stm32h7xx_hal_mdma.c **** 
1510:Drivers/STM32H7xx_HAL_Driver/Src/stm32h7xx_hal_mdma.c ****   uint32_t generalIntFlag, errorFlag;
1511:Drivers/STM32H7xx_HAL_Driver/Src/stm32h7xx_hal_mdma.c **** 
1512:Drivers/STM32H7xx_HAL_Driver/Src/stm32h7xx_hal_mdma.c ****   /* General Interrupt Flag management ****************************************/
1513:Drivers/STM32H7xx_HAL_Driver/Src/stm32h7xx_hal_mdma.c ****   generalIntFlag =  1UL << ((((uint32_t)hmdma->Instance - (uint32_t)(MDMA_Channel0))/HAL_MDMA_CHANN
1514:Drivers/STM32H7xx_HAL_Driver/Src/stm32h7xx_hal_mdma.c ****   if((MDMA->GISR0 & generalIntFlag) == 0U)
1515:Drivers/STM32H7xx_HAL_Driver/Src/stm32h7xx_hal_mdma.c ****   {
ARM GAS  C:\Users\MadeuxS\AppData\Local\Temp\ccHqWtrv.s 			page 30


1516:Drivers/STM32H7xx_HAL_Driver/Src/stm32h7xx_hal_mdma.c ****     return; /* the  General interrupt flag for the current channel is down , nothing to do */
1517:Drivers/STM32H7xx_HAL_Driver/Src/stm32h7xx_hal_mdma.c ****   }
1518:Drivers/STM32H7xx_HAL_Driver/Src/stm32h7xx_hal_mdma.c **** 
1519:Drivers/STM32H7xx_HAL_Driver/Src/stm32h7xx_hal_mdma.c ****   /* Transfer Error Interrupt management ***************************************/
1520:Drivers/STM32H7xx_HAL_Driver/Src/stm32h7xx_hal_mdma.c ****   if((__HAL_MDMA_GET_FLAG(hmdma, MDMA_FLAG_TE) != 0U))
1521:Drivers/STM32H7xx_HAL_Driver/Src/stm32h7xx_hal_mdma.c ****   {
1522:Drivers/STM32H7xx_HAL_Driver/Src/stm32h7xx_hal_mdma.c ****     if(__HAL_MDMA_GET_IT_SOURCE(hmdma, MDMA_IT_TE) != 0U)
1523:Drivers/STM32H7xx_HAL_Driver/Src/stm32h7xx_hal_mdma.c ****     {
1524:Drivers/STM32H7xx_HAL_Driver/Src/stm32h7xx_hal_mdma.c ****       /* Disable the transfer error interrupt */
1525:Drivers/STM32H7xx_HAL_Driver/Src/stm32h7xx_hal_mdma.c ****       __HAL_MDMA_DISABLE_IT(hmdma, MDMA_IT_TE);
1526:Drivers/STM32H7xx_HAL_Driver/Src/stm32h7xx_hal_mdma.c **** 
1527:Drivers/STM32H7xx_HAL_Driver/Src/stm32h7xx_hal_mdma.c ****       /* Get the transfer error source flag */
1528:Drivers/STM32H7xx_HAL_Driver/Src/stm32h7xx_hal_mdma.c ****       errorFlag = hmdma->Instance->CESR;
1529:Drivers/STM32H7xx_HAL_Driver/Src/stm32h7xx_hal_mdma.c **** 
1530:Drivers/STM32H7xx_HAL_Driver/Src/stm32h7xx_hal_mdma.c ****       if((errorFlag & MDMA_CESR_TED) == 0U)
1531:Drivers/STM32H7xx_HAL_Driver/Src/stm32h7xx_hal_mdma.c ****       {
1532:Drivers/STM32H7xx_HAL_Driver/Src/stm32h7xx_hal_mdma.c ****         /* Update error code : Read Transfer error  */
1533:Drivers/STM32H7xx_HAL_Driver/Src/stm32h7xx_hal_mdma.c ****         hmdma->ErrorCode |= HAL_MDMA_ERROR_READ_XFER;
1534:Drivers/STM32H7xx_HAL_Driver/Src/stm32h7xx_hal_mdma.c ****       }
1535:Drivers/STM32H7xx_HAL_Driver/Src/stm32h7xx_hal_mdma.c ****       else
1536:Drivers/STM32H7xx_HAL_Driver/Src/stm32h7xx_hal_mdma.c ****       {
1537:Drivers/STM32H7xx_HAL_Driver/Src/stm32h7xx_hal_mdma.c ****         /* Update error code : Write Transfer error */
1538:Drivers/STM32H7xx_HAL_Driver/Src/stm32h7xx_hal_mdma.c ****         hmdma->ErrorCode |= HAL_MDMA_ERROR_WRITE_XFER;
1539:Drivers/STM32H7xx_HAL_Driver/Src/stm32h7xx_hal_mdma.c ****       }
1540:Drivers/STM32H7xx_HAL_Driver/Src/stm32h7xx_hal_mdma.c **** 
1541:Drivers/STM32H7xx_HAL_Driver/Src/stm32h7xx_hal_mdma.c ****       if((errorFlag & MDMA_CESR_TEMD) != 0U)
1542:Drivers/STM32H7xx_HAL_Driver/Src/stm32h7xx_hal_mdma.c ****       {
1543:Drivers/STM32H7xx_HAL_Driver/Src/stm32h7xx_hal_mdma.c ****         /* Update error code : Error Mask Data */
1544:Drivers/STM32H7xx_HAL_Driver/Src/stm32h7xx_hal_mdma.c ****         hmdma->ErrorCode |= HAL_MDMA_ERROR_MASK_DATA;
1545:Drivers/STM32H7xx_HAL_Driver/Src/stm32h7xx_hal_mdma.c ****       }
1546:Drivers/STM32H7xx_HAL_Driver/Src/stm32h7xx_hal_mdma.c **** 
1547:Drivers/STM32H7xx_HAL_Driver/Src/stm32h7xx_hal_mdma.c ****       if((errorFlag & MDMA_CESR_TELD) != 0U)
1548:Drivers/STM32H7xx_HAL_Driver/Src/stm32h7xx_hal_mdma.c ****       {
1549:Drivers/STM32H7xx_HAL_Driver/Src/stm32h7xx_hal_mdma.c ****         /* Update error code : Error Linked list */
1550:Drivers/STM32H7xx_HAL_Driver/Src/stm32h7xx_hal_mdma.c ****         hmdma->ErrorCode |= HAL_MDMA_ERROR_LINKED_LIST;
1551:Drivers/STM32H7xx_HAL_Driver/Src/stm32h7xx_hal_mdma.c ****       }
1552:Drivers/STM32H7xx_HAL_Driver/Src/stm32h7xx_hal_mdma.c **** 
1553:Drivers/STM32H7xx_HAL_Driver/Src/stm32h7xx_hal_mdma.c ****       if((errorFlag & MDMA_CESR_ASE) != 0U)
1554:Drivers/STM32H7xx_HAL_Driver/Src/stm32h7xx_hal_mdma.c ****       {
1555:Drivers/STM32H7xx_HAL_Driver/Src/stm32h7xx_hal_mdma.c ****         /* Update error code : Address/Size alignment error */
1556:Drivers/STM32H7xx_HAL_Driver/Src/stm32h7xx_hal_mdma.c ****         hmdma->ErrorCode |= HAL_MDMA_ERROR_ALIGNMENT;
1557:Drivers/STM32H7xx_HAL_Driver/Src/stm32h7xx_hal_mdma.c ****       }
1558:Drivers/STM32H7xx_HAL_Driver/Src/stm32h7xx_hal_mdma.c **** 
1559:Drivers/STM32H7xx_HAL_Driver/Src/stm32h7xx_hal_mdma.c ****       if((errorFlag & MDMA_CESR_BSE) != 0U)
1560:Drivers/STM32H7xx_HAL_Driver/Src/stm32h7xx_hal_mdma.c ****       {
1561:Drivers/STM32H7xx_HAL_Driver/Src/stm32h7xx_hal_mdma.c ****         /* Update error code : Block Size error error */
1562:Drivers/STM32H7xx_HAL_Driver/Src/stm32h7xx_hal_mdma.c ****         hmdma->ErrorCode |= HAL_MDMA_ERROR_BLOCK_SIZE;
1563:Drivers/STM32H7xx_HAL_Driver/Src/stm32h7xx_hal_mdma.c ****       }
1564:Drivers/STM32H7xx_HAL_Driver/Src/stm32h7xx_hal_mdma.c **** 
1565:Drivers/STM32H7xx_HAL_Driver/Src/stm32h7xx_hal_mdma.c ****       /* Clear the transfer error flags */
1566:Drivers/STM32H7xx_HAL_Driver/Src/stm32h7xx_hal_mdma.c ****       __HAL_MDMA_CLEAR_FLAG(hmdma, MDMA_FLAG_TE);
1567:Drivers/STM32H7xx_HAL_Driver/Src/stm32h7xx_hal_mdma.c ****     }
1568:Drivers/STM32H7xx_HAL_Driver/Src/stm32h7xx_hal_mdma.c ****   }
1569:Drivers/STM32H7xx_HAL_Driver/Src/stm32h7xx_hal_mdma.c **** 
1570:Drivers/STM32H7xx_HAL_Driver/Src/stm32h7xx_hal_mdma.c ****   /* Buffer Transfer Complete Interrupt management ******************************/
1571:Drivers/STM32H7xx_HAL_Driver/Src/stm32h7xx_hal_mdma.c ****   if((__HAL_MDMA_GET_FLAG(hmdma, MDMA_FLAG_BFTC) != 0U))
1572:Drivers/STM32H7xx_HAL_Driver/Src/stm32h7xx_hal_mdma.c ****   {
ARM GAS  C:\Users\MadeuxS\AppData\Local\Temp\ccHqWtrv.s 			page 31


1573:Drivers/STM32H7xx_HAL_Driver/Src/stm32h7xx_hal_mdma.c ****     if(__HAL_MDMA_GET_IT_SOURCE(hmdma, MDMA_IT_BFTC) != 0U)
1574:Drivers/STM32H7xx_HAL_Driver/Src/stm32h7xx_hal_mdma.c ****     {
1575:Drivers/STM32H7xx_HAL_Driver/Src/stm32h7xx_hal_mdma.c ****       /* Clear the buffer transfer complete flag */
1576:Drivers/STM32H7xx_HAL_Driver/Src/stm32h7xx_hal_mdma.c ****       __HAL_MDMA_CLEAR_FLAG(hmdma, MDMA_FLAG_BFTC);
1577:Drivers/STM32H7xx_HAL_Driver/Src/stm32h7xx_hal_mdma.c **** 
1578:Drivers/STM32H7xx_HAL_Driver/Src/stm32h7xx_hal_mdma.c ****       if(hmdma->XferBufferCpltCallback != NULL)
1579:Drivers/STM32H7xx_HAL_Driver/Src/stm32h7xx_hal_mdma.c ****       {
1580:Drivers/STM32H7xx_HAL_Driver/Src/stm32h7xx_hal_mdma.c ****         /* Buffer transfer callback */
1581:Drivers/STM32H7xx_HAL_Driver/Src/stm32h7xx_hal_mdma.c ****         hmdma->XferBufferCpltCallback(hmdma);
1582:Drivers/STM32H7xx_HAL_Driver/Src/stm32h7xx_hal_mdma.c ****       }
1583:Drivers/STM32H7xx_HAL_Driver/Src/stm32h7xx_hal_mdma.c ****     }
1584:Drivers/STM32H7xx_HAL_Driver/Src/stm32h7xx_hal_mdma.c ****   }
1585:Drivers/STM32H7xx_HAL_Driver/Src/stm32h7xx_hal_mdma.c **** 
1586:Drivers/STM32H7xx_HAL_Driver/Src/stm32h7xx_hal_mdma.c ****   /* Block Transfer Complete Interrupt management ******************************/
1587:Drivers/STM32H7xx_HAL_Driver/Src/stm32h7xx_hal_mdma.c ****   if((__HAL_MDMA_GET_FLAG(hmdma, MDMA_FLAG_BT) != 0U))
1588:Drivers/STM32H7xx_HAL_Driver/Src/stm32h7xx_hal_mdma.c ****   {
1589:Drivers/STM32H7xx_HAL_Driver/Src/stm32h7xx_hal_mdma.c ****     if(__HAL_MDMA_GET_IT_SOURCE(hmdma, MDMA_IT_BT) != 0U)
1590:Drivers/STM32H7xx_HAL_Driver/Src/stm32h7xx_hal_mdma.c ****     {
1591:Drivers/STM32H7xx_HAL_Driver/Src/stm32h7xx_hal_mdma.c ****       /* Clear the block transfer complete flag */
1592:Drivers/STM32H7xx_HAL_Driver/Src/stm32h7xx_hal_mdma.c ****       __HAL_MDMA_CLEAR_FLAG(hmdma, MDMA_FLAG_BT);
1593:Drivers/STM32H7xx_HAL_Driver/Src/stm32h7xx_hal_mdma.c **** 
1594:Drivers/STM32H7xx_HAL_Driver/Src/stm32h7xx_hal_mdma.c ****       if(hmdma->XferBlockCpltCallback != NULL)
1595:Drivers/STM32H7xx_HAL_Driver/Src/stm32h7xx_hal_mdma.c ****       {
1596:Drivers/STM32H7xx_HAL_Driver/Src/stm32h7xx_hal_mdma.c ****         /* Block transfer callback */
1597:Drivers/STM32H7xx_HAL_Driver/Src/stm32h7xx_hal_mdma.c ****         hmdma->XferBlockCpltCallback(hmdma);
1598:Drivers/STM32H7xx_HAL_Driver/Src/stm32h7xx_hal_mdma.c ****       }
1599:Drivers/STM32H7xx_HAL_Driver/Src/stm32h7xx_hal_mdma.c ****     }
1600:Drivers/STM32H7xx_HAL_Driver/Src/stm32h7xx_hal_mdma.c ****   }
1601:Drivers/STM32H7xx_HAL_Driver/Src/stm32h7xx_hal_mdma.c **** 
1602:Drivers/STM32H7xx_HAL_Driver/Src/stm32h7xx_hal_mdma.c ****   /* Repeated Block Transfer Complete Interrupt management ******************************/
1603:Drivers/STM32H7xx_HAL_Driver/Src/stm32h7xx_hal_mdma.c ****   if((__HAL_MDMA_GET_FLAG(hmdma, MDMA_FLAG_BRT) != 0U))
1604:Drivers/STM32H7xx_HAL_Driver/Src/stm32h7xx_hal_mdma.c ****   {
1605:Drivers/STM32H7xx_HAL_Driver/Src/stm32h7xx_hal_mdma.c ****     if(__HAL_MDMA_GET_IT_SOURCE(hmdma, MDMA_IT_BRT) != 0U)
1606:Drivers/STM32H7xx_HAL_Driver/Src/stm32h7xx_hal_mdma.c ****     {
1607:Drivers/STM32H7xx_HAL_Driver/Src/stm32h7xx_hal_mdma.c ****       /* Clear the repeat block transfer complete flag */
1608:Drivers/STM32H7xx_HAL_Driver/Src/stm32h7xx_hal_mdma.c ****       __HAL_MDMA_CLEAR_FLAG(hmdma, MDMA_FLAG_BRT);
1609:Drivers/STM32H7xx_HAL_Driver/Src/stm32h7xx_hal_mdma.c **** 
1610:Drivers/STM32H7xx_HAL_Driver/Src/stm32h7xx_hal_mdma.c ****       if(hmdma->XferRepeatBlockCpltCallback != NULL)
1611:Drivers/STM32H7xx_HAL_Driver/Src/stm32h7xx_hal_mdma.c ****       {
1612:Drivers/STM32H7xx_HAL_Driver/Src/stm32h7xx_hal_mdma.c ****         /* Repeated Block transfer callback */
1613:Drivers/STM32H7xx_HAL_Driver/Src/stm32h7xx_hal_mdma.c ****         hmdma->XferRepeatBlockCpltCallback(hmdma);
1614:Drivers/STM32H7xx_HAL_Driver/Src/stm32h7xx_hal_mdma.c ****       }
1615:Drivers/STM32H7xx_HAL_Driver/Src/stm32h7xx_hal_mdma.c ****     }
1616:Drivers/STM32H7xx_HAL_Driver/Src/stm32h7xx_hal_mdma.c ****   }
1617:Drivers/STM32H7xx_HAL_Driver/Src/stm32h7xx_hal_mdma.c **** 
1618:Drivers/STM32H7xx_HAL_Driver/Src/stm32h7xx_hal_mdma.c ****   /* Channel Transfer Complete Interrupt management ***********************************/
1619:Drivers/STM32H7xx_HAL_Driver/Src/stm32h7xx_hal_mdma.c ****   if((__HAL_MDMA_GET_FLAG(hmdma, MDMA_FLAG_CTC) != 0U))
1620:Drivers/STM32H7xx_HAL_Driver/Src/stm32h7xx_hal_mdma.c ****   {
1621:Drivers/STM32H7xx_HAL_Driver/Src/stm32h7xx_hal_mdma.c ****     if(__HAL_MDMA_GET_IT_SOURCE(hmdma, MDMA_IT_CTC) != 0U)
1622:Drivers/STM32H7xx_HAL_Driver/Src/stm32h7xx_hal_mdma.c ****     {
1623:Drivers/STM32H7xx_HAL_Driver/Src/stm32h7xx_hal_mdma.c ****       /* Disable all the transfer interrupts */
1624:Drivers/STM32H7xx_HAL_Driver/Src/stm32h7xx_hal_mdma.c ****       __HAL_MDMA_DISABLE_IT(hmdma, (MDMA_IT_TE | MDMA_IT_CTC | MDMA_IT_BT | MDMA_IT_BRT | MDMA_IT_B
1625:Drivers/STM32H7xx_HAL_Driver/Src/stm32h7xx_hal_mdma.c **** 
1626:Drivers/STM32H7xx_HAL_Driver/Src/stm32h7xx_hal_mdma.c ****       if(HAL_MDMA_STATE_ABORT == hmdma->State)
1627:Drivers/STM32H7xx_HAL_Driver/Src/stm32h7xx_hal_mdma.c ****       {
1628:Drivers/STM32H7xx_HAL_Driver/Src/stm32h7xx_hal_mdma.c ****         /* Process Unlocked */
1629:Drivers/STM32H7xx_HAL_Driver/Src/stm32h7xx_hal_mdma.c ****         __HAL_UNLOCK(hmdma);
ARM GAS  C:\Users\MadeuxS\AppData\Local\Temp\ccHqWtrv.s 			page 32


1630:Drivers/STM32H7xx_HAL_Driver/Src/stm32h7xx_hal_mdma.c **** 
1631:Drivers/STM32H7xx_HAL_Driver/Src/stm32h7xx_hal_mdma.c ****         /* Change the DMA state */
1632:Drivers/STM32H7xx_HAL_Driver/Src/stm32h7xx_hal_mdma.c ****         hmdma->State = HAL_MDMA_STATE_READY;
1633:Drivers/STM32H7xx_HAL_Driver/Src/stm32h7xx_hal_mdma.c **** 
1634:Drivers/STM32H7xx_HAL_Driver/Src/stm32h7xx_hal_mdma.c ****         if(hmdma->XferAbortCallback != NULL)
1635:Drivers/STM32H7xx_HAL_Driver/Src/stm32h7xx_hal_mdma.c ****         {
1636:Drivers/STM32H7xx_HAL_Driver/Src/stm32h7xx_hal_mdma.c ****           hmdma->XferAbortCallback(hmdma);
1637:Drivers/STM32H7xx_HAL_Driver/Src/stm32h7xx_hal_mdma.c ****         }
1638:Drivers/STM32H7xx_HAL_Driver/Src/stm32h7xx_hal_mdma.c ****         return;
1639:Drivers/STM32H7xx_HAL_Driver/Src/stm32h7xx_hal_mdma.c ****       }
1640:Drivers/STM32H7xx_HAL_Driver/Src/stm32h7xx_hal_mdma.c **** 
1641:Drivers/STM32H7xx_HAL_Driver/Src/stm32h7xx_hal_mdma.c ****       /* Clear the Channel Transfer Complete flag */
1642:Drivers/STM32H7xx_HAL_Driver/Src/stm32h7xx_hal_mdma.c ****       __HAL_MDMA_CLEAR_FLAG(hmdma, MDMA_FLAG_CTC);
1643:Drivers/STM32H7xx_HAL_Driver/Src/stm32h7xx_hal_mdma.c **** 
1644:Drivers/STM32H7xx_HAL_Driver/Src/stm32h7xx_hal_mdma.c ****       /* Process Unlocked */
1645:Drivers/STM32H7xx_HAL_Driver/Src/stm32h7xx_hal_mdma.c ****       __HAL_UNLOCK(hmdma);
1646:Drivers/STM32H7xx_HAL_Driver/Src/stm32h7xx_hal_mdma.c **** 
1647:Drivers/STM32H7xx_HAL_Driver/Src/stm32h7xx_hal_mdma.c ****       /* Change MDMA peripheral state */
1648:Drivers/STM32H7xx_HAL_Driver/Src/stm32h7xx_hal_mdma.c ****       hmdma->State = HAL_MDMA_STATE_READY;
1649:Drivers/STM32H7xx_HAL_Driver/Src/stm32h7xx_hal_mdma.c **** 
1650:Drivers/STM32H7xx_HAL_Driver/Src/stm32h7xx_hal_mdma.c ****       if(hmdma->XferCpltCallback != NULL)
1651:Drivers/STM32H7xx_HAL_Driver/Src/stm32h7xx_hal_mdma.c ****       {
1652:Drivers/STM32H7xx_HAL_Driver/Src/stm32h7xx_hal_mdma.c ****         /* Channel Transfer Complete callback */
1653:Drivers/STM32H7xx_HAL_Driver/Src/stm32h7xx_hal_mdma.c ****         hmdma->XferCpltCallback(hmdma);
1654:Drivers/STM32H7xx_HAL_Driver/Src/stm32h7xx_hal_mdma.c ****       }
1655:Drivers/STM32H7xx_HAL_Driver/Src/stm32h7xx_hal_mdma.c ****     }
1656:Drivers/STM32H7xx_HAL_Driver/Src/stm32h7xx_hal_mdma.c ****   }
1657:Drivers/STM32H7xx_HAL_Driver/Src/stm32h7xx_hal_mdma.c **** 
1658:Drivers/STM32H7xx_HAL_Driver/Src/stm32h7xx_hal_mdma.c ****   /* manage error case */
1659:Drivers/STM32H7xx_HAL_Driver/Src/stm32h7xx_hal_mdma.c ****   if(hmdma->ErrorCode != HAL_MDMA_ERROR_NONE)
1660:Drivers/STM32H7xx_HAL_Driver/Src/stm32h7xx_hal_mdma.c ****   {
1661:Drivers/STM32H7xx_HAL_Driver/Src/stm32h7xx_hal_mdma.c ****     hmdma->State = HAL_MDMA_STATE_ABORT;
1662:Drivers/STM32H7xx_HAL_Driver/Src/stm32h7xx_hal_mdma.c **** 
1663:Drivers/STM32H7xx_HAL_Driver/Src/stm32h7xx_hal_mdma.c ****     /* Disable the channel */
1664:Drivers/STM32H7xx_HAL_Driver/Src/stm32h7xx_hal_mdma.c ****     __HAL_MDMA_DISABLE(hmdma);
1665:Drivers/STM32H7xx_HAL_Driver/Src/stm32h7xx_hal_mdma.c **** 
1666:Drivers/STM32H7xx_HAL_Driver/Src/stm32h7xx_hal_mdma.c ****     do
1667:Drivers/STM32H7xx_HAL_Driver/Src/stm32h7xx_hal_mdma.c ****     {
1668:Drivers/STM32H7xx_HAL_Driver/Src/stm32h7xx_hal_mdma.c ****       if (++count > timeout)
1669:Drivers/STM32H7xx_HAL_Driver/Src/stm32h7xx_hal_mdma.c ****       {
1670:Drivers/STM32H7xx_HAL_Driver/Src/stm32h7xx_hal_mdma.c ****         break;
1671:Drivers/STM32H7xx_HAL_Driver/Src/stm32h7xx_hal_mdma.c ****       }
1672:Drivers/STM32H7xx_HAL_Driver/Src/stm32h7xx_hal_mdma.c ****     }
1673:Drivers/STM32H7xx_HAL_Driver/Src/stm32h7xx_hal_mdma.c ****     while((hmdma->Instance->CCR & MDMA_CCR_EN) != 0U);
1674:Drivers/STM32H7xx_HAL_Driver/Src/stm32h7xx_hal_mdma.c **** 
1675:Drivers/STM32H7xx_HAL_Driver/Src/stm32h7xx_hal_mdma.c ****     /* Process Unlocked */
1676:Drivers/STM32H7xx_HAL_Driver/Src/stm32h7xx_hal_mdma.c ****     __HAL_UNLOCK(hmdma);
1677:Drivers/STM32H7xx_HAL_Driver/Src/stm32h7xx_hal_mdma.c **** 
1678:Drivers/STM32H7xx_HAL_Driver/Src/stm32h7xx_hal_mdma.c ****     if((hmdma->Instance->CCR & MDMA_CCR_EN) != 0U)
1679:Drivers/STM32H7xx_HAL_Driver/Src/stm32h7xx_hal_mdma.c ****     {
1680:Drivers/STM32H7xx_HAL_Driver/Src/stm32h7xx_hal_mdma.c ****       /* Change the MDMA state to error if MDMA disable fails */
1681:Drivers/STM32H7xx_HAL_Driver/Src/stm32h7xx_hal_mdma.c ****       hmdma->State = HAL_MDMA_STATE_ERROR;
1682:Drivers/STM32H7xx_HAL_Driver/Src/stm32h7xx_hal_mdma.c ****     }
1683:Drivers/STM32H7xx_HAL_Driver/Src/stm32h7xx_hal_mdma.c ****     else
1684:Drivers/STM32H7xx_HAL_Driver/Src/stm32h7xx_hal_mdma.c ****     {
1685:Drivers/STM32H7xx_HAL_Driver/Src/stm32h7xx_hal_mdma.c ****       /* Change the MDMA state to Ready if MDMA disable success */
1686:Drivers/STM32H7xx_HAL_Driver/Src/stm32h7xx_hal_mdma.c ****       hmdma->State = HAL_MDMA_STATE_READY;
ARM GAS  C:\Users\MadeuxS\AppData\Local\Temp\ccHqWtrv.s 			page 33


1687:Drivers/STM32H7xx_HAL_Driver/Src/stm32h7xx_hal_mdma.c ****     }
1688:Drivers/STM32H7xx_HAL_Driver/Src/stm32h7xx_hal_mdma.c **** 
1689:Drivers/STM32H7xx_HAL_Driver/Src/stm32h7xx_hal_mdma.c **** 
1690:Drivers/STM32H7xx_HAL_Driver/Src/stm32h7xx_hal_mdma.c ****     if (hmdma->XferErrorCallback != NULL)
1691:Drivers/STM32H7xx_HAL_Driver/Src/stm32h7xx_hal_mdma.c ****     {
1692:Drivers/STM32H7xx_HAL_Driver/Src/stm32h7xx_hal_mdma.c ****       /* Transfer error callback */
1693:Drivers/STM32H7xx_HAL_Driver/Src/stm32h7xx_hal_mdma.c ****       hmdma->XferErrorCallback(hmdma);
1694:Drivers/STM32H7xx_HAL_Driver/Src/stm32h7xx_hal_mdma.c ****     }
1695:Drivers/STM32H7xx_HAL_Driver/Src/stm32h7xx_hal_mdma.c ****   }
1696:Drivers/STM32H7xx_HAL_Driver/Src/stm32h7xx_hal_mdma.c **** }
1697:Drivers/STM32H7xx_HAL_Driver/Src/stm32h7xx_hal_mdma.c **** 
1698:Drivers/STM32H7xx_HAL_Driver/Src/stm32h7xx_hal_mdma.c **** /**
1699:Drivers/STM32H7xx_HAL_Driver/Src/stm32h7xx_hal_mdma.c ****   * @}
1700:Drivers/STM32H7xx_HAL_Driver/Src/stm32h7xx_hal_mdma.c ****   */
1701:Drivers/STM32H7xx_HAL_Driver/Src/stm32h7xx_hal_mdma.c **** 
1702:Drivers/STM32H7xx_HAL_Driver/Src/stm32h7xx_hal_mdma.c **** /** @addtogroup MDMA_Exported_Functions_Group4
1703:Drivers/STM32H7xx_HAL_Driver/Src/stm32h7xx_hal_mdma.c ****  *
1704:Drivers/STM32H7xx_HAL_Driver/Src/stm32h7xx_hal_mdma.c **** @verbatim
1705:Drivers/STM32H7xx_HAL_Driver/Src/stm32h7xx_hal_mdma.c ****  ===============================================================================
1706:Drivers/STM32H7xx_HAL_Driver/Src/stm32h7xx_hal_mdma.c ****                     ##### State and Errors functions #####
1707:Drivers/STM32H7xx_HAL_Driver/Src/stm32h7xx_hal_mdma.c ****  ===============================================================================
1708:Drivers/STM32H7xx_HAL_Driver/Src/stm32h7xx_hal_mdma.c ****     [..]
1709:Drivers/STM32H7xx_HAL_Driver/Src/stm32h7xx_hal_mdma.c ****     This subsection provides functions allowing to
1710:Drivers/STM32H7xx_HAL_Driver/Src/stm32h7xx_hal_mdma.c ****       (+) Check the MDMA state
1711:Drivers/STM32H7xx_HAL_Driver/Src/stm32h7xx_hal_mdma.c ****       (+) Get error code
1712:Drivers/STM32H7xx_HAL_Driver/Src/stm32h7xx_hal_mdma.c **** 
1713:Drivers/STM32H7xx_HAL_Driver/Src/stm32h7xx_hal_mdma.c **** @endverbatim
1714:Drivers/STM32H7xx_HAL_Driver/Src/stm32h7xx_hal_mdma.c ****   * @{
1715:Drivers/STM32H7xx_HAL_Driver/Src/stm32h7xx_hal_mdma.c ****   */
1716:Drivers/STM32H7xx_HAL_Driver/Src/stm32h7xx_hal_mdma.c **** 
1717:Drivers/STM32H7xx_HAL_Driver/Src/stm32h7xx_hal_mdma.c **** /**
1718:Drivers/STM32H7xx_HAL_Driver/Src/stm32h7xx_hal_mdma.c ****   * @brief  Returns the MDMA state.
1719:Drivers/STM32H7xx_HAL_Driver/Src/stm32h7xx_hal_mdma.c ****   * @param  hmdma: pointer to a MDMA_HandleTypeDef structure that contains
1720:Drivers/STM32H7xx_HAL_Driver/Src/stm32h7xx_hal_mdma.c ****   *               the configuration information for the specified MDMA Channel.
1721:Drivers/STM32H7xx_HAL_Driver/Src/stm32h7xx_hal_mdma.c ****   * @retval HAL state
1722:Drivers/STM32H7xx_HAL_Driver/Src/stm32h7xx_hal_mdma.c ****   */
1723:Drivers/STM32H7xx_HAL_Driver/Src/stm32h7xx_hal_mdma.c **** HAL_MDMA_StateTypeDef HAL_MDMA_GetState(MDMA_HandleTypeDef *hmdma)
1724:Drivers/STM32H7xx_HAL_Driver/Src/stm32h7xx_hal_mdma.c **** {
1725:Drivers/STM32H7xx_HAL_Driver/Src/stm32h7xx_hal_mdma.c ****   return hmdma->State;
1726:Drivers/STM32H7xx_HAL_Driver/Src/stm32h7xx_hal_mdma.c **** }
1727:Drivers/STM32H7xx_HAL_Driver/Src/stm32h7xx_hal_mdma.c **** 
1728:Drivers/STM32H7xx_HAL_Driver/Src/stm32h7xx_hal_mdma.c **** /**
1729:Drivers/STM32H7xx_HAL_Driver/Src/stm32h7xx_hal_mdma.c ****   * @brief  Return the MDMA error code
1730:Drivers/STM32H7xx_HAL_Driver/Src/stm32h7xx_hal_mdma.c ****   * @param  hmdma : pointer to a MDMA_HandleTypeDef structure that contains
1731:Drivers/STM32H7xx_HAL_Driver/Src/stm32h7xx_hal_mdma.c ****   *              the configuration information for the specified MDMA Channel.
1732:Drivers/STM32H7xx_HAL_Driver/Src/stm32h7xx_hal_mdma.c ****   * @retval MDMA Error Code
1733:Drivers/STM32H7xx_HAL_Driver/Src/stm32h7xx_hal_mdma.c ****   */
1734:Drivers/STM32H7xx_HAL_Driver/Src/stm32h7xx_hal_mdma.c **** uint32_t HAL_MDMA_GetError(MDMA_HandleTypeDef *hmdma)
1735:Drivers/STM32H7xx_HAL_Driver/Src/stm32h7xx_hal_mdma.c **** {
1736:Drivers/STM32H7xx_HAL_Driver/Src/stm32h7xx_hal_mdma.c ****   return hmdma->ErrorCode;
1737:Drivers/STM32H7xx_HAL_Driver/Src/stm32h7xx_hal_mdma.c **** }
1738:Drivers/STM32H7xx_HAL_Driver/Src/stm32h7xx_hal_mdma.c **** 
1739:Drivers/STM32H7xx_HAL_Driver/Src/stm32h7xx_hal_mdma.c **** /**
1740:Drivers/STM32H7xx_HAL_Driver/Src/stm32h7xx_hal_mdma.c ****   * @}
1741:Drivers/STM32H7xx_HAL_Driver/Src/stm32h7xx_hal_mdma.c ****   */
1742:Drivers/STM32H7xx_HAL_Driver/Src/stm32h7xx_hal_mdma.c **** 
1743:Drivers/STM32H7xx_HAL_Driver/Src/stm32h7xx_hal_mdma.c **** /**
ARM GAS  C:\Users\MadeuxS\AppData\Local\Temp\ccHqWtrv.s 			page 34


1744:Drivers/STM32H7xx_HAL_Driver/Src/stm32h7xx_hal_mdma.c ****   * @}
1745:Drivers/STM32H7xx_HAL_Driver/Src/stm32h7xx_hal_mdma.c ****   */
1746:Drivers/STM32H7xx_HAL_Driver/Src/stm32h7xx_hal_mdma.c **** 
1747:Drivers/STM32H7xx_HAL_Driver/Src/stm32h7xx_hal_mdma.c **** /** @addtogroup MDMA_Private_Functions
1748:Drivers/STM32H7xx_HAL_Driver/Src/stm32h7xx_hal_mdma.c ****   * @{
1749:Drivers/STM32H7xx_HAL_Driver/Src/stm32h7xx_hal_mdma.c ****   */
1750:Drivers/STM32H7xx_HAL_Driver/Src/stm32h7xx_hal_mdma.c **** 
1751:Drivers/STM32H7xx_HAL_Driver/Src/stm32h7xx_hal_mdma.c **** /**
1752:Drivers/STM32H7xx_HAL_Driver/Src/stm32h7xx_hal_mdma.c ****   * @brief  Sets the MDMA Transfer parameter.
1753:Drivers/STM32H7xx_HAL_Driver/Src/stm32h7xx_hal_mdma.c ****   * @param  hmdma:       pointer to a MDMA_HandleTypeDef structure that contains
1754:Drivers/STM32H7xx_HAL_Driver/Src/stm32h7xx_hal_mdma.c ****   *                     the configuration information for the specified MDMA Channel.
1755:Drivers/STM32H7xx_HAL_Driver/Src/stm32h7xx_hal_mdma.c ****   * @param  SrcAddress: The source memory Buffer address
1756:Drivers/STM32H7xx_HAL_Driver/Src/stm32h7xx_hal_mdma.c ****   * @param  DstAddress: The destination memory Buffer address
1757:Drivers/STM32H7xx_HAL_Driver/Src/stm32h7xx_hal_mdma.c ****   * @param  BlockDataLength : The length of a block transfer in bytes
1758:Drivers/STM32H7xx_HAL_Driver/Src/stm32h7xx_hal_mdma.c ****   * @param  BlockCount: The number of blocks to be transferred
1759:Drivers/STM32H7xx_HAL_Driver/Src/stm32h7xx_hal_mdma.c ****   * @retval HAL status
1760:Drivers/STM32H7xx_HAL_Driver/Src/stm32h7xx_hal_mdma.c ****   */
1761:Drivers/STM32H7xx_HAL_Driver/Src/stm32h7xx_hal_mdma.c **** static void MDMA_SetConfig(MDMA_HandleTypeDef *hmdma, uint32_t SrcAddress, uint32_t DstAddress, uin
1762:Drivers/STM32H7xx_HAL_Driver/Src/stm32h7xx_hal_mdma.c **** {
1763:Drivers/STM32H7xx_HAL_Driver/Src/stm32h7xx_hal_mdma.c ****   uint32_t addressMask;
1764:Drivers/STM32H7xx_HAL_Driver/Src/stm32h7xx_hal_mdma.c **** 
1765:Drivers/STM32H7xx_HAL_Driver/Src/stm32h7xx_hal_mdma.c ****   /* Configure the MDMA Channel data length */
1766:Drivers/STM32H7xx_HAL_Driver/Src/stm32h7xx_hal_mdma.c ****   MODIFY_REG(hmdma->Instance->CBNDTR ,MDMA_CBNDTR_BNDT, (BlockDataLength & MDMA_CBNDTR_BNDT));
1767:Drivers/STM32H7xx_HAL_Driver/Src/stm32h7xx_hal_mdma.c **** 
1768:Drivers/STM32H7xx_HAL_Driver/Src/stm32h7xx_hal_mdma.c ****   /* Configure the MDMA block repeat count */
1769:Drivers/STM32H7xx_HAL_Driver/Src/stm32h7xx_hal_mdma.c ****   MODIFY_REG(hmdma->Instance->CBNDTR , MDMA_CBNDTR_BRC , ((BlockCount - 1U) << MDMA_CBNDTR_BRC_Pos)
1770:Drivers/STM32H7xx_HAL_Driver/Src/stm32h7xx_hal_mdma.c **** 
1771:Drivers/STM32H7xx_HAL_Driver/Src/stm32h7xx_hal_mdma.c ****   /* Clear all interrupt flags */
1772:Drivers/STM32H7xx_HAL_Driver/Src/stm32h7xx_hal_mdma.c ****   __HAL_MDMA_CLEAR_FLAG(hmdma, MDMA_FLAG_TE | MDMA_FLAG_CTC | MDMA_CISR_BRTIF | MDMA_CISR_BTIF | MD
1773:Drivers/STM32H7xx_HAL_Driver/Src/stm32h7xx_hal_mdma.c **** 
1774:Drivers/STM32H7xx_HAL_Driver/Src/stm32h7xx_hal_mdma.c ****   /* Configure MDMA Channel destination address */
1775:Drivers/STM32H7xx_HAL_Driver/Src/stm32h7xx_hal_mdma.c ****   hmdma->Instance->CDAR = DstAddress;
1776:Drivers/STM32H7xx_HAL_Driver/Src/stm32h7xx_hal_mdma.c **** 
1777:Drivers/STM32H7xx_HAL_Driver/Src/stm32h7xx_hal_mdma.c ****   /* Configure MDMA Channel Source address */
1778:Drivers/STM32H7xx_HAL_Driver/Src/stm32h7xx_hal_mdma.c ****   hmdma->Instance->CSAR = SrcAddress;
1779:Drivers/STM32H7xx_HAL_Driver/Src/stm32h7xx_hal_mdma.c **** 
1780:Drivers/STM32H7xx_HAL_Driver/Src/stm32h7xx_hal_mdma.c ****   addressMask = SrcAddress & 0xFF000000U;
1781:Drivers/STM32H7xx_HAL_Driver/Src/stm32h7xx_hal_mdma.c ****   if((addressMask == 0x20000000U) || (addressMask == 0x00000000U))
1782:Drivers/STM32H7xx_HAL_Driver/Src/stm32h7xx_hal_mdma.c ****   {
1783:Drivers/STM32H7xx_HAL_Driver/Src/stm32h7xx_hal_mdma.c ****     /*The AHBSbus is used as source (read operation) on channel x */
1784:Drivers/STM32H7xx_HAL_Driver/Src/stm32h7xx_hal_mdma.c ****     hmdma->Instance->CTBR |= MDMA_CTBR_SBUS;
1785:Drivers/STM32H7xx_HAL_Driver/Src/stm32h7xx_hal_mdma.c ****   }
1786:Drivers/STM32H7xx_HAL_Driver/Src/stm32h7xx_hal_mdma.c ****   else
1787:Drivers/STM32H7xx_HAL_Driver/Src/stm32h7xx_hal_mdma.c ****   {
1788:Drivers/STM32H7xx_HAL_Driver/Src/stm32h7xx_hal_mdma.c ****     /*The AXI bus is used as source (read operation) on channel x */
1789:Drivers/STM32H7xx_HAL_Driver/Src/stm32h7xx_hal_mdma.c ****     hmdma->Instance->CTBR &= (~MDMA_CTBR_SBUS);
1790:Drivers/STM32H7xx_HAL_Driver/Src/stm32h7xx_hal_mdma.c ****   }
1791:Drivers/STM32H7xx_HAL_Driver/Src/stm32h7xx_hal_mdma.c **** 
1792:Drivers/STM32H7xx_HAL_Driver/Src/stm32h7xx_hal_mdma.c ****   addressMask = DstAddress & 0xFF000000U;
1793:Drivers/STM32H7xx_HAL_Driver/Src/stm32h7xx_hal_mdma.c ****   if((addressMask == 0x20000000U) || (addressMask == 0x00000000U))
1794:Drivers/STM32H7xx_HAL_Driver/Src/stm32h7xx_hal_mdma.c ****   {
1795:Drivers/STM32H7xx_HAL_Driver/Src/stm32h7xx_hal_mdma.c ****     /*The AHB bus is used as destination (write operation) on channel x */
1796:Drivers/STM32H7xx_HAL_Driver/Src/stm32h7xx_hal_mdma.c ****     hmdma->Instance->CTBR |= MDMA_CTBR_DBUS;
1797:Drivers/STM32H7xx_HAL_Driver/Src/stm32h7xx_hal_mdma.c ****   }
1798:Drivers/STM32H7xx_HAL_Driver/Src/stm32h7xx_hal_mdma.c ****   else
1799:Drivers/STM32H7xx_HAL_Driver/Src/stm32h7xx_hal_mdma.c ****   {
1800:Drivers/STM32H7xx_HAL_Driver/Src/stm32h7xx_hal_mdma.c ****     /*The AXI bus is used as destination (write operation) on channel x */
ARM GAS  C:\Users\MadeuxS\AppData\Local\Temp\ccHqWtrv.s 			page 35


1801:Drivers/STM32H7xx_HAL_Driver/Src/stm32h7xx_hal_mdma.c ****     hmdma->Instance->CTBR &= (~MDMA_CTBR_DBUS);
1802:Drivers/STM32H7xx_HAL_Driver/Src/stm32h7xx_hal_mdma.c ****   }
1803:Drivers/STM32H7xx_HAL_Driver/Src/stm32h7xx_hal_mdma.c **** 
1804:Drivers/STM32H7xx_HAL_Driver/Src/stm32h7xx_hal_mdma.c ****   /* Set the linked list register to the first node of the list */
1805:Drivers/STM32H7xx_HAL_Driver/Src/stm32h7xx_hal_mdma.c ****   hmdma->Instance->CLAR = (uint32_t)hmdma->FirstLinkedListNodeAddress;
1806:Drivers/STM32H7xx_HAL_Driver/Src/stm32h7xx_hal_mdma.c **** }
1807:Drivers/STM32H7xx_HAL_Driver/Src/stm32h7xx_hal_mdma.c **** 
1808:Drivers/STM32H7xx_HAL_Driver/Src/stm32h7xx_hal_mdma.c **** /**
1809:Drivers/STM32H7xx_HAL_Driver/Src/stm32h7xx_hal_mdma.c ****   * @brief  Initializes the MDMA handle according to the specified
1810:Drivers/STM32H7xx_HAL_Driver/Src/stm32h7xx_hal_mdma.c ****   *         parameters in the MDMA_InitTypeDef
1811:Drivers/STM32H7xx_HAL_Driver/Src/stm32h7xx_hal_mdma.c ****   * @param  hmdma:       pointer to a MDMA_HandleTypeDef structure that contains
1812:Drivers/STM32H7xx_HAL_Driver/Src/stm32h7xx_hal_mdma.c ****   *                     the configuration information for the specified MDMA Channel.
1813:Drivers/STM32H7xx_HAL_Driver/Src/stm32h7xx_hal_mdma.c ****   * @retval None
1814:Drivers/STM32H7xx_HAL_Driver/Src/stm32h7xx_hal_mdma.c ****   */
1815:Drivers/STM32H7xx_HAL_Driver/Src/stm32h7xx_hal_mdma.c **** static void MDMA_Init(MDMA_HandleTypeDef *hmdma)
 111              		.loc 1 1815 13 view .LVU43
 112              	.LBB5:
1816:Drivers/STM32H7xx_HAL_Driver/Src/stm32h7xx_hal_mdma.c **** {
1817:Drivers/STM32H7xx_HAL_Driver/Src/stm32h7xx_hal_mdma.c ****   uint32_t blockoffset;
 113              		.loc 1 1817 3 view .LVU44
1818:Drivers/STM32H7xx_HAL_Driver/Src/stm32h7xx_hal_mdma.c **** 
1819:Drivers/STM32H7xx_HAL_Driver/Src/stm32h7xx_hal_mdma.c ****   /* Prepare the MDMA Channel configuration */
1820:Drivers/STM32H7xx_HAL_Driver/Src/stm32h7xx_hal_mdma.c ****   hmdma->Instance->CCR = hmdma->Init.Priority  | hmdma->Init.Endianness;
 114              		.loc 1 1820 3 view .LVU45
1821:Drivers/STM32H7xx_HAL_Driver/Src/stm32h7xx_hal_mdma.c **** 
1822:Drivers/STM32H7xx_HAL_Driver/Src/stm32h7xx_hal_mdma.c ****   /* Write new CTCR Register value */
1823:Drivers/STM32H7xx_HAL_Driver/Src/stm32h7xx_hal_mdma.c ****   hmdma->Instance->CTCR =  hmdma->Init.SourceInc      | hmdma->Init.DestinationInc | \
1824:Drivers/STM32H7xx_HAL_Driver/Src/stm32h7xx_hal_mdma.c ****                            hmdma->Init.SourceDataSize | hmdma->Init.DestDataSize   | \
1825:Drivers/STM32H7xx_HAL_Driver/Src/stm32h7xx_hal_mdma.c ****                            hmdma->Init.DataAlignment  | hmdma->Init.SourceBurst    | \
1826:Drivers/STM32H7xx_HAL_Driver/Src/stm32h7xx_hal_mdma.c ****                            hmdma->Init.DestBurst                                   | \
1827:Drivers/STM32H7xx_HAL_Driver/Src/stm32h7xx_hal_mdma.c ****                            ((hmdma->Init.BufferTransferLength - 1U) << MDMA_CTCR_TLEN_Pos) | \
 115              		.loc 1 1827 92 is_stmt 0 view .LVU46
 116 0038 D4E90525 		ldrd	r2, r5, [r4, #20]
 117              	.LVL5:
 118              		.loc 1 1827 92 view .LVU47
 119 003c E069     		ldr	r0, [r4, #28]
 120 003e 2A43     		orrs	r2, r2, r5
1820:Drivers/STM32H7xx_HAL_Driver/Src/stm32h7xx_hal_mdma.c **** 
 121              		.loc 1 1820 48 view .LVU48
 122 0040 E168     		ldr	r1, [r4, #12]
 123 0042 2569     		ldr	r5, [r4, #16]
 124              		.loc 1 1827 92 view .LVU49
 125 0044 0243     		orrs	r2, r2, r0
 126 0046 206A     		ldr	r0, [r4, #32]
1820:Drivers/STM32H7xx_HAL_Driver/Src/stm32h7xx_hal_mdma.c **** 
 127              		.loc 1 1820 48 view .LVU50
 128 0048 2943     		orrs	r1, r1, r5
 129              		.loc 1 1827 92 view .LVU51
 130 004a 0243     		orrs	r2, r2, r0
 131 004c 606A     		ldr	r0, [r4, #36]
 132 004e 0243     		orrs	r2, r2, r0
 133 0050 E06A     		ldr	r0, [r4, #44]
 134 0052 0243     		orrs	r2, r2, r0
 135 0054 206B     		ldr	r0, [r4, #48]
 136 0056 0243     		orrs	r2, r2, r0
 137 0058 A068     		ldr	r0, [r4, #8]
 138 005a 0243     		orrs	r2, r2, r0
ARM GAS  C:\Users\MadeuxS\AppData\Local\Temp\ccHqWtrv.s 			page 36


 139              		.loc 1 1827 63 view .LVU52
 140 005c A06A     		ldr	r0, [r4, #40]
 141 005e 0138     		subs	r0, r0, #1
 142              		.loc 1 1827 92 view .LVU53
 143 0060 42EA8042 		orr	r2, r2, r0, lsl #18
1828:Drivers/STM32H7xx_HAL_Driver/Src/stm32h7xx_hal_mdma.c ****                            hmdma->Init.TransferTriggerMode;
1829:Drivers/STM32H7xx_HAL_Driver/Src/stm32h7xx_hal_mdma.c **** 
1830:Drivers/STM32H7xx_HAL_Driver/Src/stm32h7xx_hal_mdma.c ****   /* If SW request set the CTCR register to SW Request Mode */
1831:Drivers/STM32H7xx_HAL_Driver/Src/stm32h7xx_hal_mdma.c ****   if(hmdma->Init.Request == MDMA_REQUEST_SW)
 144              		.loc 1 1831 17 view .LVU54
 145 0064 6068     		ldr	r0, [r4, #4]
1820:Drivers/STM32H7xx_HAL_Driver/Src/stm32h7xx_hal_mdma.c **** 
 146              		.loc 1 1820 24 view .LVU55
 147 0066 D960     		str	r1, [r3, #12]
1823:Drivers/STM32H7xx_HAL_Driver/Src/stm32h7xx_hal_mdma.c ****                            hmdma->Init.SourceDataSize | hmdma->Init.DestDataSize   | \
 148              		.loc 1 1823 3 is_stmt 1 view .LVU56
 149              		.loc 1 1831 5 is_stmt 0 view .LVU57
 150 0068 B0F1804F 		cmp	r0, #1073741824
1823:Drivers/STM32H7xx_HAL_Driver/Src/stm32h7xx_hal_mdma.c ****                            hmdma->Init.SourceDataSize | hmdma->Init.DestDataSize   | \
 151              		.loc 1 1823 25 view .LVU58
 152 006c 1A61     		str	r2, [r3, #16]
 153              		.loc 1 1831 3 is_stmt 1 view .LVU59
 154              		.loc 1 1831 5 is_stmt 0 view .LVU60
 155 006e 03D1     		bne	.L6
1832:Drivers/STM32H7xx_HAL_Driver/Src/stm32h7xx_hal_mdma.c ****   {
1833:Drivers/STM32H7xx_HAL_Driver/Src/stm32h7xx_hal_mdma.c ****     /*
1834:Drivers/STM32H7xx_HAL_Driver/Src/stm32h7xx_hal_mdma.c ****     -If the request is done by SW : BWM could be set to 1 or 0.
1835:Drivers/STM32H7xx_HAL_Driver/Src/stm32h7xx_hal_mdma.c ****     -If the request is done by a peripheral :
1836:Drivers/STM32H7xx_HAL_Driver/Src/stm32h7xx_hal_mdma.c ****     If mask address not set (0) => BWM must be set to 0
1837:Drivers/STM32H7xx_HAL_Driver/Src/stm32h7xx_hal_mdma.c ****     If mask address set (different than 0) => BWM could be set to 1 or 0
1838:Drivers/STM32H7xx_HAL_Driver/Src/stm32h7xx_hal_mdma.c ****     */
1839:Drivers/STM32H7xx_HAL_Driver/Src/stm32h7xx_hal_mdma.c ****     hmdma->Instance->CTCR |= (MDMA_CTCR_SWRM | MDMA_CTCR_BWM);
 156              		.loc 1 1839 5 is_stmt 1 view .LVU61
 157              		.loc 1 1839 27 is_stmt 0 view .LVU62
 158 0070 1A69     		ldr	r2, [r3, #16]
 159 0072 42F04042 		orr	r2, r2, #-1073741824
 160 0076 1A61     		str	r2, [r3, #16]
 161              	.L6:
1840:Drivers/STM32H7xx_HAL_Driver/Src/stm32h7xx_hal_mdma.c ****   }
1841:Drivers/STM32H7xx_HAL_Driver/Src/stm32h7xx_hal_mdma.c **** 
1842:Drivers/STM32H7xx_HAL_Driver/Src/stm32h7xx_hal_mdma.c ****   /* Reset CBNDTR Register */
1843:Drivers/STM32H7xx_HAL_Driver/Src/stm32h7xx_hal_mdma.c ****   hmdma->Instance->CBNDTR = 0;
 162              		.loc 1 1843 3 is_stmt 1 view .LVU63
 163              		.loc 1 1843 27 is_stmt 0 view .LVU64
 164 0078 0021     		movs	r1, #0
1844:Drivers/STM32H7xx_HAL_Driver/Src/stm32h7xx_hal_mdma.c **** 
1845:Drivers/STM32H7xx_HAL_Driver/Src/stm32h7xx_hal_mdma.c ****   /* if block source address offset is negative set the Block Repeat Source address Update Mode to 
1846:Drivers/STM32H7xx_HAL_Driver/Src/stm32h7xx_hal_mdma.c ****   if(hmdma->Init.SourceBlockAddressOffset < 0)
 165              		.loc 1 1846 17 view .LVU65
 166 007a 626B     		ldr	r2, [r4, #52]
 167              		.loc 1 1846 5 view .LVU66
 168 007c 8A42     		cmp	r2, r1
1843:Drivers/STM32H7xx_HAL_Driver/Src/stm32h7xx_hal_mdma.c **** 
 169              		.loc 1 1843 27 view .LVU67
 170 007e 5961     		str	r1, [r3, #20]
 171              		.loc 1 1846 3 is_stmt 1 view .LVU68
 172              		.loc 1 1846 5 is_stmt 0 view .LVU69
ARM GAS  C:\Users\MadeuxS\AppData\Local\Temp\ccHqWtrv.s 			page 37


 173 0080 30DB     		blt	.L17
1847:Drivers/STM32H7xx_HAL_Driver/Src/stm32h7xx_hal_mdma.c ****   {
1848:Drivers/STM32H7xx_HAL_Driver/Src/stm32h7xx_hal_mdma.c ****     hmdma->Instance->CBNDTR |= MDMA_CBNDTR_BRSUM;
1849:Drivers/STM32H7xx_HAL_Driver/Src/stm32h7xx_hal_mdma.c ****     /* Write new CBRUR Register value : source repeat block offset */
1850:Drivers/STM32H7xx_HAL_Driver/Src/stm32h7xx_hal_mdma.c ****     blockoffset = (uint32_t)(- hmdma->Init.SourceBlockAddressOffset);
1851:Drivers/STM32H7xx_HAL_Driver/Src/stm32h7xx_hal_mdma.c ****     hmdma->Instance->CBRUR = (blockoffset & 0x0000FFFFU);
1852:Drivers/STM32H7xx_HAL_Driver/Src/stm32h7xx_hal_mdma.c ****   }
1853:Drivers/STM32H7xx_HAL_Driver/Src/stm32h7xx_hal_mdma.c ****   else
1854:Drivers/STM32H7xx_HAL_Driver/Src/stm32h7xx_hal_mdma.c ****   {
1855:Drivers/STM32H7xx_HAL_Driver/Src/stm32h7xx_hal_mdma.c ****     /* Write new CBRUR Register value : source repeat block offset */
1856:Drivers/STM32H7xx_HAL_Driver/Src/stm32h7xx_hal_mdma.c ****     hmdma->Instance->CBRUR = (((uint32_t)hmdma->Init.SourceBlockAddressOffset) & 0x0000FFFFU);
 174              		.loc 1 1856 5 is_stmt 1 view .LVU70
 175              		.loc 1 1856 80 is_stmt 0 view .LVU71
 176 0082 92B2     		uxth	r2, r2
 177              		.loc 1 1856 28 view .LVU72
 178 0084 1A62     		str	r2, [r3, #32]
 179              	.L8:
1857:Drivers/STM32H7xx_HAL_Driver/Src/stm32h7xx_hal_mdma.c ****   }
1858:Drivers/STM32H7xx_HAL_Driver/Src/stm32h7xx_hal_mdma.c **** 
1859:Drivers/STM32H7xx_HAL_Driver/Src/stm32h7xx_hal_mdma.c ****   /* If block destination address offset is negative set the Block Repeat destination address Updat
1860:Drivers/STM32H7xx_HAL_Driver/Src/stm32h7xx_hal_mdma.c ****   if(hmdma->Init.DestBlockAddressOffset < 0)
 180              		.loc 1 1860 3 is_stmt 1 view .LVU73
 181              		.loc 1 1860 17 is_stmt 0 view .LVU74
 182 0086 A26B     		ldr	r2, [r4, #56]
 183              		.loc 1 1860 5 view .LVU75
 184 0088 002A     		cmp	r2, #0
 185 008a 1CDB     		blt	.L18
1861:Drivers/STM32H7xx_HAL_Driver/Src/stm32h7xx_hal_mdma.c ****   {
1862:Drivers/STM32H7xx_HAL_Driver/Src/stm32h7xx_hal_mdma.c ****     hmdma->Instance->CBNDTR |= MDMA_CBNDTR_BRDUM;
1863:Drivers/STM32H7xx_HAL_Driver/Src/stm32h7xx_hal_mdma.c ****     /* Write new CBRUR Register value : destination repeat block offset */
1864:Drivers/STM32H7xx_HAL_Driver/Src/stm32h7xx_hal_mdma.c ****     blockoffset = (uint32_t)(- hmdma->Init.DestBlockAddressOffset);
1865:Drivers/STM32H7xx_HAL_Driver/Src/stm32h7xx_hal_mdma.c ****     hmdma->Instance->CBRUR |= ((blockoffset & 0x0000FFFFU) << MDMA_CBRUR_DUV_Pos);
1866:Drivers/STM32H7xx_HAL_Driver/Src/stm32h7xx_hal_mdma.c ****   }
1867:Drivers/STM32H7xx_HAL_Driver/Src/stm32h7xx_hal_mdma.c ****   else
1868:Drivers/STM32H7xx_HAL_Driver/Src/stm32h7xx_hal_mdma.c ****   {
1869:Drivers/STM32H7xx_HAL_Driver/Src/stm32h7xx_hal_mdma.c ****     /*write new CBRUR Register value : destination repeat block offset */
1870:Drivers/STM32H7xx_HAL_Driver/Src/stm32h7xx_hal_mdma.c ****     hmdma->Instance->CBRUR |= ((((uint32_t)hmdma->Init.DestBlockAddressOffset) & 0x0000FFFFU) << MD
 186              		.loc 1 1870 5 is_stmt 1 view .LVU76
 187              		.loc 1 1870 28 is_stmt 0 view .LVU77
 188 008c 196A     		ldr	r1, [r3, #32]
1871:Drivers/STM32H7xx_HAL_Driver/Src/stm32h7xx_hal_mdma.c ****   }
1872:Drivers/STM32H7xx_HAL_Driver/Src/stm32h7xx_hal_mdma.c **** 
1873:Drivers/STM32H7xx_HAL_Driver/Src/stm32h7xx_hal_mdma.c ****   /* if HW request set the HW request and the requet CleraMask and ClearData MaskData, */
1874:Drivers/STM32H7xx_HAL_Driver/Src/stm32h7xx_hal_mdma.c ****   if(hmdma->Init.Request != MDMA_REQUEST_SW)
 189              		.loc 1 1874 5 view .LVU78
 190 008e B0F1804F 		cmp	r0, #1073741824
1870:Drivers/STM32H7xx_HAL_Driver/Src/stm32h7xx_hal_mdma.c ****   }
 191              		.loc 1 1870 28 view .LVU79
 192 0092 41EA0242 		orr	r2, r1, r2, lsl #16
 193 0096 1A62     		str	r2, [r3, #32]
 194              		.loc 1 1874 3 is_stmt 1 view .LVU80
 195              		.loc 1 1874 5 is_stmt 0 view .LVU81
 196 0098 21D0     		beq	.L11
 197              	.L19:
1875:Drivers/STM32H7xx_HAL_Driver/Src/stm32h7xx_hal_mdma.c ****   {
1876:Drivers/STM32H7xx_HAL_Driver/Src/stm32h7xx_hal_mdma.c ****     /* Set the HW request in CTRB register  */
1877:Drivers/STM32H7xx_HAL_Driver/Src/stm32h7xx_hal_mdma.c ****     hmdma->Instance->CTBR = hmdma->Init.Request & MDMA_CTBR_TSEL;
ARM GAS  C:\Users\MadeuxS\AppData\Local\Temp\ccHqWtrv.s 			page 38


 198              		.loc 1 1877 5 is_stmt 1 view .LVU82
 199              		.loc 1 1877 49 is_stmt 0 view .LVU83
 200 009a C0B2     		uxtb	r0, r0
 201              		.loc 1 1877 27 view .LVU84
 202 009c 9862     		str	r0, [r3, #40]
 203              	.L12:
1878:Drivers/STM32H7xx_HAL_Driver/Src/stm32h7xx_hal_mdma.c ****   }
1879:Drivers/STM32H7xx_HAL_Driver/Src/stm32h7xx_hal_mdma.c ****   else /* SW request : reset the CTBR register */
1880:Drivers/STM32H7xx_HAL_Driver/Src/stm32h7xx_hal_mdma.c ****   {
1881:Drivers/STM32H7xx_HAL_Driver/Src/stm32h7xx_hal_mdma.c ****     hmdma->Instance->CTBR = 0;
1882:Drivers/STM32H7xx_HAL_Driver/Src/stm32h7xx_hal_mdma.c ****   }
1883:Drivers/STM32H7xx_HAL_Driver/Src/stm32h7xx_hal_mdma.c **** 
1884:Drivers/STM32H7xx_HAL_Driver/Src/stm32h7xx_hal_mdma.c ****   /* Write Link Address Register */
1885:Drivers/STM32H7xx_HAL_Driver/Src/stm32h7xx_hal_mdma.c ****   hmdma->Instance->CLAR =  0;
 204              		.loc 1 1885 3 is_stmt 1 view .LVU85
 205              		.loc 1 1885 25 is_stmt 0 view .LVU86
 206 009e 0022     		movs	r2, #0
 207              	.LBE5:
 208              	.LBE4:
 284:Drivers/STM32H7xx_HAL_Driver/Src/stm32h7xx_hal_mdma.c **** 
 209              		.loc 1 284 16 view .LVU87
 210 00a0 0121     		movs	r1, #1
 211              	.LBB8:
 212              	.LBB6:
 213              		.loc 1 1885 25 view .LVU88
 214 00a2 5A62     		str	r2, [r3, #36]
 215              	.LVL6:
 216              		.loc 1 1885 25 view .LVU89
 217              	.LBE6:
 218              	.LBE8:
 276:Drivers/STM32H7xx_HAL_Driver/Src/stm32h7xx_hal_mdma.c ****   hmdma->LastLinkedListNodeAddress   = 0;
 219              		.loc 1 276 3 is_stmt 1 view .LVU90
 286:Drivers/STM32H7xx_HAL_Driver/Src/stm32h7xx_hal_mdma.c **** }
 220              		.loc 1 286 10 is_stmt 0 view .LVU91
 221 00a4 1046     		mov	r0, r2
 281:Drivers/STM32H7xx_HAL_Driver/Src/stm32h7xx_hal_mdma.c **** 
 222              		.loc 1 281 20 view .LVU92
 223 00a6 A266     		str	r2, [r4, #104]
 278:Drivers/STM32H7xx_HAL_Driver/Src/stm32h7xx_hal_mdma.c **** 
 224              		.loc 1 278 33 view .LVU93
 225 00a8 6266     		str	r2, [r4, #100]
 284:Drivers/STM32H7xx_HAL_Driver/Src/stm32h7xx_hal_mdma.c **** 
 226              		.loc 1 284 16 view .LVU94
 227 00aa 84F83D10 		strb	r1, [r4, #61]
 277:Drivers/STM32H7xx_HAL_Driver/Src/stm32h7xx_hal_mdma.c ****   hmdma->LinkedListNodeCounter  = 0;
 228              		.loc 1 277 38 view .LVU95
 229 00ae C4E91722 		strd	r2, r2, [r4, #92]
 278:Drivers/STM32H7xx_HAL_Driver/Src/stm32h7xx_hal_mdma.c **** 
 230              		.loc 1 278 3 is_stmt 1 view .LVU96
 281:Drivers/STM32H7xx_HAL_Driver/Src/stm32h7xx_hal_mdma.c **** 
 231              		.loc 1 281 3 view .LVU97
 284:Drivers/STM32H7xx_HAL_Driver/Src/stm32h7xx_hal_mdma.c **** 
 232              		.loc 1 284 3 view .LVU98
 286:Drivers/STM32H7xx_HAL_Driver/Src/stm32h7xx_hal_mdma.c **** }
 233              		.loc 1 286 3 view .LVU99
 287:Drivers/STM32H7xx_HAL_Driver/Src/stm32h7xx_hal_mdma.c **** 
 234              		.loc 1 287 1 is_stmt 0 view .LVU100
ARM GAS  C:\Users\MadeuxS\AppData\Local\Temp\ccHqWtrv.s 			page 39


 235 00b2 38BD     		pop	{r3, r4, r5, pc}
 236              	.LVL7:
 237              	.L16:
 263:Drivers/STM32H7xx_HAL_Driver/Src/stm32h7xx_hal_mdma.c **** 
 238              		.loc 1 263 7 is_stmt 1 view .LVU101
 263:Drivers/STM32H7xx_HAL_Driver/Src/stm32h7xx_hal_mdma.c **** 
 239              		.loc 1 263 24 is_stmt 0 view .LVU102
 240 00b4 4022     		movs	r2, #64
 266:Drivers/STM32H7xx_HAL_Driver/Src/stm32h7xx_hal_mdma.c **** 
 241              		.loc 1 266 20 view .LVU103
 242 00b6 0323     		movs	r3, #3
 268:Drivers/STM32H7xx_HAL_Driver/Src/stm32h7xx_hal_mdma.c ****     }
 243              		.loc 1 268 14 view .LVU104
 244 00b8 0120     		movs	r0, #1
 263:Drivers/STM32H7xx_HAL_Driver/Src/stm32h7xx_hal_mdma.c **** 
 245              		.loc 1 263 24 view .LVU105
 246 00ba A266     		str	r2, [r4, #104]
 266:Drivers/STM32H7xx_HAL_Driver/Src/stm32h7xx_hal_mdma.c **** 
 247              		.loc 1 266 7 is_stmt 1 view .LVU106
 266:Drivers/STM32H7xx_HAL_Driver/Src/stm32h7xx_hal_mdma.c **** 
 248              		.loc 1 266 20 is_stmt 0 view .LVU107
 249 00bc 84F83D30 		strb	r3, [r4, #61]
 268:Drivers/STM32H7xx_HAL_Driver/Src/stm32h7xx_hal_mdma.c ****     }
 250              		.loc 1 268 7 is_stmt 1 view .LVU108
 287:Drivers/STM32H7xx_HAL_Driver/Src/stm32h7xx_hal_mdma.c **** 
 251              		.loc 1 287 1 is_stmt 0 view .LVU109
 252 00c0 38BD     		pop	{r3, r4, r5, pc}
 253              	.LVL8:
 254              	.L13:
 226:Drivers/STM32H7xx_HAL_Driver/Src/stm32h7xx_hal_mdma.c ****   }
 255              		.loc 1 226 12 view .LVU110
 256 00c2 0120     		movs	r0, #1
 257              	.LVL9:
 287:Drivers/STM32H7xx_HAL_Driver/Src/stm32h7xx_hal_mdma.c **** 
 258              		.loc 1 287 1 view .LVU111
 259 00c4 38BD     		pop	{r3, r4, r5, pc}
 260              	.LVL10:
 261              	.L18:
 262              	.LBB9:
 263              	.LBB7:
1862:Drivers/STM32H7xx_HAL_Driver/Src/stm32h7xx_hal_mdma.c ****     /* Write new CBRUR Register value : destination repeat block offset */
 264              		.loc 1 1862 5 is_stmt 1 view .LVU112
1862:Drivers/STM32H7xx_HAL_Driver/Src/stm32h7xx_hal_mdma.c ****     /* Write new CBRUR Register value : destination repeat block offset */
 265              		.loc 1 1862 29 is_stmt 0 view .LVU113
 266 00c6 5969     		ldr	r1, [r3, #20]
1864:Drivers/STM32H7xx_HAL_Driver/Src/stm32h7xx_hal_mdma.c ****     hmdma->Instance->CBRUR |= ((blockoffset & 0x0000FFFFU) << MDMA_CBRUR_DUV_Pos);
 267              		.loc 1 1864 30 view .LVU114
 268 00c8 5242     		rsbs	r2, r2, #0
1874:Drivers/STM32H7xx_HAL_Driver/Src/stm32h7xx_hal_mdma.c ****   {
 269              		.loc 1 1874 5 view .LVU115
 270 00ca B0F1804F 		cmp	r0, #1073741824
1862:Drivers/STM32H7xx_HAL_Driver/Src/stm32h7xx_hal_mdma.c ****     /* Write new CBRUR Register value : destination repeat block offset */
 271              		.loc 1 1862 29 view .LVU116
 272 00ce 41F40021 		orr	r1, r1, #524288
 273 00d2 5961     		str	r1, [r3, #20]
1864:Drivers/STM32H7xx_HAL_Driver/Src/stm32h7xx_hal_mdma.c ****     hmdma->Instance->CBRUR |= ((blockoffset & 0x0000FFFFU) << MDMA_CBRUR_DUV_Pos);
 274              		.loc 1 1864 5 is_stmt 1 view .LVU117
ARM GAS  C:\Users\MadeuxS\AppData\Local\Temp\ccHqWtrv.s 			page 40


 275              	.LVL11:
1865:Drivers/STM32H7xx_HAL_Driver/Src/stm32h7xx_hal_mdma.c ****   }
 276              		.loc 1 1865 5 view .LVU118
1865:Drivers/STM32H7xx_HAL_Driver/Src/stm32h7xx_hal_mdma.c ****   }
 277              		.loc 1 1865 28 is_stmt 0 view .LVU119
 278 00d4 196A     		ldr	r1, [r3, #32]
 279 00d6 41EA0242 		orr	r2, r1, r2, lsl #16
 280 00da 1A62     		str	r2, [r3, #32]
 281              	.LVL12:
1874:Drivers/STM32H7xx_HAL_Driver/Src/stm32h7xx_hal_mdma.c ****   {
 282              		.loc 1 1874 3 is_stmt 1 view .LVU120
1874:Drivers/STM32H7xx_HAL_Driver/Src/stm32h7xx_hal_mdma.c ****   {
 283              		.loc 1 1874 5 is_stmt 0 view .LVU121
 284 00dc DDD1     		bne	.L19
 285              	.L11:
1881:Drivers/STM32H7xx_HAL_Driver/Src/stm32h7xx_hal_mdma.c ****   }
 286              		.loc 1 1881 5 is_stmt 1 view .LVU122
1881:Drivers/STM32H7xx_HAL_Driver/Src/stm32h7xx_hal_mdma.c ****   }
 287              		.loc 1 1881 27 is_stmt 0 view .LVU123
 288 00de 0022     		movs	r2, #0
 289 00e0 9A62     		str	r2, [r3, #40]
 290 00e2 DCE7     		b	.L12
 291              	.L17:
1848:Drivers/STM32H7xx_HAL_Driver/Src/stm32h7xx_hal_mdma.c ****     /* Write new CBRUR Register value : source repeat block offset */
 292              		.loc 1 1848 5 is_stmt 1 view .LVU124
1848:Drivers/STM32H7xx_HAL_Driver/Src/stm32h7xx_hal_mdma.c ****     /* Write new CBRUR Register value : source repeat block offset */
 293              		.loc 1 1848 29 is_stmt 0 view .LVU125
 294 00e4 5969     		ldr	r1, [r3, #20]
1850:Drivers/STM32H7xx_HAL_Driver/Src/stm32h7xx_hal_mdma.c ****     hmdma->Instance->CBRUR = (blockoffset & 0x0000FFFFU);
 295              		.loc 1 1850 30 view .LVU126
 296 00e6 5242     		rsbs	r2, r2, #0
1848:Drivers/STM32H7xx_HAL_Driver/Src/stm32h7xx_hal_mdma.c ****     /* Write new CBRUR Register value : source repeat block offset */
 297              		.loc 1 1848 29 view .LVU127
 298 00e8 41F48021 		orr	r1, r1, #262144
1851:Drivers/STM32H7xx_HAL_Driver/Src/stm32h7xx_hal_mdma.c ****   }
 299              		.loc 1 1851 43 view .LVU128
 300 00ec 92B2     		uxth	r2, r2
1848:Drivers/STM32H7xx_HAL_Driver/Src/stm32h7xx_hal_mdma.c ****     /* Write new CBRUR Register value : source repeat block offset */
 301              		.loc 1 1848 29 view .LVU129
 302 00ee 5961     		str	r1, [r3, #20]
1850:Drivers/STM32H7xx_HAL_Driver/Src/stm32h7xx_hal_mdma.c ****     hmdma->Instance->CBRUR = (blockoffset & 0x0000FFFFU);
 303              		.loc 1 1850 5 is_stmt 1 view .LVU130
 304              	.LVL13:
1851:Drivers/STM32H7xx_HAL_Driver/Src/stm32h7xx_hal_mdma.c ****   }
 305              		.loc 1 1851 5 view .LVU131
1851:Drivers/STM32H7xx_HAL_Driver/Src/stm32h7xx_hal_mdma.c ****   }
 306              		.loc 1 1851 28 is_stmt 0 view .LVU132
 307 00f0 1A62     		str	r2, [r3, #32]
 308              	.LVL14:
1851:Drivers/STM32H7xx_HAL_Driver/Src/stm32h7xx_hal_mdma.c ****   }
 309              		.loc 1 1851 28 view .LVU133
 310 00f2 C8E7     		b	.L8
 311              	.LBE7:
 312              	.LBE9:
 313              		.cfi_endproc
 314              	.LFE144:
 316              		.section	.text.HAL_MDMA_DeInit,"ax",%progbits
ARM GAS  C:\Users\MadeuxS\AppData\Local\Temp\ccHqWtrv.s 			page 41


 317              		.align	1
 318              		.p2align 2,,3
 319              		.global	HAL_MDMA_DeInit
 320              		.syntax unified
 321              		.thumb
 322              		.thumb_func
 323              		.fpu fpv5-d16
 325              	HAL_MDMA_DeInit:
 326              	.LVL15:
 327              	.LFB145:
 296:Drivers/STM32H7xx_HAL_Driver/Src/stm32h7xx_hal_mdma.c **** 
 328              		.loc 1 296 1 is_stmt 1 view -0
 329              		.cfi_startproc
 330              		@ args = 0, pretend = 0, frame = 0
 331              		@ frame_needed = 0, uses_anonymous_args = 0
 332              		@ link register save eliminated.
 299:Drivers/STM32H7xx_HAL_Driver/Src/stm32h7xx_hal_mdma.c ****   {
 333              		.loc 1 299 3 view .LVU135
 299:Drivers/STM32H7xx_HAL_Driver/Src/stm32h7xx_hal_mdma.c ****   {
 334              		.loc 1 299 5 is_stmt 0 view .LVU136
 335 0000 F8B1     		cbz	r0, .L22
 305:Drivers/STM32H7xx_HAL_Driver/Src/stm32h7xx_hal_mdma.c **** 
 336              		.loc 1 305 3 view .LVU137
 337 0002 0268     		ldr	r2, [r0]
 338 0004 0146     		mov	r1, r0
 305:Drivers/STM32H7xx_HAL_Driver/Src/stm32h7xx_hal_mdma.c **** 
 339              		.loc 1 305 3 is_stmt 1 view .LVU138
 308:Drivers/STM32H7xx_HAL_Driver/Src/stm32h7xx_hal_mdma.c ****   hmdma->Instance->CTCR = 0;
 340              		.loc 1 308 25 is_stmt 0 view .LVU139
 341 0006 0023     		movs	r3, #0
 305:Drivers/STM32H7xx_HAL_Driver/Src/stm32h7xx_hal_mdma.c **** 
 342              		.loc 1 305 3 view .LVU140
 343 0008 D068     		ldr	r0, [r2, #12]
 344              	.LVL16:
 296:Drivers/STM32H7xx_HAL_Driver/Src/stm32h7xx_hal_mdma.c **** 
 345              		.loc 1 296 1 view .LVU141
 346 000a 10B4     		push	{r4}
 347              	.LCFI1:
 348              		.cfi_def_cfa_offset 4
 349              		.cfi_offset 4, -4
 305:Drivers/STM32H7xx_HAL_Driver/Src/stm32h7xx_hal_mdma.c **** 
 350              		.loc 1 305 3 view .LVU142
 351 000c 20F00100 		bic	r0, r0, #1
 320:Drivers/STM32H7xx_HAL_Driver/Src/stm32h7xx_hal_mdma.c **** 
 352              		.loc 1 320 3 view .LVU143
 353 0010 1F24     		movs	r4, #31
 305:Drivers/STM32H7xx_HAL_Driver/Src/stm32h7xx_hal_mdma.c **** 
 354              		.loc 1 305 3 view .LVU144
 355 0012 D060     		str	r0, [r2, #12]
 308:Drivers/STM32H7xx_HAL_Driver/Src/stm32h7xx_hal_mdma.c ****   hmdma->Instance->CTCR = 0;
 356              		.loc 1 308 3 is_stmt 1 view .LVU145
 336:Drivers/STM32H7xx_HAL_Driver/Src/stm32h7xx_hal_mdma.c **** }
 357              		.loc 1 336 10 is_stmt 0 view .LVU146
 358 0014 1846     		mov	r0, r3
 308:Drivers/STM32H7xx_HAL_Driver/Src/stm32h7xx_hal_mdma.c ****   hmdma->Instance->CTCR = 0;
 359              		.loc 1 308 25 view .LVU147
 360 0016 D360     		str	r3, [r2, #12]
ARM GAS  C:\Users\MadeuxS\AppData\Local\Temp\ccHqWtrv.s 			page 42


 309:Drivers/STM32H7xx_HAL_Driver/Src/stm32h7xx_hal_mdma.c ****   hmdma->Instance->CBNDTR = 0;
 361              		.loc 1 309 3 is_stmt 1 view .LVU148
 309:Drivers/STM32H7xx_HAL_Driver/Src/stm32h7xx_hal_mdma.c ****   hmdma->Instance->CBNDTR = 0;
 362              		.loc 1 309 25 is_stmt 0 view .LVU149
 363 0018 1361     		str	r3, [r2, #16]
 310:Drivers/STM32H7xx_HAL_Driver/Src/stm32h7xx_hal_mdma.c ****   hmdma->Instance->CSAR = 0;
 364              		.loc 1 310 3 is_stmt 1 view .LVU150
 310:Drivers/STM32H7xx_HAL_Driver/Src/stm32h7xx_hal_mdma.c ****   hmdma->Instance->CSAR = 0;
 365              		.loc 1 310 27 is_stmt 0 view .LVU151
 366 001a 5361     		str	r3, [r2, #20]
 311:Drivers/STM32H7xx_HAL_Driver/Src/stm32h7xx_hal_mdma.c ****   hmdma->Instance->CDAR = 0;
 367              		.loc 1 311 3 is_stmt 1 view .LVU152
 311:Drivers/STM32H7xx_HAL_Driver/Src/stm32h7xx_hal_mdma.c ****   hmdma->Instance->CDAR = 0;
 368              		.loc 1 311 25 is_stmt 0 view .LVU153
 369 001c 9361     		str	r3, [r2, #24]
 312:Drivers/STM32H7xx_HAL_Driver/Src/stm32h7xx_hal_mdma.c ****   hmdma->Instance->CBRUR = 0;
 370              		.loc 1 312 3 is_stmt 1 view .LVU154
 312:Drivers/STM32H7xx_HAL_Driver/Src/stm32h7xx_hal_mdma.c ****   hmdma->Instance->CBRUR = 0;
 371              		.loc 1 312 25 is_stmt 0 view .LVU155
 372 001e D361     		str	r3, [r2, #28]
 313:Drivers/STM32H7xx_HAL_Driver/Src/stm32h7xx_hal_mdma.c ****   hmdma->Instance->CLAR = 0;
 373              		.loc 1 313 3 is_stmt 1 view .LVU156
 313:Drivers/STM32H7xx_HAL_Driver/Src/stm32h7xx_hal_mdma.c ****   hmdma->Instance->CLAR = 0;
 374              		.loc 1 313 26 is_stmt 0 view .LVU157
 375 0020 1362     		str	r3, [r2, #32]
 314:Drivers/STM32H7xx_HAL_Driver/Src/stm32h7xx_hal_mdma.c ****   hmdma->Instance->CTBR = 0;
 376              		.loc 1 314 3 is_stmt 1 view .LVU158
 314:Drivers/STM32H7xx_HAL_Driver/Src/stm32h7xx_hal_mdma.c ****   hmdma->Instance->CTBR = 0;
 377              		.loc 1 314 25 is_stmt 0 view .LVU159
 378 0022 5362     		str	r3, [r2, #36]
 315:Drivers/STM32H7xx_HAL_Driver/Src/stm32h7xx_hal_mdma.c ****   hmdma->Instance->CMAR = 0;
 379              		.loc 1 315 3 is_stmt 1 view .LVU160
 315:Drivers/STM32H7xx_HAL_Driver/Src/stm32h7xx_hal_mdma.c ****   hmdma->Instance->CMAR = 0;
 380              		.loc 1 315 25 is_stmt 0 view .LVU161
 381 0024 9362     		str	r3, [r2, #40]
 316:Drivers/STM32H7xx_HAL_Driver/Src/stm32h7xx_hal_mdma.c ****   hmdma->Instance->CMDR = 0;
 382              		.loc 1 316 3 is_stmt 1 view .LVU162
 316:Drivers/STM32H7xx_HAL_Driver/Src/stm32h7xx_hal_mdma.c ****   hmdma->Instance->CMDR = 0;
 383              		.loc 1 316 25 is_stmt 0 view .LVU163
 384 0026 1363     		str	r3, [r2, #48]
 317:Drivers/STM32H7xx_HAL_Driver/Src/stm32h7xx_hal_mdma.c **** 
 385              		.loc 1 317 3 is_stmt 1 view .LVU164
 317:Drivers/STM32H7xx_HAL_Driver/Src/stm32h7xx_hal_mdma.c **** 
 386              		.loc 1 317 25 is_stmt 0 view .LVU165
 387 0028 5363     		str	r3, [r2, #52]
 320:Drivers/STM32H7xx_HAL_Driver/Src/stm32h7xx_hal_mdma.c **** 
 388              		.loc 1 320 3 is_stmt 1 view .LVU166
 389 002a 5460     		str	r4, [r2, #4]
 323:Drivers/STM32H7xx_HAL_Driver/Src/stm32h7xx_hal_mdma.c ****   hmdma->LastLinkedListNodeAddress   = 0;
 390              		.loc 1 323 3 view .LVU167
 328:Drivers/STM32H7xx_HAL_Driver/Src/stm32h7xx_hal_mdma.c **** 
 391              		.loc 1 328 20 is_stmt 0 view .LVU168
 392 002c 8B66     		str	r3, [r1, #104]
 334:Drivers/STM32H7xx_HAL_Driver/Src/stm32h7xx_hal_mdma.c **** 
 393              		.loc 1 334 3 view .LVU169
 394 002e 81F83C30 		strb	r3, [r1, #60]
 331:Drivers/STM32H7xx_HAL_Driver/Src/stm32h7xx_hal_mdma.c **** 
ARM GAS  C:\Users\MadeuxS\AppData\Local\Temp\ccHqWtrv.s 			page 43


 395              		.loc 1 331 16 view .LVU170
 396 0032 81F83D30 		strb	r3, [r1, #61]
 337:Drivers/STM32H7xx_HAL_Driver/Src/stm32h7xx_hal_mdma.c **** 
 397              		.loc 1 337 1 view .LVU171
 398 0036 5DF8044B 		ldr	r4, [sp], #4
 399              	.LCFI2:
 400              		.cfi_restore 4
 401              		.cfi_def_cfa_offset 0
 325:Drivers/STM32H7xx_HAL_Driver/Src/stm32h7xx_hal_mdma.c **** 
 402              		.loc 1 325 33 view .LVU172
 403 003a 4B66     		str	r3, [r1, #100]
 324:Drivers/STM32H7xx_HAL_Driver/Src/stm32h7xx_hal_mdma.c ****   hmdma->LinkedListNodeCounter  = 0;
 404              		.loc 1 324 38 view .LVU173
 405 003c C1E91733 		strd	r3, r3, [r1, #92]
 325:Drivers/STM32H7xx_HAL_Driver/Src/stm32h7xx_hal_mdma.c **** 
 406              		.loc 1 325 3 is_stmt 1 view .LVU174
 328:Drivers/STM32H7xx_HAL_Driver/Src/stm32h7xx_hal_mdma.c **** 
 407              		.loc 1 328 3 view .LVU175
 331:Drivers/STM32H7xx_HAL_Driver/Src/stm32h7xx_hal_mdma.c **** 
 408              		.loc 1 331 3 view .LVU176
 334:Drivers/STM32H7xx_HAL_Driver/Src/stm32h7xx_hal_mdma.c **** 
 409              		.loc 1 334 3 view .LVU177
 334:Drivers/STM32H7xx_HAL_Driver/Src/stm32h7xx_hal_mdma.c **** 
 410              		.loc 1 334 3 view .LVU178
 334:Drivers/STM32H7xx_HAL_Driver/Src/stm32h7xx_hal_mdma.c **** 
 411              		.loc 1 334 3 view .LVU179
 336:Drivers/STM32H7xx_HAL_Driver/Src/stm32h7xx_hal_mdma.c **** }
 412              		.loc 1 336 3 view .LVU180
 337:Drivers/STM32H7xx_HAL_Driver/Src/stm32h7xx_hal_mdma.c **** 
 413              		.loc 1 337 1 is_stmt 0 view .LVU181
 414 0040 7047     		bx	lr
 415              	.LVL17:
 416              	.L22:
 301:Drivers/STM32H7xx_HAL_Driver/Src/stm32h7xx_hal_mdma.c ****   }
 417              		.loc 1 301 12 view .LVU182
 418 0042 0120     		movs	r0, #1
 419              	.LVL18:
 337:Drivers/STM32H7xx_HAL_Driver/Src/stm32h7xx_hal_mdma.c **** 
 420              		.loc 1 337 1 view .LVU183
 421 0044 7047     		bx	lr
 422              		.cfi_endproc
 423              	.LFE145:
 425 0046 00BF     		.section	.text.HAL_MDMA_ConfigPostRequestMask,"ax",%progbits
 426              		.align	1
 427              		.p2align 2,,3
 428              		.global	HAL_MDMA_ConfigPostRequestMask
 429              		.syntax unified
 430              		.thumb
 431              		.thumb_func
 432              		.fpu fpv5-d16
 434              	HAL_MDMA_ConfigPostRequestMask:
 435              	.LVL19:
 436              	.LFB146:
 349:Drivers/STM32H7xx_HAL_Driver/Src/stm32h7xx_hal_mdma.c ****   HAL_StatusTypeDef  status = HAL_OK;
 437              		.loc 1 349 1 is_stmt 1 view -0
 438              		.cfi_startproc
 439              		@ args = 0, pretend = 0, frame = 0
ARM GAS  C:\Users\MadeuxS\AppData\Local\Temp\ccHqWtrv.s 			page 44


 440              		@ frame_needed = 0, uses_anonymous_args = 0
 350:Drivers/STM32H7xx_HAL_Driver/Src/stm32h7xx_hal_mdma.c **** 
 441              		.loc 1 350 3 view .LVU185
 353:Drivers/STM32H7xx_HAL_Driver/Src/stm32h7xx_hal_mdma.c ****   {
 442              		.loc 1 353 3 view .LVU186
 353:Drivers/STM32H7xx_HAL_Driver/Src/stm32h7xx_hal_mdma.c ****   {
 443              		.loc 1 353 5 is_stmt 0 view .LVU187
 444 0000 10B3     		cbz	r0, .L31
 359:Drivers/STM32H7xx_HAL_Driver/Src/stm32h7xx_hal_mdma.c **** 
 445              		.loc 1 359 3 is_stmt 1 view .LVU188
 359:Drivers/STM32H7xx_HAL_Driver/Src/stm32h7xx_hal_mdma.c **** 
 446              		.loc 1 359 3 view .LVU189
 447 0002 90F83C30 		ldrb	r3, [r0, #60]	@ zero_extendqisi2
 448 0006 012B     		cmp	r3, #1
 449 0008 21D0     		beq	.L32
 359:Drivers/STM32H7xx_HAL_Driver/Src/stm32h7xx_hal_mdma.c **** 
 450              		.loc 1 359 3 discriminator 2 view .LVU190
 349:Drivers/STM32H7xx_HAL_Driver/Src/stm32h7xx_hal_mdma.c ****   HAL_StatusTypeDef  status = HAL_OK;
 451              		.loc 1 349 1 is_stmt 0 discriminator 2 view .LVU191
 452 000a 30B5     		push	{r4, r5, lr}
 453              	.LCFI3:
 454              		.cfi_def_cfa_offset 12
 455              		.cfi_offset 4, -12
 456              		.cfi_offset 5, -8
 457              		.cfi_offset 14, -4
 359:Drivers/STM32H7xx_HAL_Driver/Src/stm32h7xx_hal_mdma.c **** 
 458              		.loc 1 359 3 discriminator 2 view .LVU192
 459 000c 4FF0010E 		mov	lr, #1
 361:Drivers/STM32H7xx_HAL_Driver/Src/stm32h7xx_hal_mdma.c ****   {
 460              		.loc 1 361 35 discriminator 2 view .LVU193
 461 0010 90F83DC0 		ldrb	ip, [r0, #61]	@ zero_extendqisi2
 361:Drivers/STM32H7xx_HAL_Driver/Src/stm32h7xx_hal_mdma.c ****   {
 462              		.loc 1 361 5 discriminator 2 view .LVU194
 463 0014 F445     		cmp	ip, lr
 361:Drivers/STM32H7xx_HAL_Driver/Src/stm32h7xx_hal_mdma.c ****   {
 464              		.loc 1 361 35 discriminator 2 view .LVU195
 465 0016 5FFA8CF3 		uxtb	r3, ip
 359:Drivers/STM32H7xx_HAL_Driver/Src/stm32h7xx_hal_mdma.c **** 
 466              		.loc 1 359 3 discriminator 2 view .LVU196
 467 001a 80F83CE0 		strb	lr, [r0, #60]
 359:Drivers/STM32H7xx_HAL_Driver/Src/stm32h7xx_hal_mdma.c **** 
 468              		.loc 1 359 3 is_stmt 1 discriminator 2 view .LVU197
 361:Drivers/STM32H7xx_HAL_Driver/Src/stm32h7xx_hal_mdma.c ****   {
 469              		.loc 1 361 3 discriminator 2 view .LVU198
 361:Drivers/STM32H7xx_HAL_Driver/Src/stm32h7xx_hal_mdma.c ****   {
 470              		.loc 1 361 5 is_stmt 0 discriminator 2 view .LVU199
 471 001e 05D0     		beq	.L38
 394:Drivers/STM32H7xx_HAL_Driver/Src/stm32h7xx_hal_mdma.c ****   }
 472              		.loc 1 394 12 view .LVU200
 473 0020 7346     		mov	r3, lr
 474              	.LVL20:
 475              	.L29:
 397:Drivers/STM32H7xx_HAL_Driver/Src/stm32h7xx_hal_mdma.c **** 
 476              		.loc 1 397 3 is_stmt 1 view .LVU201
 397:Drivers/STM32H7xx_HAL_Driver/Src/stm32h7xx_hal_mdma.c **** 
 477              		.loc 1 397 3 view .LVU202
 478 0022 0022     		movs	r2, #0
ARM GAS  C:\Users\MadeuxS\AppData\Local\Temp\ccHqWtrv.s 			page 45


 479 0024 80F83C20 		strb	r2, [r0, #60]
 397:Drivers/STM32H7xx_HAL_Driver/Src/stm32h7xx_hal_mdma.c **** 
 480              		.loc 1 397 3 view .LVU203
 399:Drivers/STM32H7xx_HAL_Driver/Src/stm32h7xx_hal_mdma.c **** }
 481              		.loc 1 399 3 view .LVU204
 400:Drivers/STM32H7xx_HAL_Driver/Src/stm32h7xx_hal_mdma.c **** 
 482              		.loc 1 400 1 is_stmt 0 view .LVU205
 483 0028 1846     		mov	r0, r3
 484              	.LVL21:
 400:Drivers/STM32H7xx_HAL_Driver/Src/stm32h7xx_hal_mdma.c **** 
 485              		.loc 1 400 1 view .LVU206
 486 002a 30BD     		pop	{r4, r5, pc}
 487              	.LVL22:
 488              	.L38:
 364:Drivers/STM32H7xx_HAL_Driver/Src/stm32h7xx_hal_mdma.c ****     {
 489              		.loc 1 364 5 is_stmt 1 view .LVU207
 364:Drivers/STM32H7xx_HAL_Driver/Src/stm32h7xx_hal_mdma.c ****     {
 490              		.loc 1 364 14 is_stmt 0 view .LVU208
 491 002c 0568     		ldr	r5, [r0]
 364:Drivers/STM32H7xx_HAL_Driver/Src/stm32h7xx_hal_mdma.c ****     {
 492              		.loc 1 364 24 view .LVU209
 493 002e 2C69     		ldr	r4, [r5, #16]
 364:Drivers/STM32H7xx_HAL_Driver/Src/stm32h7xx_hal_mdma.c ****     {
 494              		.loc 1 364 7 view .LVU210
 495 0030 14F08044 		ands	r4, r4, #1073741824
 496 0034 F5D1     		bne	.L29
 367:Drivers/STM32H7xx_HAL_Driver/Src/stm32h7xx_hal_mdma.c ****       hmdma->Instance->CMDR = MaskData;
 497              		.loc 1 367 7 is_stmt 1 view .LVU211
 367:Drivers/STM32H7xx_HAL_Driver/Src/stm32h7xx_hal_mdma.c ****       hmdma->Instance->CMDR = MaskData;
 498              		.loc 1 367 29 is_stmt 0 view .LVU212
 499 0036 2963     		str	r1, [r5, #48]
 368:Drivers/STM32H7xx_HAL_Driver/Src/stm32h7xx_hal_mdma.c **** 
 500              		.loc 1 368 7 is_stmt 1 view .LVU213
 368:Drivers/STM32H7xx_HAL_Driver/Src/stm32h7xx_hal_mdma.c **** 
 501              		.loc 1 368 29 is_stmt 0 view .LVU214
 502 0038 6A63     		str	r2, [r5, #52]
 376:Drivers/STM32H7xx_HAL_Driver/Src/stm32h7xx_hal_mdma.c ****       {
 503              		.loc 1 376 7 is_stmt 1 view .LVU215
 378:Drivers/STM32H7xx_HAL_Driver/Src/stm32h7xx_hal_mdma.c ****       }
 504              		.loc 1 378 31 is_stmt 0 view .LVU216
 505 003a 2A69     		ldr	r2, [r5, #16]
 506              	.LVL23:
 376:Drivers/STM32H7xx_HAL_Driver/Src/stm32h7xx_hal_mdma.c ****       {
 507              		.loc 1 376 9 view .LVU217
 508 003c 51B9     		cbnz	r1, .L30
 378:Drivers/STM32H7xx_HAL_Driver/Src/stm32h7xx_hal_mdma.c ****       }
 509              		.loc 1 378 9 is_stmt 1 view .LVU218
 378:Drivers/STM32H7xx_HAL_Driver/Src/stm32h7xx_hal_mdma.c ****       }
 510              		.loc 1 378 31 is_stmt 0 view .LVU219
 511 003e 22F00042 		bic	r2, r2, #-2147483648
 350:Drivers/STM32H7xx_HAL_Driver/Src/stm32h7xx_hal_mdma.c **** 
 512              		.loc 1 350 22 view .LVU220
 513 0042 0B46     		mov	r3, r1
 378:Drivers/STM32H7xx_HAL_Driver/Src/stm32h7xx_hal_mdma.c ****       }
 514              		.loc 1 378 31 view .LVU221
 515 0044 2A61     		str	r2, [r5, #16]
 516              	.LVL24:
ARM GAS  C:\Users\MadeuxS\AppData\Local\Temp\ccHqWtrv.s 			page 46


 378:Drivers/STM32H7xx_HAL_Driver/Src/stm32h7xx_hal_mdma.c ****       }
 517              		.loc 1 378 31 view .LVU222
 518 0046 ECE7     		b	.L29
 519              	.LVL25:
 520              	.L31:
 521              	.LCFI4:
 522              		.cfi_def_cfa_offset 0
 523              		.cfi_restore 4
 524              		.cfi_restore 5
 525              		.cfi_restore 14
 355:Drivers/STM32H7xx_HAL_Driver/Src/stm32h7xx_hal_mdma.c ****   }
 526              		.loc 1 355 12 view .LVU223
 527 0048 0123     		movs	r3, #1
 400:Drivers/STM32H7xx_HAL_Driver/Src/stm32h7xx_hal_mdma.c **** 
 528              		.loc 1 400 1 view .LVU224
 529 004a 1846     		mov	r0, r3
 530              	.LVL26:
 400:Drivers/STM32H7xx_HAL_Driver/Src/stm32h7xx_hal_mdma.c **** 
 531              		.loc 1 400 1 view .LVU225
 532 004c 7047     		bx	lr
 533              	.LVL27:
 534              	.L32:
 359:Drivers/STM32H7xx_HAL_Driver/Src/stm32h7xx_hal_mdma.c **** 
 535              		.loc 1 359 3 view .LVU226
 536 004e 0223     		movs	r3, #2
 400:Drivers/STM32H7xx_HAL_Driver/Src/stm32h7xx_hal_mdma.c **** 
 537              		.loc 1 400 1 view .LVU227
 538 0050 1846     		mov	r0, r3
 539              	.LVL28:
 400:Drivers/STM32H7xx_HAL_Driver/Src/stm32h7xx_hal_mdma.c **** 
 540              		.loc 1 400 1 view .LVU228
 541 0052 7047     		bx	lr
 542              	.LVL29:
 543              	.L30:
 544              	.LCFI5:
 545              		.cfi_def_cfa_offset 12
 546              		.cfi_offset 4, -12
 547              		.cfi_offset 5, -8
 548              		.cfi_offset 14, -4
 382:Drivers/STM32H7xx_HAL_Driver/Src/stm32h7xx_hal_mdma.c ****       }
 549              		.loc 1 382 9 is_stmt 1 view .LVU229
 382:Drivers/STM32H7xx_HAL_Driver/Src/stm32h7xx_hal_mdma.c ****       }
 550              		.loc 1 382 31 is_stmt 0 view .LVU230
 551 0054 42F00042 		orr	r2, r2, #-2147483648
 350:Drivers/STM32H7xx_HAL_Driver/Src/stm32h7xx_hal_mdma.c **** 
 552              		.loc 1 350 22 view .LVU231
 553 0058 2346     		mov	r3, r4
 382:Drivers/STM32H7xx_HAL_Driver/Src/stm32h7xx_hal_mdma.c ****       }
 554              		.loc 1 382 31 view .LVU232
 555 005a 2A61     		str	r2, [r5, #16]
 556              	.LVL30:
 382:Drivers/STM32H7xx_HAL_Driver/Src/stm32h7xx_hal_mdma.c ****       }
 557              		.loc 1 382 31 view .LVU233
 558 005c E1E7     		b	.L29
 559              		.cfi_endproc
 560              	.LFE146:
 562 005e 00BF     		.section	.text.HAL_MDMA_RegisterCallback,"ax",%progbits
ARM GAS  C:\Users\MadeuxS\AppData\Local\Temp\ccHqWtrv.s 			page 47


 563              		.align	1
 564              		.p2align 2,,3
 565              		.global	HAL_MDMA_RegisterCallback
 566              		.syntax unified
 567              		.thumb
 568              		.thumb_func
 569              		.fpu fpv5-d16
 571              	HAL_MDMA_RegisterCallback:
 572              	.LVL31:
 573              	.LFB147:
 411:Drivers/STM32H7xx_HAL_Driver/Src/stm32h7xx_hal_mdma.c ****   HAL_StatusTypeDef status = HAL_OK;
 574              		.loc 1 411 1 is_stmt 1 view -0
 575              		.cfi_startproc
 576              		@ args = 0, pretend = 0, frame = 0
 577              		@ frame_needed = 0, uses_anonymous_args = 0
 578              		@ link register save eliminated.
 412:Drivers/STM32H7xx_HAL_Driver/Src/stm32h7xx_hal_mdma.c **** 
 579              		.loc 1 412 3 view .LVU235
 415:Drivers/STM32H7xx_HAL_Driver/Src/stm32h7xx_hal_mdma.c ****   {
 580              		.loc 1 415 3 view .LVU236
 415:Drivers/STM32H7xx_HAL_Driver/Src/stm32h7xx_hal_mdma.c ****   {
 581              		.loc 1 415 5 is_stmt 0 view .LVU237
 582 0000 0346     		mov	r3, r0
 583 0002 98B1     		cbz	r0, .L49
 421:Drivers/STM32H7xx_HAL_Driver/Src/stm32h7xx_hal_mdma.c **** 
 584              		.loc 1 421 3 is_stmt 1 view .LVU238
 421:Drivers/STM32H7xx_HAL_Driver/Src/stm32h7xx_hal_mdma.c **** 
 585              		.loc 1 421 3 view .LVU239
 586 0004 90F83C00 		ldrb	r0, [r0, #60]	@ zero_extendqisi2
 587              	.LVL32:
 421:Drivers/STM32H7xx_HAL_Driver/Src/stm32h7xx_hal_mdma.c **** 
 588              		.loc 1 421 3 is_stmt 0 view .LVU240
 589 0008 0128     		cmp	r0, #1
 590 000a 11D0     		beq	.L50
 421:Drivers/STM32H7xx_HAL_Driver/Src/stm32h7xx_hal_mdma.c **** 
 591              		.loc 1 421 3 is_stmt 1 discriminator 2 view .LVU241
 421:Drivers/STM32H7xx_HAL_Driver/Src/stm32h7xx_hal_mdma.c **** 
 592              		.loc 1 421 3 discriminator 2 view .LVU242
 423:Drivers/STM32H7xx_HAL_Driver/Src/stm32h7xx_hal_mdma.c ****   {
 593              		.loc 1 423 3 discriminator 2 view .LVU243
 423:Drivers/STM32H7xx_HAL_Driver/Src/stm32h7xx_hal_mdma.c ****   {
 594              		.loc 1 423 35 is_stmt 0 discriminator 2 view .LVU244
 595 000c 93F83D00 		ldrb	r0, [r3, #61]	@ zero_extendqisi2
 423:Drivers/STM32H7xx_HAL_Driver/Src/stm32h7xx_hal_mdma.c ****   {
 596              		.loc 1 423 5 discriminator 2 view .LVU245
 597 0010 0128     		cmp	r0, #1
 598 0012 04D0     		beq	.L53
 458:Drivers/STM32H7xx_HAL_Driver/Src/stm32h7xx_hal_mdma.c ****   }
 599              		.loc 1 458 12 view .LVU246
 600 0014 0120     		movs	r0, #1
 601              	.L41:
 602              	.LVL33:
 462:Drivers/STM32H7xx_HAL_Driver/Src/stm32h7xx_hal_mdma.c **** 
 603              		.loc 1 462 3 is_stmt 1 view .LVU247
 462:Drivers/STM32H7xx_HAL_Driver/Src/stm32h7xx_hal_mdma.c **** 
 604              		.loc 1 462 3 view .LVU248
 605 0016 0022     		movs	r2, #0
ARM GAS  C:\Users\MadeuxS\AppData\Local\Temp\ccHqWtrv.s 			page 48


 606              	.LVL34:
 462:Drivers/STM32H7xx_HAL_Driver/Src/stm32h7xx_hal_mdma.c **** 
 607              		.loc 1 462 3 is_stmt 0 view .LVU249
 608 0018 83F83C20 		strb	r2, [r3, #60]
 462:Drivers/STM32H7xx_HAL_Driver/Src/stm32h7xx_hal_mdma.c **** 
 609              		.loc 1 462 3 is_stmt 1 view .LVU250
 464:Drivers/STM32H7xx_HAL_Driver/Src/stm32h7xx_hal_mdma.c **** }
 610              		.loc 1 464 3 view .LVU251
 464:Drivers/STM32H7xx_HAL_Driver/Src/stm32h7xx_hal_mdma.c **** }
 611              		.loc 1 464 10 is_stmt 0 view .LVU252
 612 001c 7047     		bx	lr
 613              	.LVL35:
 614              	.L53:
 425:Drivers/STM32H7xx_HAL_Driver/Src/stm32h7xx_hal_mdma.c ****     {
 615              		.loc 1 425 5 is_stmt 1 view .LVU253
 616 001e 0529     		cmp	r1, #5
 617 0020 1AD8     		bhi	.L52
 618 0022 DFE801F0 		tbb	[pc, r1]
 619              	.L43:
 620 0026 0A       		.byte	(.L48-.L43)/2
 621 0027 0D       		.byte	(.L47-.L43)/2
 622 0028 10       		.byte	(.L46-.L43)/2
 623 0029 13       		.byte	(.L45-.L43)/2
 624 002a 16       		.byte	(.L44-.L43)/2
 625 002b 07       		.byte	(.L42-.L43)/2
 626              	.LVL36:
 627              		.p2align 1
 628              	.L49:
 417:Drivers/STM32H7xx_HAL_Driver/Src/stm32h7xx_hal_mdma.c ****   }
 629              		.loc 1 417 12 is_stmt 0 view .LVU254
 630 002c 0120     		movs	r0, #1
 631              	.LVL37:
 417:Drivers/STM32H7xx_HAL_Driver/Src/stm32h7xx_hal_mdma.c ****   }
 632              		.loc 1 417 12 view .LVU255
 633 002e 7047     		bx	lr
 634              	.L50:
 421:Drivers/STM32H7xx_HAL_Driver/Src/stm32h7xx_hal_mdma.c **** 
 635              		.loc 1 421 3 view .LVU256
 636 0030 0220     		movs	r0, #2
 465:Drivers/STM32H7xx_HAL_Driver/Src/stm32h7xx_hal_mdma.c **** 
 637              		.loc 1 465 1 view .LVU257
 638 0032 7047     		bx	lr
 639              	.L42:
 448:Drivers/STM32H7xx_HAL_Driver/Src/stm32h7xx_hal_mdma.c ****       break;
 640              		.loc 1 448 7 is_stmt 1 view .LVU258
 412:Drivers/STM32H7xx_HAL_Driver/Src/stm32h7xx_hal_mdma.c **** 
 641              		.loc 1 412 21 is_stmt 0 view .LVU259
 642 0034 0020     		movs	r0, #0
 448:Drivers/STM32H7xx_HAL_Driver/Src/stm32h7xx_hal_mdma.c ****       break;
 643              		.loc 1 448 32 view .LVU260
 644 0036 9A65     		str	r2, [r3, #88]
 449:Drivers/STM32H7xx_HAL_Driver/Src/stm32h7xx_hal_mdma.c **** 
 645              		.loc 1 449 7 is_stmt 1 view .LVU261
 646 0038 EDE7     		b	.L41
 647              	.L48:
 428:Drivers/STM32H7xx_HAL_Driver/Src/stm32h7xx_hal_mdma.c ****       break;
 648              		.loc 1 428 7 view .LVU262
ARM GAS  C:\Users\MadeuxS\AppData\Local\Temp\ccHqWtrv.s 			page 49


 412:Drivers/STM32H7xx_HAL_Driver/Src/stm32h7xx_hal_mdma.c **** 
 649              		.loc 1 412 21 is_stmt 0 view .LVU263
 650 003a 0846     		mov	r0, r1
 428:Drivers/STM32H7xx_HAL_Driver/Src/stm32h7xx_hal_mdma.c ****       break;
 651              		.loc 1 428 31 view .LVU264
 652 003c 5A64     		str	r2, [r3, #68]
 429:Drivers/STM32H7xx_HAL_Driver/Src/stm32h7xx_hal_mdma.c **** 
 653              		.loc 1 429 7 is_stmt 1 view .LVU265
 654 003e EAE7     		b	.L41
 655              	.L47:
 432:Drivers/STM32H7xx_HAL_Driver/Src/stm32h7xx_hal_mdma.c ****       break;
 656              		.loc 1 432 7 view .LVU266
 412:Drivers/STM32H7xx_HAL_Driver/Src/stm32h7xx_hal_mdma.c **** 
 657              		.loc 1 412 21 is_stmt 0 view .LVU267
 658 0040 0020     		movs	r0, #0
 432:Drivers/STM32H7xx_HAL_Driver/Src/stm32h7xx_hal_mdma.c ****       break;
 659              		.loc 1 432 37 view .LVU268
 660 0042 9A64     		str	r2, [r3, #72]
 433:Drivers/STM32H7xx_HAL_Driver/Src/stm32h7xx_hal_mdma.c **** 
 661              		.loc 1 433 7 is_stmt 1 view .LVU269
 662 0044 E7E7     		b	.L41
 663              	.L46:
 436:Drivers/STM32H7xx_HAL_Driver/Src/stm32h7xx_hal_mdma.c ****       break;
 664              		.loc 1 436 7 view .LVU270
 412:Drivers/STM32H7xx_HAL_Driver/Src/stm32h7xx_hal_mdma.c **** 
 665              		.loc 1 412 21 is_stmt 0 view .LVU271
 666 0046 0020     		movs	r0, #0
 436:Drivers/STM32H7xx_HAL_Driver/Src/stm32h7xx_hal_mdma.c ****       break;
 667              		.loc 1 436 36 view .LVU272
 668 0048 DA64     		str	r2, [r3, #76]
 437:Drivers/STM32H7xx_HAL_Driver/Src/stm32h7xx_hal_mdma.c **** 
 669              		.loc 1 437 7 is_stmt 1 view .LVU273
 670 004a E4E7     		b	.L41
 671              	.L45:
 440:Drivers/STM32H7xx_HAL_Driver/Src/stm32h7xx_hal_mdma.c ****       break;
 672              		.loc 1 440 7 view .LVU274
 412:Drivers/STM32H7xx_HAL_Driver/Src/stm32h7xx_hal_mdma.c **** 
 673              		.loc 1 412 21 is_stmt 0 view .LVU275
 674 004c 0020     		movs	r0, #0
 440:Drivers/STM32H7xx_HAL_Driver/Src/stm32h7xx_hal_mdma.c ****       break;
 675              		.loc 1 440 42 view .LVU276
 676 004e 1A65     		str	r2, [r3, #80]
 441:Drivers/STM32H7xx_HAL_Driver/Src/stm32h7xx_hal_mdma.c **** 
 677              		.loc 1 441 7 is_stmt 1 view .LVU277
 678 0050 E1E7     		b	.L41
 679              	.L44:
 444:Drivers/STM32H7xx_HAL_Driver/Src/stm32h7xx_hal_mdma.c ****       break;
 680              		.loc 1 444 7 view .LVU278
 412:Drivers/STM32H7xx_HAL_Driver/Src/stm32h7xx_hal_mdma.c **** 
 681              		.loc 1 412 21 is_stmt 0 view .LVU279
 682 0052 0020     		movs	r0, #0
 444:Drivers/STM32H7xx_HAL_Driver/Src/stm32h7xx_hal_mdma.c ****       break;
 683              		.loc 1 444 32 view .LVU280
 684 0054 5A65     		str	r2, [r3, #84]
 445:Drivers/STM32H7xx_HAL_Driver/Src/stm32h7xx_hal_mdma.c **** 
 685              		.loc 1 445 7 is_stmt 1 view .LVU281
 686 0056 DEE7     		b	.L41
ARM GAS  C:\Users\MadeuxS\AppData\Local\Temp\ccHqWtrv.s 			page 50


 687              	.L52:
 425:Drivers/STM32H7xx_HAL_Driver/Src/stm32h7xx_hal_mdma.c ****     {
 688              		.loc 1 425 5 is_stmt 0 view .LVU282
 689 0058 0020     		movs	r0, #0
 690 005a DCE7     		b	.L41
 691              		.cfi_endproc
 692              	.LFE147:
 694              		.section	.text.HAL_MDMA_UnRegisterCallback,"ax",%progbits
 695              		.align	1
 696              		.p2align 2,,3
 697              		.global	HAL_MDMA_UnRegisterCallback
 698              		.syntax unified
 699              		.thumb
 700              		.thumb_func
 701              		.fpu fpv5-d16
 703              	HAL_MDMA_UnRegisterCallback:
 704              	.LVL38:
 705              	.LFB148:
 476:Drivers/STM32H7xx_HAL_Driver/Src/stm32h7xx_hal_mdma.c ****   HAL_StatusTypeDef status = HAL_OK;
 706              		.loc 1 476 1 is_stmt 1 view -0
 707              		.cfi_startproc
 708              		@ args = 0, pretend = 0, frame = 0
 709              		@ frame_needed = 0, uses_anonymous_args = 0
 710              		@ link register save eliminated.
 477:Drivers/STM32H7xx_HAL_Driver/Src/stm32h7xx_hal_mdma.c **** 
 711              		.loc 1 477 3 view .LVU284
 480:Drivers/STM32H7xx_HAL_Driver/Src/stm32h7xx_hal_mdma.c ****   {
 712              		.loc 1 480 3 view .LVU285
 480:Drivers/STM32H7xx_HAL_Driver/Src/stm32h7xx_hal_mdma.c ****   {
 713              		.loc 1 480 5 is_stmt 0 view .LVU286
 714 0000 D0B1     		cbz	r0, .L65
 486:Drivers/STM32H7xx_HAL_Driver/Src/stm32h7xx_hal_mdma.c **** 
 715              		.loc 1 486 3 is_stmt 1 view .LVU287
 486:Drivers/STM32H7xx_HAL_Driver/Src/stm32h7xx_hal_mdma.c **** 
 716              		.loc 1 486 3 view .LVU288
 717 0002 90F83C30 		ldrb	r3, [r0, #60]	@ zero_extendqisi2
 718 0006 012B     		cmp	r3, #1
 719 0008 19D0     		beq	.L66
 486:Drivers/STM32H7xx_HAL_Driver/Src/stm32h7xx_hal_mdma.c **** 
 720              		.loc 1 486 3 discriminator 2 view .LVU289
 488:Drivers/STM32H7xx_HAL_Driver/Src/stm32h7xx_hal_mdma.c ****   {
 721              		.loc 1 488 35 is_stmt 0 discriminator 2 view .LVU290
 722 000a 90F83D20 		ldrb	r2, [r0, #61]	@ zero_extendqisi2
 486:Drivers/STM32H7xx_HAL_Driver/Src/stm32h7xx_hal_mdma.c **** 
 723              		.loc 1 486 3 discriminator 2 view .LVU291
 724 000e 4FF0010C 		mov	ip, #1
 488:Drivers/STM32H7xx_HAL_Driver/Src/stm32h7xx_hal_mdma.c ****   {
 725              		.loc 1 488 5 discriminator 2 view .LVU292
 726 0012 6245     		cmp	r2, ip
 488:Drivers/STM32H7xx_HAL_Driver/Src/stm32h7xx_hal_mdma.c ****   {
 727              		.loc 1 488 35 discriminator 2 view .LVU293
 728 0014 D3B2     		uxtb	r3, r2
 486:Drivers/STM32H7xx_HAL_Driver/Src/stm32h7xx_hal_mdma.c **** 
 729              		.loc 1 486 3 discriminator 2 view .LVU294
 730 0016 80F83CC0 		strb	ip, [r0, #60]
 486:Drivers/STM32H7xx_HAL_Driver/Src/stm32h7xx_hal_mdma.c **** 
 731              		.loc 1 486 3 is_stmt 1 discriminator 2 view .LVU295
ARM GAS  C:\Users\MadeuxS\AppData\Local\Temp\ccHqWtrv.s 			page 51


 488:Drivers/STM32H7xx_HAL_Driver/Src/stm32h7xx_hal_mdma.c ****   {
 732              		.loc 1 488 3 discriminator 2 view .LVU296
 488:Drivers/STM32H7xx_HAL_Driver/Src/stm32h7xx_hal_mdma.c ****   {
 733              		.loc 1 488 5 is_stmt 0 discriminator 2 view .LVU297
 734 001a 05D0     		beq	.L68
 532:Drivers/STM32H7xx_HAL_Driver/Src/stm32h7xx_hal_mdma.c ****   }
 735              		.loc 1 532 12 view .LVU298
 736 001c 6346     		mov	r3, ip
 737              	.L56:
 738              	.LVL39:
 536:Drivers/STM32H7xx_HAL_Driver/Src/stm32h7xx_hal_mdma.c **** 
 739              		.loc 1 536 3 is_stmt 1 view .LVU299
 536:Drivers/STM32H7xx_HAL_Driver/Src/stm32h7xx_hal_mdma.c **** 
 740              		.loc 1 536 3 view .LVU300
 741 001e 0022     		movs	r2, #0
 742 0020 80F83C20 		strb	r2, [r0, #60]
 536:Drivers/STM32H7xx_HAL_Driver/Src/stm32h7xx_hal_mdma.c **** 
 743              		.loc 1 536 3 view .LVU301
 538:Drivers/STM32H7xx_HAL_Driver/Src/stm32h7xx_hal_mdma.c **** }
 744              		.loc 1 538 3 view .LVU302
 539:Drivers/STM32H7xx_HAL_Driver/Src/stm32h7xx_hal_mdma.c **** 
 745              		.loc 1 539 1 is_stmt 0 view .LVU303
 746 0024 1846     		mov	r0, r3
 747              	.LVL40:
 539:Drivers/STM32H7xx_HAL_Driver/Src/stm32h7xx_hal_mdma.c **** 
 748              		.loc 1 539 1 view .LVU304
 749 0026 7047     		bx	lr
 750              	.LVL41:
 751              	.L68:
 490:Drivers/STM32H7xx_HAL_Driver/Src/stm32h7xx_hal_mdma.c ****     {
 752              		.loc 1 490 5 is_stmt 1 view .LVU305
 753 0028 0629     		cmp	r1, #6
 754 002a F8D8     		bhi	.L56
 755 002c DFE801F0 		tbb	[pc, r1]
 756              	.L58:
 757 0030 13       		.byte	(.L64-.L58)/2
 758 0031 17       		.byte	(.L63-.L58)/2
 759 0032 1B       		.byte	(.L62-.L58)/2
 760 0033 1F       		.byte	(.L61-.L58)/2
 761 0034 23       		.byte	(.L60-.L58)/2
 762 0035 27       		.byte	(.L59-.L58)/2
 763 0036 0A       		.byte	(.L57-.L58)/2
 764 0037 00       		.p2align 1
 765              	.L65:
 482:Drivers/STM32H7xx_HAL_Driver/Src/stm32h7xx_hal_mdma.c ****   }
 766              		.loc 1 482 12 is_stmt 0 view .LVU306
 767 0038 0123     		movs	r3, #1
 539:Drivers/STM32H7xx_HAL_Driver/Src/stm32h7xx_hal_mdma.c **** 
 768              		.loc 1 539 1 view .LVU307
 769 003a 1846     		mov	r0, r3
 770              	.LVL42:
 539:Drivers/STM32H7xx_HAL_Driver/Src/stm32h7xx_hal_mdma.c **** 
 771              		.loc 1 539 1 view .LVU308
 772 003c 7047     		bx	lr
 773              	.LVL43:
 774              	.L66:
 486:Drivers/STM32H7xx_HAL_Driver/Src/stm32h7xx_hal_mdma.c **** 
ARM GAS  C:\Users\MadeuxS\AppData\Local\Temp\ccHqWtrv.s 			page 52


 775              		.loc 1 486 3 view .LVU309
 776 003e 0223     		movs	r3, #2
 539:Drivers/STM32H7xx_HAL_Driver/Src/stm32h7xx_hal_mdma.c **** 
 777              		.loc 1 539 1 view .LVU310
 778 0040 1846     		mov	r0, r3
 779              	.LVL44:
 539:Drivers/STM32H7xx_HAL_Driver/Src/stm32h7xx_hal_mdma.c **** 
 780              		.loc 1 539 1 view .LVU311
 781 0042 7047     		bx	lr
 782              	.LVL45:
 783              	.L57:
 517:Drivers/STM32H7xx_HAL_Driver/Src/stm32h7xx_hal_mdma.c ****       hmdma->XferBufferCpltCallback = NULL;
 784              		.loc 1 517 7 is_stmt 1 view .LVU312
 517:Drivers/STM32H7xx_HAL_Driver/Src/stm32h7xx_hal_mdma.c ****       hmdma->XferBufferCpltCallback = NULL;
 785              		.loc 1 517 31 is_stmt 0 view .LVU313
 786 0044 0022     		movs	r2, #0
 477:Drivers/STM32H7xx_HAL_Driver/Src/stm32h7xx_hal_mdma.c **** 
 787              		.loc 1 477 21 view .LVU314
 788 0046 1346     		mov	r3, r2
 518:Drivers/STM32H7xx_HAL_Driver/Src/stm32h7xx_hal_mdma.c ****       hmdma->XferBlockCpltCallback = NULL;
 789              		.loc 1 518 37 view .LVU315
 790 0048 C0E91122 		strd	r2, r2, [r0, #68]
 519:Drivers/STM32H7xx_HAL_Driver/Src/stm32h7xx_hal_mdma.c ****       hmdma->XferRepeatBlockCpltCallback = NULL;
 791              		.loc 1 519 7 is_stmt 1 view .LVU316
 520:Drivers/STM32H7xx_HAL_Driver/Src/stm32h7xx_hal_mdma.c ****       hmdma->XferErrorCallback = NULL;
 792              		.loc 1 520 42 is_stmt 0 view .LVU317
 793 004c C0E91322 		strd	r2, r2, [r0, #76]
 521:Drivers/STM32H7xx_HAL_Driver/Src/stm32h7xx_hal_mdma.c ****       hmdma->XferAbortCallback = NULL;
 794              		.loc 1 521 7 is_stmt 1 view .LVU318
 522:Drivers/STM32H7xx_HAL_Driver/Src/stm32h7xx_hal_mdma.c ****       break;
 795              		.loc 1 522 32 is_stmt 0 view .LVU319
 796 0050 C0E91522 		strd	r2, r2, [r0, #84]
 523:Drivers/STM32H7xx_HAL_Driver/Src/stm32h7xx_hal_mdma.c **** 
 797              		.loc 1 523 7 is_stmt 1 view .LVU320
 798 0054 E3E7     		b	.L56
 799              	.L64:
 493:Drivers/STM32H7xx_HAL_Driver/Src/stm32h7xx_hal_mdma.c ****       break;
 800              		.loc 1 493 7 view .LVU321
 493:Drivers/STM32H7xx_HAL_Driver/Src/stm32h7xx_hal_mdma.c ****       break;
 801              		.loc 1 493 31 is_stmt 0 view .LVU322
 802 0056 0022     		movs	r2, #0
 477:Drivers/STM32H7xx_HAL_Driver/Src/stm32h7xx_hal_mdma.c **** 
 803              		.loc 1 477 21 view .LVU323
 804 0058 0B46     		mov	r3, r1
 493:Drivers/STM32H7xx_HAL_Driver/Src/stm32h7xx_hal_mdma.c ****       break;
 805              		.loc 1 493 31 view .LVU324
 806 005a 4264     		str	r2, [r0, #68]
 494:Drivers/STM32H7xx_HAL_Driver/Src/stm32h7xx_hal_mdma.c **** 
 807              		.loc 1 494 7 is_stmt 1 view .LVU325
 808 005c DFE7     		b	.L56
 809              	.L63:
 497:Drivers/STM32H7xx_HAL_Driver/Src/stm32h7xx_hal_mdma.c ****       break;
 810              		.loc 1 497 7 view .LVU326
 497:Drivers/STM32H7xx_HAL_Driver/Src/stm32h7xx_hal_mdma.c ****       break;
 811              		.loc 1 497 37 is_stmt 0 view .LVU327
 812 005e 0022     		movs	r2, #0
 477:Drivers/STM32H7xx_HAL_Driver/Src/stm32h7xx_hal_mdma.c **** 
ARM GAS  C:\Users\MadeuxS\AppData\Local\Temp\ccHqWtrv.s 			page 53


 813              		.loc 1 477 21 view .LVU328
 814 0060 1346     		mov	r3, r2
 497:Drivers/STM32H7xx_HAL_Driver/Src/stm32h7xx_hal_mdma.c ****       break;
 815              		.loc 1 497 37 view .LVU329
 816 0062 8264     		str	r2, [r0, #72]
 498:Drivers/STM32H7xx_HAL_Driver/Src/stm32h7xx_hal_mdma.c **** 
 817              		.loc 1 498 7 is_stmt 1 view .LVU330
 818 0064 DBE7     		b	.L56
 819              	.L62:
 501:Drivers/STM32H7xx_HAL_Driver/Src/stm32h7xx_hal_mdma.c ****       break;
 820              		.loc 1 501 7 view .LVU331
 501:Drivers/STM32H7xx_HAL_Driver/Src/stm32h7xx_hal_mdma.c ****       break;
 821              		.loc 1 501 36 is_stmt 0 view .LVU332
 822 0066 0022     		movs	r2, #0
 477:Drivers/STM32H7xx_HAL_Driver/Src/stm32h7xx_hal_mdma.c **** 
 823              		.loc 1 477 21 view .LVU333
 824 0068 1346     		mov	r3, r2
 501:Drivers/STM32H7xx_HAL_Driver/Src/stm32h7xx_hal_mdma.c ****       break;
 825              		.loc 1 501 36 view .LVU334
 826 006a C264     		str	r2, [r0, #76]
 502:Drivers/STM32H7xx_HAL_Driver/Src/stm32h7xx_hal_mdma.c **** 
 827              		.loc 1 502 7 is_stmt 1 view .LVU335
 828 006c D7E7     		b	.L56
 829              	.L61:
 505:Drivers/STM32H7xx_HAL_Driver/Src/stm32h7xx_hal_mdma.c ****       break;
 830              		.loc 1 505 7 view .LVU336
 505:Drivers/STM32H7xx_HAL_Driver/Src/stm32h7xx_hal_mdma.c ****       break;
 831              		.loc 1 505 42 is_stmt 0 view .LVU337
 832 006e 0022     		movs	r2, #0
 477:Drivers/STM32H7xx_HAL_Driver/Src/stm32h7xx_hal_mdma.c **** 
 833              		.loc 1 477 21 view .LVU338
 834 0070 1346     		mov	r3, r2
 505:Drivers/STM32H7xx_HAL_Driver/Src/stm32h7xx_hal_mdma.c ****       break;
 835              		.loc 1 505 42 view .LVU339
 836 0072 0265     		str	r2, [r0, #80]
 506:Drivers/STM32H7xx_HAL_Driver/Src/stm32h7xx_hal_mdma.c **** 
 837              		.loc 1 506 7 is_stmt 1 view .LVU340
 838 0074 D3E7     		b	.L56
 839              	.L60:
 509:Drivers/STM32H7xx_HAL_Driver/Src/stm32h7xx_hal_mdma.c ****       break;
 840              		.loc 1 509 7 view .LVU341
 509:Drivers/STM32H7xx_HAL_Driver/Src/stm32h7xx_hal_mdma.c ****       break;
 841              		.loc 1 509 32 is_stmt 0 view .LVU342
 842 0076 0022     		movs	r2, #0
 477:Drivers/STM32H7xx_HAL_Driver/Src/stm32h7xx_hal_mdma.c **** 
 843              		.loc 1 477 21 view .LVU343
 844 0078 1346     		mov	r3, r2
 509:Drivers/STM32H7xx_HAL_Driver/Src/stm32h7xx_hal_mdma.c ****       break;
 845              		.loc 1 509 32 view .LVU344
 846 007a 4265     		str	r2, [r0, #84]
 510:Drivers/STM32H7xx_HAL_Driver/Src/stm32h7xx_hal_mdma.c **** 
 847              		.loc 1 510 7 is_stmt 1 view .LVU345
 848 007c CFE7     		b	.L56
 849              	.L59:
 513:Drivers/STM32H7xx_HAL_Driver/Src/stm32h7xx_hal_mdma.c ****       break;
 850              		.loc 1 513 7 view .LVU346
 513:Drivers/STM32H7xx_HAL_Driver/Src/stm32h7xx_hal_mdma.c ****       break;
ARM GAS  C:\Users\MadeuxS\AppData\Local\Temp\ccHqWtrv.s 			page 54


 851              		.loc 1 513 32 is_stmt 0 view .LVU347
 852 007e 0022     		movs	r2, #0
 477:Drivers/STM32H7xx_HAL_Driver/Src/stm32h7xx_hal_mdma.c **** 
 853              		.loc 1 477 21 view .LVU348
 854 0080 1346     		mov	r3, r2
 513:Drivers/STM32H7xx_HAL_Driver/Src/stm32h7xx_hal_mdma.c ****       break;
 855              		.loc 1 513 32 view .LVU349
 856 0082 8265     		str	r2, [r0, #88]
 514:Drivers/STM32H7xx_HAL_Driver/Src/stm32h7xx_hal_mdma.c **** 
 857              		.loc 1 514 7 is_stmt 1 view .LVU350
 858 0084 CBE7     		b	.L56
 859              		.cfi_endproc
 860              	.LFE148:
 862 0086 00BF     		.section	.text.HAL_MDMA_LinkedList_CreateNode,"ax",%progbits
 863              		.align	1
 864              		.p2align 2,,3
 865              		.global	HAL_MDMA_LinkedList_CreateNode
 866              		.syntax unified
 867              		.thumb
 868              		.thumb_func
 869              		.fpu fpv5-d16
 871              	HAL_MDMA_LinkedList_CreateNode:
 872              	.LVL46:
 873              	.LFB149:
 570:Drivers/STM32H7xx_HAL_Driver/Src/stm32h7xx_hal_mdma.c ****   uint32_t addressMask;
 874              		.loc 1 570 1 view -0
 875              		.cfi_startproc
 876              		@ args = 0, pretend = 0, frame = 0
 877              		@ frame_needed = 0, uses_anonymous_args = 0
 878              		@ link register save eliminated.
 571:Drivers/STM32H7xx_HAL_Driver/Src/stm32h7xx_hal_mdma.c ****   uint32_t blockoffset;
 879              		.loc 1 571 3 view .LVU352
 572:Drivers/STM32H7xx_HAL_Driver/Src/stm32h7xx_hal_mdma.c **** 
 880              		.loc 1 572 3 view .LVU353
 575:Drivers/STM32H7xx_HAL_Driver/Src/stm32h7xx_hal_mdma.c ****   {
 881              		.loc 1 575 3 view .LVU354
 575:Drivers/STM32H7xx_HAL_Driver/Src/stm32h7xx_hal_mdma.c ****   {
 882              		.loc 1 575 5 is_stmt 0 view .LVU355
 883 0000 0028     		cmp	r0, #0
 884 0002 63D0     		beq	.L80
 885 0004 0346     		mov	r3, r0
 886 0006 B1FA81F0 		clz	r0, r1
 887              	.LVL47:
 575:Drivers/STM32H7xx_HAL_Driver/Src/stm32h7xx_hal_mdma.c ****   {
 888              		.loc 1 575 5 view .LVU356
 889 000a 4009     		lsrs	r0, r0, #5
 890 000c 0029     		cmp	r1, #0
 891 000e 5DD0     		beq	.L80
 581:Drivers/STM32H7xx_HAL_Driver/Src/stm32h7xx_hal_mdma.c ****   assert_param(IS_MDMA_ENDIANNESS_MODE(pNodeConfig->Init.Endianness));
 892              		.loc 1 581 3 is_stmt 1 view .LVU357
 582:Drivers/STM32H7xx_HAL_Driver/Src/stm32h7xx_hal_mdma.c ****   assert_param(IS_MDMA_REQUEST(pNodeConfig->Init.Request));
 893              		.loc 1 582 3 view .LVU358
 583:Drivers/STM32H7xx_HAL_Driver/Src/stm32h7xx_hal_mdma.c ****   assert_param(IS_MDMA_SOURCE_INC(pNodeConfig->Init.SourceInc));
 894              		.loc 1 583 3 view .LVU359
 584:Drivers/STM32H7xx_HAL_Driver/Src/stm32h7xx_hal_mdma.c ****   assert_param(IS_MDMA_DESTINATION_INC(pNodeConfig->Init.DestinationInc));
 895              		.loc 1 584 3 view .LVU360
 585:Drivers/STM32H7xx_HAL_Driver/Src/stm32h7xx_hal_mdma.c ****   assert_param(IS_MDMA_SOURCE_DATASIZE(pNodeConfig->Init.SourceDataSize));
ARM GAS  C:\Users\MadeuxS\AppData\Local\Temp\ccHqWtrv.s 			page 55


 896              		.loc 1 585 3 view .LVU361
 586:Drivers/STM32H7xx_HAL_Driver/Src/stm32h7xx_hal_mdma.c ****   assert_param(IS_MDMA_DESTINATION_DATASIZE(pNodeConfig->Init.DestDataSize));
 897              		.loc 1 586 3 view .LVU362
 587:Drivers/STM32H7xx_HAL_Driver/Src/stm32h7xx_hal_mdma.c ****   assert_param(IS_MDMA_DATA_ALIGNMENT(pNodeConfig->Init.DataAlignment));
 898              		.loc 1 587 3 view .LVU363
 588:Drivers/STM32H7xx_HAL_Driver/Src/stm32h7xx_hal_mdma.c ****   assert_param(IS_MDMA_SOURCE_BURST(pNodeConfig->Init.SourceBurst));
 899              		.loc 1 588 3 view .LVU364
 589:Drivers/STM32H7xx_HAL_Driver/Src/stm32h7xx_hal_mdma.c ****   assert_param(IS_MDMA_DESTINATION_BURST(pNodeConfig->Init.DestBurst));
 900              		.loc 1 589 3 view .LVU365
 590:Drivers/STM32H7xx_HAL_Driver/Src/stm32h7xx_hal_mdma.c ****   assert_param(IS_MDMA_BUFFER_TRANSFER_LENGTH(pNodeConfig->Init.BufferTransferLength));
 901              		.loc 1 590 3 view .LVU366
 591:Drivers/STM32H7xx_HAL_Driver/Src/stm32h7xx_hal_mdma.c ****   assert_param(IS_MDMA_TRANSFER_TRIGGER_MODE(pNodeConfig->Init.TransferTriggerMode));
 902              		.loc 1 591 3 view .LVU367
 592:Drivers/STM32H7xx_HAL_Driver/Src/stm32h7xx_hal_mdma.c ****   assert_param(IS_MDMA_BLOCK_ADDR_OFFSET(pNodeConfig->Init.SourceBlockAddressOffset));
 903              		.loc 1 592 3 view .LVU368
 593:Drivers/STM32H7xx_HAL_Driver/Src/stm32h7xx_hal_mdma.c ****   assert_param(IS_MDMA_BLOCK_ADDR_OFFSET(pNodeConfig->Init.DestBlockAddressOffset));
 904              		.loc 1 593 3 view .LVU369
 594:Drivers/STM32H7xx_HAL_Driver/Src/stm32h7xx_hal_mdma.c **** 
 905              		.loc 1 594 3 view .LVU370
 596:Drivers/STM32H7xx_HAL_Driver/Src/stm32h7xx_hal_mdma.c ****   assert_param(IS_MDMA_BLOCK_COUNT(pNodeConfig->BlockCount));
 906              		.loc 1 596 3 view .LVU371
 597:Drivers/STM32H7xx_HAL_Driver/Src/stm32h7xx_hal_mdma.c **** 
 907              		.loc 1 597 3 view .LVU372
 601:Drivers/STM32H7xx_HAL_Driver/Src/stm32h7xx_hal_mdma.c **** 
 908              		.loc 1 601 3 view .LVU373
 570:Drivers/STM32H7xx_HAL_Driver/Src/stm32h7xx_hal_mdma.c ****   uint32_t addressMask;
 909              		.loc 1 570 1 is_stmt 0 view .LVU374
 910 0010 10B4     		push	{r4}
 911              	.LCFI6:
 912              		.cfi_def_cfa_offset 4
 913              		.cfi_offset 4, -4
 614:Drivers/STM32H7xx_HAL_Driver/Src/stm32h7xx_hal_mdma.c ****             pNodeConfig->Init.TransferTriggerMode;
 914              		.loc 1 614 81 view .LVU375
 915 0012 D1E90424 		ldrd	r2, r4, [r1, #16]
 601:Drivers/STM32H7xx_HAL_Driver/Src/stm32h7xx_hal_mdma.c **** 
 916              		.loc 1 601 15 view .LVU376
 917 0016 5861     		str	r0, [r3, #20]
 604:Drivers/STM32H7xx_HAL_Driver/Src/stm32h7xx_hal_mdma.c ****   pNode->CMAR   = 0;
 918              		.loc 1 604 3 is_stmt 1 view .LVU377
