ARM GAS  C:\Users\MadeuxS\AppData\Local\Temp\ccJrku7c.s 			page 1


   1              		.cpu cortex-m7
   2              		.eabi_attribute 28, 1
   3              		.eabi_attribute 23, 1
   4              		.eabi_attribute 24, 1
   5              		.eabi_attribute 25, 1
   6              		.eabi_attribute 26, 1
   7              		.eabi_attribute 30, 2
   8              		.eabi_attribute 34, 1
   9              		.eabi_attribute 18, 4
  10              		.file	"stm32h7xx_hal_rcc.c"
  11              		.text
  12              	.Ltext0:
  13              		.cfi_sections	.debug_frame
  14              		.section	.text.HAL_RCC_GetSysClockFreq.part.0,"ax",%progbits
  15              		.align	1
  16              		.p2align 2,,3
  17              		.arch armv7e-m
  18              		.syntax unified
  19              		.thumb
  20              		.thumb_func
  21              		.fpu fpv5-d16
  23              	HAL_RCC_GetSysClockFreq.part.0:
  24              	.LFB158:
  25              		.file 1 "Drivers/STM32H7xx_HAL_Driver/Src/stm32h7xx_hal_rcc.c"
   1:Drivers/STM32H7xx_HAL_Driver/Src/stm32h7xx_hal_rcc.c **** /**
   2:Drivers/STM32H7xx_HAL_Driver/Src/stm32h7xx_hal_rcc.c ****   ******************************************************************************
   3:Drivers/STM32H7xx_HAL_Driver/Src/stm32h7xx_hal_rcc.c ****   * @file    stm32h7xx_hal_rcc.c
   4:Drivers/STM32H7xx_HAL_Driver/Src/stm32h7xx_hal_rcc.c ****   * @author  MCD Application Team
   5:Drivers/STM32H7xx_HAL_Driver/Src/stm32h7xx_hal_rcc.c ****   * @brief   RCC HAL module driver.
   6:Drivers/STM32H7xx_HAL_Driver/Src/stm32h7xx_hal_rcc.c ****   *          This file provides firmware functions to manage the following
   7:Drivers/STM32H7xx_HAL_Driver/Src/stm32h7xx_hal_rcc.c ****   *          functionalities of the Reset and Clock Control (RCC) peripheral:
   8:Drivers/STM32H7xx_HAL_Driver/Src/stm32h7xx_hal_rcc.c ****   *           + Initialization and de-initialization functions
   9:Drivers/STM32H7xx_HAL_Driver/Src/stm32h7xx_hal_rcc.c ****   *           + Peripheral Control functions
  10:Drivers/STM32H7xx_HAL_Driver/Src/stm32h7xx_hal_rcc.c ****   *
  11:Drivers/STM32H7xx_HAL_Driver/Src/stm32h7xx_hal_rcc.c ****   @verbatim
  12:Drivers/STM32H7xx_HAL_Driver/Src/stm32h7xx_hal_rcc.c ****   ==============================================================================
  13:Drivers/STM32H7xx_HAL_Driver/Src/stm32h7xx_hal_rcc.c ****                       ##### RCC specific features #####
  14:Drivers/STM32H7xx_HAL_Driver/Src/stm32h7xx_hal_rcc.c ****   ==============================================================================
  15:Drivers/STM32H7xx_HAL_Driver/Src/stm32h7xx_hal_rcc.c ****     [..]
  16:Drivers/STM32H7xx_HAL_Driver/Src/stm32h7xx_hal_rcc.c ****       After reset the device is running from Internal High Speed oscillator
  17:Drivers/STM32H7xx_HAL_Driver/Src/stm32h7xx_hal_rcc.c ****       (HSI 64MHz) with Flash 0 wait state,and all peripherals are off except
  18:Drivers/STM32H7xx_HAL_Driver/Src/stm32h7xx_hal_rcc.c ****       internal SRAM, Flash, JTAG and PWR
  19:Drivers/STM32H7xx_HAL_Driver/Src/stm32h7xx_hal_rcc.c ****       (+) There is no pre-scaler on High speed (AHB) and Low speed (APB) buses;
  20:Drivers/STM32H7xx_HAL_Driver/Src/stm32h7xx_hal_rcc.c ****           all peripherals mapped on these buses are running at HSI speed.
  21:Drivers/STM32H7xx_HAL_Driver/Src/stm32h7xx_hal_rcc.c ****       (+) The clock for all peripherals is switched off, except the SRAM and FLASH.
  22:Drivers/STM32H7xx_HAL_Driver/Src/stm32h7xx_hal_rcc.c ****       (+) All GPIOs are in analogue mode , except the JTAG pins which
  23:Drivers/STM32H7xx_HAL_Driver/Src/stm32h7xx_hal_rcc.c ****           are assigned to be used for debug purpose.
  24:Drivers/STM32H7xx_HAL_Driver/Src/stm32h7xx_hal_rcc.c **** 
  25:Drivers/STM32H7xx_HAL_Driver/Src/stm32h7xx_hal_rcc.c ****     [..]
  26:Drivers/STM32H7xx_HAL_Driver/Src/stm32h7xx_hal_rcc.c ****       Once the device started from reset, the user application has to:
  27:Drivers/STM32H7xx_HAL_Driver/Src/stm32h7xx_hal_rcc.c ****       (+) Configure the clock source to be used to drive the System clock
  28:Drivers/STM32H7xx_HAL_Driver/Src/stm32h7xx_hal_rcc.c ****           (if the application needs higher frequency/performance)
  29:Drivers/STM32H7xx_HAL_Driver/Src/stm32h7xx_hal_rcc.c ****       (+) Configure the System clock frequency and Flash settings
  30:Drivers/STM32H7xx_HAL_Driver/Src/stm32h7xx_hal_rcc.c ****       (+) Configure the AHB and APB buses pre-scalers
  31:Drivers/STM32H7xx_HAL_Driver/Src/stm32h7xx_hal_rcc.c ****       (+) Enable the clock for the peripheral(s) to be used
  32:Drivers/STM32H7xx_HAL_Driver/Src/stm32h7xx_hal_rcc.c ****       (+) Configure the clock kernel source(s) for peripherals which clocks are not
  33:Drivers/STM32H7xx_HAL_Driver/Src/stm32h7xx_hal_rcc.c ****           derived from the System clock through :RCC_D1CCIPR,RCC_D2CCIP1R,RCC_D2CCIP2R
ARM GAS  C:\Users\MadeuxS\AppData\Local\Temp\ccJrku7c.s 			page 2


  34:Drivers/STM32H7xx_HAL_Driver/Src/stm32h7xx_hal_rcc.c ****           and RCC_D3CCIPR registers
  35:Drivers/STM32H7xx_HAL_Driver/Src/stm32h7xx_hal_rcc.c **** 
  36:Drivers/STM32H7xx_HAL_Driver/Src/stm32h7xx_hal_rcc.c ****                       ##### RCC Limitations #####
  37:Drivers/STM32H7xx_HAL_Driver/Src/stm32h7xx_hal_rcc.c ****   ==============================================================================
  38:Drivers/STM32H7xx_HAL_Driver/Src/stm32h7xx_hal_rcc.c ****     [..]
  39:Drivers/STM32H7xx_HAL_Driver/Src/stm32h7xx_hal_rcc.c ****       A delay between an RCC peripheral clock enable and the effective peripheral
  40:Drivers/STM32H7xx_HAL_Driver/Src/stm32h7xx_hal_rcc.c ****       enabling should be taken into account in order to manage the peripheral read/write
  41:Drivers/STM32H7xx_HAL_Driver/Src/stm32h7xx_hal_rcc.c ****       from/to registers.
  42:Drivers/STM32H7xx_HAL_Driver/Src/stm32h7xx_hal_rcc.c ****       (+) This delay depends on the peripheral mapping.
  43:Drivers/STM32H7xx_HAL_Driver/Src/stm32h7xx_hal_rcc.c ****       (+) If peripheral is mapped on AHB: the delay is 2 AHB clock cycle
  44:Drivers/STM32H7xx_HAL_Driver/Src/stm32h7xx_hal_rcc.c ****           after the clock enable bit is set on the hardware register
  45:Drivers/STM32H7xx_HAL_Driver/Src/stm32h7xx_hal_rcc.c ****       (+) If peripheral is mapped on APB: the delay is 2 APB clock cycle
  46:Drivers/STM32H7xx_HAL_Driver/Src/stm32h7xx_hal_rcc.c ****           after the clock enable bit is set on the hardware register
  47:Drivers/STM32H7xx_HAL_Driver/Src/stm32h7xx_hal_rcc.c **** 
  48:Drivers/STM32H7xx_HAL_Driver/Src/stm32h7xx_hal_rcc.c ****     [..]
  49:Drivers/STM32H7xx_HAL_Driver/Src/stm32h7xx_hal_rcc.c ****       Implemented Workaround:
  50:Drivers/STM32H7xx_HAL_Driver/Src/stm32h7xx_hal_rcc.c ****       (+) For AHB & APB peripherals, a dummy read to the peripheral register has been
  51:Drivers/STM32H7xx_HAL_Driver/Src/stm32h7xx_hal_rcc.c ****           inserted in each __HAL_RCC_PPP_CLK_ENABLE() macro.
  52:Drivers/STM32H7xx_HAL_Driver/Src/stm32h7xx_hal_rcc.c **** 
  53:Drivers/STM32H7xx_HAL_Driver/Src/stm32h7xx_hal_rcc.c ****   @endverbatim
  54:Drivers/STM32H7xx_HAL_Driver/Src/stm32h7xx_hal_rcc.c ****  ******************************************************************************
  55:Drivers/STM32H7xx_HAL_Driver/Src/stm32h7xx_hal_rcc.c ****   * @attention
  56:Drivers/STM32H7xx_HAL_Driver/Src/stm32h7xx_hal_rcc.c ****   *
  57:Drivers/STM32H7xx_HAL_Driver/Src/stm32h7xx_hal_rcc.c ****   * <h2><center>&copy; COPYRIGHT(c) 2017 STMicroelectronics.
  58:Drivers/STM32H7xx_HAL_Driver/Src/stm32h7xx_hal_rcc.c ****   * All rights reserved.</center></h2>
  59:Drivers/STM32H7xx_HAL_Driver/Src/stm32h7xx_hal_rcc.c ****   *
  60:Drivers/STM32H7xx_HAL_Driver/Src/stm32h7xx_hal_rcc.c ****   * This software component is licensed by ST under BSD 3-Clause license,
  61:Drivers/STM32H7xx_HAL_Driver/Src/stm32h7xx_hal_rcc.c ****   * the "License"; You may not use this file except in compliance with the
  62:Drivers/STM32H7xx_HAL_Driver/Src/stm32h7xx_hal_rcc.c ****   * License. You may obtain a copy of the License at:
  63:Drivers/STM32H7xx_HAL_Driver/Src/stm32h7xx_hal_rcc.c ****   *                        opensource.org/licenses/BSD-3-Clause
  64:Drivers/STM32H7xx_HAL_Driver/Src/stm32h7xx_hal_rcc.c ****   *
  65:Drivers/STM32H7xx_HAL_Driver/Src/stm32h7xx_hal_rcc.c ****   ******************************************************************************
  66:Drivers/STM32H7xx_HAL_Driver/Src/stm32h7xx_hal_rcc.c ****   */
  67:Drivers/STM32H7xx_HAL_Driver/Src/stm32h7xx_hal_rcc.c **** 
  68:Drivers/STM32H7xx_HAL_Driver/Src/stm32h7xx_hal_rcc.c **** /* Includes ------------------------------------------------------------------*/
  69:Drivers/STM32H7xx_HAL_Driver/Src/stm32h7xx_hal_rcc.c **** #include "stm32h7xx_hal.h"
  70:Drivers/STM32H7xx_HAL_Driver/Src/stm32h7xx_hal_rcc.c **** 
  71:Drivers/STM32H7xx_HAL_Driver/Src/stm32h7xx_hal_rcc.c **** /** @addtogroup STM32H7xx_HAL_Driver
  72:Drivers/STM32H7xx_HAL_Driver/Src/stm32h7xx_hal_rcc.c ****   * @{
  73:Drivers/STM32H7xx_HAL_Driver/Src/stm32h7xx_hal_rcc.c ****   */
  74:Drivers/STM32H7xx_HAL_Driver/Src/stm32h7xx_hal_rcc.c **** 
  75:Drivers/STM32H7xx_HAL_Driver/Src/stm32h7xx_hal_rcc.c **** /** @defgroup RCC  RCC
  76:Drivers/STM32H7xx_HAL_Driver/Src/stm32h7xx_hal_rcc.c ****   * @brief RCC HAL module driver
  77:Drivers/STM32H7xx_HAL_Driver/Src/stm32h7xx_hal_rcc.c ****   * @{
  78:Drivers/STM32H7xx_HAL_Driver/Src/stm32h7xx_hal_rcc.c ****   */
  79:Drivers/STM32H7xx_HAL_Driver/Src/stm32h7xx_hal_rcc.c **** 
  80:Drivers/STM32H7xx_HAL_Driver/Src/stm32h7xx_hal_rcc.c **** #ifdef HAL_RCC_MODULE_ENABLED
  81:Drivers/STM32H7xx_HAL_Driver/Src/stm32h7xx_hal_rcc.c **** 
  82:Drivers/STM32H7xx_HAL_Driver/Src/stm32h7xx_hal_rcc.c **** /* Private typedef -----------------------------------------------------------*/
  83:Drivers/STM32H7xx_HAL_Driver/Src/stm32h7xx_hal_rcc.c **** /* Private define ------------------------------------------------------------*/
  84:Drivers/STM32H7xx_HAL_Driver/Src/stm32h7xx_hal_rcc.c **** /* Private macro -------------------------------------------------------------*/
  85:Drivers/STM32H7xx_HAL_Driver/Src/stm32h7xx_hal_rcc.c **** /** @defgroup RCC_Private_Macros RCC Private Macros
  86:Drivers/STM32H7xx_HAL_Driver/Src/stm32h7xx_hal_rcc.c ****   * @{
  87:Drivers/STM32H7xx_HAL_Driver/Src/stm32h7xx_hal_rcc.c ****   */
  88:Drivers/STM32H7xx_HAL_Driver/Src/stm32h7xx_hal_rcc.c **** #define MCO1_CLK_ENABLE()     __HAL_RCC_GPIOA_CLK_ENABLE()
  89:Drivers/STM32H7xx_HAL_Driver/Src/stm32h7xx_hal_rcc.c **** #define MCO1_GPIO_PORT        GPIOA
  90:Drivers/STM32H7xx_HAL_Driver/Src/stm32h7xx_hal_rcc.c **** #define MCO1_PIN              GPIO_PIN_8
ARM GAS  C:\Users\MadeuxS\AppData\Local\Temp\ccJrku7c.s 			page 3


  91:Drivers/STM32H7xx_HAL_Driver/Src/stm32h7xx_hal_rcc.c **** 
  92:Drivers/STM32H7xx_HAL_Driver/Src/stm32h7xx_hal_rcc.c **** #define MCO2_CLK_ENABLE()      __HAL_RCC_GPIOC_CLK_ENABLE()
  93:Drivers/STM32H7xx_HAL_Driver/Src/stm32h7xx_hal_rcc.c **** #define MCO2_GPIO_PORT         GPIOC
  94:Drivers/STM32H7xx_HAL_Driver/Src/stm32h7xx_hal_rcc.c **** #define MCO2_PIN               GPIO_PIN_9
  95:Drivers/STM32H7xx_HAL_Driver/Src/stm32h7xx_hal_rcc.c **** 
  96:Drivers/STM32H7xx_HAL_Driver/Src/stm32h7xx_hal_rcc.c **** /**
  97:Drivers/STM32H7xx_HAL_Driver/Src/stm32h7xx_hal_rcc.c ****   * @}
  98:Drivers/STM32H7xx_HAL_Driver/Src/stm32h7xx_hal_rcc.c ****   */
  99:Drivers/STM32H7xx_HAL_Driver/Src/stm32h7xx_hal_rcc.c **** /* Private variables ---------------------------------------------------------*/
 100:Drivers/STM32H7xx_HAL_Driver/Src/stm32h7xx_hal_rcc.c **** /** @defgroup RCC_Private_Variables RCC Private Variables
 101:Drivers/STM32H7xx_HAL_Driver/Src/stm32h7xx_hal_rcc.c ****   * @{
 102:Drivers/STM32H7xx_HAL_Driver/Src/stm32h7xx_hal_rcc.c ****   */
 103:Drivers/STM32H7xx_HAL_Driver/Src/stm32h7xx_hal_rcc.c **** 
 104:Drivers/STM32H7xx_HAL_Driver/Src/stm32h7xx_hal_rcc.c **** /**
 105:Drivers/STM32H7xx_HAL_Driver/Src/stm32h7xx_hal_rcc.c ****   * @}
 106:Drivers/STM32H7xx_HAL_Driver/Src/stm32h7xx_hal_rcc.c ****   */
 107:Drivers/STM32H7xx_HAL_Driver/Src/stm32h7xx_hal_rcc.c **** /* Private function prototypes -----------------------------------------------*/
 108:Drivers/STM32H7xx_HAL_Driver/Src/stm32h7xx_hal_rcc.c **** /* Exported functions --------------------------------------------------------*/
 109:Drivers/STM32H7xx_HAL_Driver/Src/stm32h7xx_hal_rcc.c **** 
 110:Drivers/STM32H7xx_HAL_Driver/Src/stm32h7xx_hal_rcc.c **** /** @defgroup RCC_Exported_Functions RCC Exported Functions
 111:Drivers/STM32H7xx_HAL_Driver/Src/stm32h7xx_hal_rcc.c ****   * @{
 112:Drivers/STM32H7xx_HAL_Driver/Src/stm32h7xx_hal_rcc.c ****   */
 113:Drivers/STM32H7xx_HAL_Driver/Src/stm32h7xx_hal_rcc.c **** 
 114:Drivers/STM32H7xx_HAL_Driver/Src/stm32h7xx_hal_rcc.c **** /** @defgroup RCC_Exported_Functions_Group1 Initialization and de-initialization functions
 115:Drivers/STM32H7xx_HAL_Driver/Src/stm32h7xx_hal_rcc.c ****  *  @brief    Initialization and Configuration functions
 116:Drivers/STM32H7xx_HAL_Driver/Src/stm32h7xx_hal_rcc.c ****  *
 117:Drivers/STM32H7xx_HAL_Driver/Src/stm32h7xx_hal_rcc.c **** @verbatim
 118:Drivers/STM32H7xx_HAL_Driver/Src/stm32h7xx_hal_rcc.c ****  ===============================================================================
 119:Drivers/STM32H7xx_HAL_Driver/Src/stm32h7xx_hal_rcc.c ****            ##### Initialization and de-initialization functions #####
 120:Drivers/STM32H7xx_HAL_Driver/Src/stm32h7xx_hal_rcc.c ****  ===============================================================================
 121:Drivers/STM32H7xx_HAL_Driver/Src/stm32h7xx_hal_rcc.c ****     [..]
 122:Drivers/STM32H7xx_HAL_Driver/Src/stm32h7xx_hal_rcc.c ****       This section provides functions allowing to configure the internal/external oscillators
 123:Drivers/STM32H7xx_HAL_Driver/Src/stm32h7xx_hal_rcc.c ****       (HSE, HSI, LSE,CSI, LSI,HSI48, PLL, CSS and MCO) and the System buses clocks (SYSCLK, AHB3, A
 124:Drivers/STM32H7xx_HAL_Driver/Src/stm32h7xx_hal_rcc.c ****        AHB2,AHB4,APB3, APB1L, APB1H, APB2, and APB4).
 125:Drivers/STM32H7xx_HAL_Driver/Src/stm32h7xx_hal_rcc.c **** 
 126:Drivers/STM32H7xx_HAL_Driver/Src/stm32h7xx_hal_rcc.c ****     [..] Internal/external clock and PLL configuration
 127:Drivers/STM32H7xx_HAL_Driver/Src/stm32h7xx_hal_rcc.c ****          (#) HSI (high-speed internal), 64 MHz factory-trimmed RC used directly or through
 128:Drivers/STM32H7xx_HAL_Driver/Src/stm32h7xx_hal_rcc.c ****              the PLL as System clock source.
 129:Drivers/STM32H7xx_HAL_Driver/Src/stm32h7xx_hal_rcc.c ****          (#) CSI is a low-power RC oscillator which can be used directly as system clock, periphera
 130:Drivers/STM32H7xx_HAL_Driver/Src/stm32h7xx_hal_rcc.c ****              clock, or PLL input.But even with frequency calibration, is less accurate than an
 131:Drivers/STM32H7xx_HAL_Driver/Src/stm32h7xx_hal_rcc.c ****              external crystal oscillator or ceramic resonator.
 132:Drivers/STM32H7xx_HAL_Driver/Src/stm32h7xx_hal_rcc.c ****          (#) LSI (low-speed internal), 32 KHz low consumption RC used as IWDG and/or RTC
 133:Drivers/STM32H7xx_HAL_Driver/Src/stm32h7xx_hal_rcc.c ****              clock source.
 134:Drivers/STM32H7xx_HAL_Driver/Src/stm32h7xx_hal_rcc.c **** 
 135:Drivers/STM32H7xx_HAL_Driver/Src/stm32h7xx_hal_rcc.c ****          (#) HSE (high-speed external), 4 to 48 MHz crystal oscillator used directly or
 136:Drivers/STM32H7xx_HAL_Driver/Src/stm32h7xx_hal_rcc.c ****              through the PLL as System clock source. Can be used also as RTC clock source.
 137:Drivers/STM32H7xx_HAL_Driver/Src/stm32h7xx_hal_rcc.c **** 
 138:Drivers/STM32H7xx_HAL_Driver/Src/stm32h7xx_hal_rcc.c ****          (#) LSE (low-speed external), 32 KHz oscillator used as RTC clock source.
 139:Drivers/STM32H7xx_HAL_Driver/Src/stm32h7xx_hal_rcc.c **** 
 140:Drivers/STM32H7xx_HAL_Driver/Src/stm32h7xx_hal_rcc.c ****          (#) PLL , The RCC features three independent PLLs (clocked by HSI , HSE or CSI),
 141:Drivers/STM32H7xx_HAL_Driver/Src/stm32h7xx_hal_rcc.c ****              featuring three different output clocks and able  to work either in integer or Fractio
 142:Drivers/STM32H7xx_HAL_Driver/Src/stm32h7xx_hal_rcc.c ****            (++) A main PLL, PLL1, which is generally used to provide clocks to the CPU
 143:Drivers/STM32H7xx_HAL_Driver/Src/stm32h7xx_hal_rcc.c ****                 and to some peripherals.
 144:Drivers/STM32H7xx_HAL_Driver/Src/stm32h7xx_hal_rcc.c ****            (++) Two dedicated PLLs, PLL2 and PLL3, which are used to generate the kernel clock for 
 145:Drivers/STM32H7xx_HAL_Driver/Src/stm32h7xx_hal_rcc.c **** 
 146:Drivers/STM32H7xx_HAL_Driver/Src/stm32h7xx_hal_rcc.c **** 
 147:Drivers/STM32H7xx_HAL_Driver/Src/stm32h7xx_hal_rcc.c ****          (#) CSS (Clock security system), once enabled and if a HSE clock failure occurs
ARM GAS  C:\Users\MadeuxS\AppData\Local\Temp\ccJrku7c.s 			page 4


 148:Drivers/STM32H7xx_HAL_Driver/Src/stm32h7xx_hal_rcc.c ****             (HSE used directly or through PLL as System clock source), the System clock
 149:Drivers/STM32H7xx_HAL_Driver/Src/stm32h7xx_hal_rcc.c ****              is automatically switched to HSI and an interrupt is generated if enabled.
 150:Drivers/STM32H7xx_HAL_Driver/Src/stm32h7xx_hal_rcc.c ****              The interrupt is linked to the Cortex-M NMI (Non-Mask-able Interrupt)
 151:Drivers/STM32H7xx_HAL_Driver/Src/stm32h7xx_hal_rcc.c ****              exception vector.
 152:Drivers/STM32H7xx_HAL_Driver/Src/stm32h7xx_hal_rcc.c **** 
 153:Drivers/STM32H7xx_HAL_Driver/Src/stm32h7xx_hal_rcc.c ****          (#) MCO1 (micro controller clock output), used to output HSI, LSE, HSE, PLL1(PLL1_Q)
 154:Drivers/STM32H7xx_HAL_Driver/Src/stm32h7xx_hal_rcc.c ****              or HSI48 clock (through a configurable pre-scaler) on PA8 pin.
 155:Drivers/STM32H7xx_HAL_Driver/Src/stm32h7xx_hal_rcc.c **** 
 156:Drivers/STM32H7xx_HAL_Driver/Src/stm32h7xx_hal_rcc.c ****          (#) MCO2 (micro controller clock output), used to output HSE, PLL2(PLL2_P), SYSCLK,
 157:Drivers/STM32H7xx_HAL_Driver/Src/stm32h7xx_hal_rcc.c ****              LSI, CSI, or PLL1(PLL1_P) clock (through a configurable pre-scaler) on PC9 pin.
 158:Drivers/STM32H7xx_HAL_Driver/Src/stm32h7xx_hal_rcc.c **** 
 159:Drivers/STM32H7xx_HAL_Driver/Src/stm32h7xx_hal_rcc.c ****     [..] System, AHB and APB buses clocks configuration
 160:Drivers/STM32H7xx_HAL_Driver/Src/stm32h7xx_hal_rcc.c ****          (#) Several clock sources can be used to drive the System clock (SYSCLK): CSI,HSI,
 161:Drivers/STM32H7xx_HAL_Driver/Src/stm32h7xx_hal_rcc.c ****              HSE and PLL.
 162:Drivers/STM32H7xx_HAL_Driver/Src/stm32h7xx_hal_rcc.c ****              The AHB clock (HCLK) is derived from System core clock through configurable
 163:Drivers/STM32H7xx_HAL_Driver/Src/stm32h7xx_hal_rcc.c ****              pre-scaler and used to clock the CPU, memory and peripherals mapped
 164:Drivers/STM32H7xx_HAL_Driver/Src/stm32h7xx_hal_rcc.c ****              on AHB and APB bus of the 3 Domains (D1, D2, D3)* through configurable pre-scalers
 165:Drivers/STM32H7xx_HAL_Driver/Src/stm32h7xx_hal_rcc.c ****              and used to clock the peripherals mapped on these buses. You can use
 166:Drivers/STM32H7xx_HAL_Driver/Src/stm32h7xx_hal_rcc.c ****              "HAL_RCC_GetSysClockFreq()" function to retrieve system clock frequency.
 167:Drivers/STM32H7xx_HAL_Driver/Src/stm32h7xx_hal_rcc.c **** 
 168:Drivers/STM32H7xx_HAL_Driver/Src/stm32h7xx_hal_rcc.c ****          -@- All the peripheral clocks are derived from the System clock (SYSCLK) except those
 169:Drivers/STM32H7xx_HAL_Driver/Src/stm32h7xx_hal_rcc.c ****              with dual clock domain where kernel source clock could be selected through
 170:Drivers/STM32H7xx_HAL_Driver/Src/stm32h7xx_hal_rcc.c ****              RCC_D1CCIPR,RCC_D2CCIP1R,RCC_D2CCIP2R and RCC_D3CCIPR registers.
 171:Drivers/STM32H7xx_HAL_Driver/Src/stm32h7xx_hal_rcc.c **** 
 172:Drivers/STM32H7xx_HAL_Driver/Src/stm32h7xx_hal_rcc.c ****      (*) : 2 Domains (CD and SRD) for stm32h7a3xx and stm32h7b3xx family lines.
 173:Drivers/STM32H7xx_HAL_Driver/Src/stm32h7xx_hal_rcc.c **** @endverbatim
 174:Drivers/STM32H7xx_HAL_Driver/Src/stm32h7xx_hal_rcc.c ****   * @{
 175:Drivers/STM32H7xx_HAL_Driver/Src/stm32h7xx_hal_rcc.c ****   */
 176:Drivers/STM32H7xx_HAL_Driver/Src/stm32h7xx_hal_rcc.c **** 
 177:Drivers/STM32H7xx_HAL_Driver/Src/stm32h7xx_hal_rcc.c **** /**
 178:Drivers/STM32H7xx_HAL_Driver/Src/stm32h7xx_hal_rcc.c ****   * @brief  Resets the RCC clock configuration to the default reset state.
 179:Drivers/STM32H7xx_HAL_Driver/Src/stm32h7xx_hal_rcc.c ****   * @note   The default reset state of the clock configuration is given below:
 180:Drivers/STM32H7xx_HAL_Driver/Src/stm32h7xx_hal_rcc.c ****   *            - HSI ON and used as system clock source
 181:Drivers/STM32H7xx_HAL_Driver/Src/stm32h7xx_hal_rcc.c ****   *            - HSE, PLL1, PLL2 and PLL3 OFF
 182:Drivers/STM32H7xx_HAL_Driver/Src/stm32h7xx_hal_rcc.c ****   *            - AHB, APB Bus pre-scaler set to 1.
 183:Drivers/STM32H7xx_HAL_Driver/Src/stm32h7xx_hal_rcc.c ****   *            - CSS, MCO1 and MCO2 OFF
 184:Drivers/STM32H7xx_HAL_Driver/Src/stm32h7xx_hal_rcc.c ****   *            - All interrupts disabled
 185:Drivers/STM32H7xx_HAL_Driver/Src/stm32h7xx_hal_rcc.c ****   * @note   This function doesn't modify the configuration of the
 186:Drivers/STM32H7xx_HAL_Driver/Src/stm32h7xx_hal_rcc.c ****   *            - Peripheral clocks
 187:Drivers/STM32H7xx_HAL_Driver/Src/stm32h7xx_hal_rcc.c ****   *            - LSI, LSE and RTC clocks
 188:Drivers/STM32H7xx_HAL_Driver/Src/stm32h7xx_hal_rcc.c ****   * @retval HAL status
 189:Drivers/STM32H7xx_HAL_Driver/Src/stm32h7xx_hal_rcc.c ****   */
 190:Drivers/STM32H7xx_HAL_Driver/Src/stm32h7xx_hal_rcc.c **** HAL_StatusTypeDef HAL_RCC_DeInit(void)
 191:Drivers/STM32H7xx_HAL_Driver/Src/stm32h7xx_hal_rcc.c **** {
 192:Drivers/STM32H7xx_HAL_Driver/Src/stm32h7xx_hal_rcc.c ****   uint32_t tickstart;
 193:Drivers/STM32H7xx_HAL_Driver/Src/stm32h7xx_hal_rcc.c **** 
 194:Drivers/STM32H7xx_HAL_Driver/Src/stm32h7xx_hal_rcc.c ****         /* Increasing the CPU frequency */
 195:Drivers/STM32H7xx_HAL_Driver/Src/stm32h7xx_hal_rcc.c ****   if(FLASH_LATENCY_DEFAULT  > __HAL_FLASH_GET_LATENCY())
 196:Drivers/STM32H7xx_HAL_Driver/Src/stm32h7xx_hal_rcc.c ****   {
 197:Drivers/STM32H7xx_HAL_Driver/Src/stm32h7xx_hal_rcc.c ****     /* Program the new number of wait states to the LATENCY bits in the FLASH_ACR register */
 198:Drivers/STM32H7xx_HAL_Driver/Src/stm32h7xx_hal_rcc.c ****     __HAL_FLASH_SET_LATENCY(FLASH_LATENCY_DEFAULT);
 199:Drivers/STM32H7xx_HAL_Driver/Src/stm32h7xx_hal_rcc.c **** 
 200:Drivers/STM32H7xx_HAL_Driver/Src/stm32h7xx_hal_rcc.c ****     /* Check that the new number of wait states is taken into account to access the Flash
 201:Drivers/STM32H7xx_HAL_Driver/Src/stm32h7xx_hal_rcc.c ****     memory by reading the FLASH_ACR register */
 202:Drivers/STM32H7xx_HAL_Driver/Src/stm32h7xx_hal_rcc.c ****     if(__HAL_FLASH_GET_LATENCY() != FLASH_LATENCY_DEFAULT)
 203:Drivers/STM32H7xx_HAL_Driver/Src/stm32h7xx_hal_rcc.c ****     {
 204:Drivers/STM32H7xx_HAL_Driver/Src/stm32h7xx_hal_rcc.c ****       return HAL_ERROR;
ARM GAS  C:\Users\MadeuxS\AppData\Local\Temp\ccJrku7c.s 			page 5


 205:Drivers/STM32H7xx_HAL_Driver/Src/stm32h7xx_hal_rcc.c ****     }
 206:Drivers/STM32H7xx_HAL_Driver/Src/stm32h7xx_hal_rcc.c **** 
 207:Drivers/STM32H7xx_HAL_Driver/Src/stm32h7xx_hal_rcc.c ****   }
 208:Drivers/STM32H7xx_HAL_Driver/Src/stm32h7xx_hal_rcc.c **** 
 209:Drivers/STM32H7xx_HAL_Driver/Src/stm32h7xx_hal_rcc.c **** 
 210:Drivers/STM32H7xx_HAL_Driver/Src/stm32h7xx_hal_rcc.c ****   /* Get Start Tick */
 211:Drivers/STM32H7xx_HAL_Driver/Src/stm32h7xx_hal_rcc.c ****   tickstart = HAL_GetTick();
 212:Drivers/STM32H7xx_HAL_Driver/Src/stm32h7xx_hal_rcc.c **** 
 213:Drivers/STM32H7xx_HAL_Driver/Src/stm32h7xx_hal_rcc.c ****   /* Set HSION bit */
 214:Drivers/STM32H7xx_HAL_Driver/Src/stm32h7xx_hal_rcc.c ****   SET_BIT(RCC->CR, RCC_CR_HSION);
 215:Drivers/STM32H7xx_HAL_Driver/Src/stm32h7xx_hal_rcc.c **** 
 216:Drivers/STM32H7xx_HAL_Driver/Src/stm32h7xx_hal_rcc.c ****   /* Wait till HSI is ready */
 217:Drivers/STM32H7xx_HAL_Driver/Src/stm32h7xx_hal_rcc.c ****   while (READ_BIT(RCC->CR, RCC_CR_HSIRDY) == 0U)
 218:Drivers/STM32H7xx_HAL_Driver/Src/stm32h7xx_hal_rcc.c ****   {
 219:Drivers/STM32H7xx_HAL_Driver/Src/stm32h7xx_hal_rcc.c ****     if ((HAL_GetTick() - tickstart) > HSI_TIMEOUT_VALUE)
 220:Drivers/STM32H7xx_HAL_Driver/Src/stm32h7xx_hal_rcc.c ****     {
 221:Drivers/STM32H7xx_HAL_Driver/Src/stm32h7xx_hal_rcc.c ****       return HAL_TIMEOUT;
 222:Drivers/STM32H7xx_HAL_Driver/Src/stm32h7xx_hal_rcc.c ****     }
 223:Drivers/STM32H7xx_HAL_Driver/Src/stm32h7xx_hal_rcc.c ****   }
 224:Drivers/STM32H7xx_HAL_Driver/Src/stm32h7xx_hal_rcc.c **** 
 225:Drivers/STM32H7xx_HAL_Driver/Src/stm32h7xx_hal_rcc.c ****   /* Set HSITRIM[6:0] bits to the reset value */
 226:Drivers/STM32H7xx_HAL_Driver/Src/stm32h7xx_hal_rcc.c ****   SET_BIT(RCC->HSICFGR, RCC_HSICFGR_HSITRIM_6);
 227:Drivers/STM32H7xx_HAL_Driver/Src/stm32h7xx_hal_rcc.c **** 
 228:Drivers/STM32H7xx_HAL_Driver/Src/stm32h7xx_hal_rcc.c ****   /* Reset CFGR register */
 229:Drivers/STM32H7xx_HAL_Driver/Src/stm32h7xx_hal_rcc.c ****   CLEAR_REG(RCC->CFGR);
 230:Drivers/STM32H7xx_HAL_Driver/Src/stm32h7xx_hal_rcc.c **** 
 231:Drivers/STM32H7xx_HAL_Driver/Src/stm32h7xx_hal_rcc.c ****   /* Update the SystemCoreClock and SystemD2Clock global variables */
 232:Drivers/STM32H7xx_HAL_Driver/Src/stm32h7xx_hal_rcc.c ****   SystemCoreClock = HSI_VALUE;
 233:Drivers/STM32H7xx_HAL_Driver/Src/stm32h7xx_hal_rcc.c ****   SystemD2Clock = HSI_VALUE;
 234:Drivers/STM32H7xx_HAL_Driver/Src/stm32h7xx_hal_rcc.c **** 
 235:Drivers/STM32H7xx_HAL_Driver/Src/stm32h7xx_hal_rcc.c ****   /* Adapt Systick interrupt period */
 236:Drivers/STM32H7xx_HAL_Driver/Src/stm32h7xx_hal_rcc.c ****   if(HAL_InitTick(uwTickPrio) != HAL_OK)
 237:Drivers/STM32H7xx_HAL_Driver/Src/stm32h7xx_hal_rcc.c ****   {
 238:Drivers/STM32H7xx_HAL_Driver/Src/stm32h7xx_hal_rcc.c ****     return HAL_ERROR;
 239:Drivers/STM32H7xx_HAL_Driver/Src/stm32h7xx_hal_rcc.c ****   }
 240:Drivers/STM32H7xx_HAL_Driver/Src/stm32h7xx_hal_rcc.c **** 
 241:Drivers/STM32H7xx_HAL_Driver/Src/stm32h7xx_hal_rcc.c ****   /* Get Start Tick */
 242:Drivers/STM32H7xx_HAL_Driver/Src/stm32h7xx_hal_rcc.c ****   tickstart = HAL_GetTick();
 243:Drivers/STM32H7xx_HAL_Driver/Src/stm32h7xx_hal_rcc.c **** 
 244:Drivers/STM32H7xx_HAL_Driver/Src/stm32h7xx_hal_rcc.c ****   /* Wait till clock switch is ready */
 245:Drivers/STM32H7xx_HAL_Driver/Src/stm32h7xx_hal_rcc.c ****   while (READ_BIT(RCC->CFGR, RCC_CFGR_SWS) != 0U)
 246:Drivers/STM32H7xx_HAL_Driver/Src/stm32h7xx_hal_rcc.c ****   {
 247:Drivers/STM32H7xx_HAL_Driver/Src/stm32h7xx_hal_rcc.c ****     if ((HAL_GetTick() - tickstart) > CLOCKSWITCH_TIMEOUT_VALUE)
 248:Drivers/STM32H7xx_HAL_Driver/Src/stm32h7xx_hal_rcc.c ****     {
 249:Drivers/STM32H7xx_HAL_Driver/Src/stm32h7xx_hal_rcc.c ****       return HAL_TIMEOUT;
 250:Drivers/STM32H7xx_HAL_Driver/Src/stm32h7xx_hal_rcc.c ****     }
 251:Drivers/STM32H7xx_HAL_Driver/Src/stm32h7xx_hal_rcc.c ****   }
 252:Drivers/STM32H7xx_HAL_Driver/Src/stm32h7xx_hal_rcc.c **** 
 253:Drivers/STM32H7xx_HAL_Driver/Src/stm32h7xx_hal_rcc.c ****   /* Get Start Tick */
 254:Drivers/STM32H7xx_HAL_Driver/Src/stm32h7xx_hal_rcc.c ****   tickstart = HAL_GetTick();
 255:Drivers/STM32H7xx_HAL_Driver/Src/stm32h7xx_hal_rcc.c **** 
 256:Drivers/STM32H7xx_HAL_Driver/Src/stm32h7xx_hal_rcc.c ****   /* Reset CSION, CSIKERON, HSEON, HSI48ON, HSECSSON, HSIDIV bits */
 257:Drivers/STM32H7xx_HAL_Driver/Src/stm32h7xx_hal_rcc.c ****   CLEAR_BIT(RCC->CR, RCC_CR_HSEON | RCC_CR_HSIKERON| RCC_CR_HSIDIV| RCC_CR_HSIDIVF| RCC_CR_CSION | 
 258:Drivers/STM32H7xx_HAL_Driver/Src/stm32h7xx_hal_rcc.c ****   | RCC_CR_HSI48ON | RCC_CR_CSSHSEON);
 259:Drivers/STM32H7xx_HAL_Driver/Src/stm32h7xx_hal_rcc.c **** 
 260:Drivers/STM32H7xx_HAL_Driver/Src/stm32h7xx_hal_rcc.c ****   /* Wait till HSE is disabled */
 261:Drivers/STM32H7xx_HAL_Driver/Src/stm32h7xx_hal_rcc.c ****   while (READ_BIT(RCC->CR, RCC_CR_HSERDY) != 0U)
ARM GAS  C:\Users\MadeuxS\AppData\Local\Temp\ccJrku7c.s 			page 6


 262:Drivers/STM32H7xx_HAL_Driver/Src/stm32h7xx_hal_rcc.c ****   {
 263:Drivers/STM32H7xx_HAL_Driver/Src/stm32h7xx_hal_rcc.c ****     if ((HAL_GetTick() - tickstart) > HSE_TIMEOUT_VALUE)
 264:Drivers/STM32H7xx_HAL_Driver/Src/stm32h7xx_hal_rcc.c ****     {
 265:Drivers/STM32H7xx_HAL_Driver/Src/stm32h7xx_hal_rcc.c ****       return HAL_TIMEOUT;
 266:Drivers/STM32H7xx_HAL_Driver/Src/stm32h7xx_hal_rcc.c ****     }
 267:Drivers/STM32H7xx_HAL_Driver/Src/stm32h7xx_hal_rcc.c ****   }
 268:Drivers/STM32H7xx_HAL_Driver/Src/stm32h7xx_hal_rcc.c **** 
 269:Drivers/STM32H7xx_HAL_Driver/Src/stm32h7xx_hal_rcc.c ****   /* Get Start Tick */
 270:Drivers/STM32H7xx_HAL_Driver/Src/stm32h7xx_hal_rcc.c ****   tickstart = HAL_GetTick();
 271:Drivers/STM32H7xx_HAL_Driver/Src/stm32h7xx_hal_rcc.c **** 
 272:Drivers/STM32H7xx_HAL_Driver/Src/stm32h7xx_hal_rcc.c ****   /* Clear PLLON bit */
 273:Drivers/STM32H7xx_HAL_Driver/Src/stm32h7xx_hal_rcc.c ****   CLEAR_BIT(RCC->CR, RCC_CR_PLL1ON);
 274:Drivers/STM32H7xx_HAL_Driver/Src/stm32h7xx_hal_rcc.c **** 
 275:Drivers/STM32H7xx_HAL_Driver/Src/stm32h7xx_hal_rcc.c ****   /* Wait till PLL is disabled */
 276:Drivers/STM32H7xx_HAL_Driver/Src/stm32h7xx_hal_rcc.c ****   while (READ_BIT(RCC->CR, RCC_CR_PLL1RDY) != 0U)
 277:Drivers/STM32H7xx_HAL_Driver/Src/stm32h7xx_hal_rcc.c ****   {
 278:Drivers/STM32H7xx_HAL_Driver/Src/stm32h7xx_hal_rcc.c ****     if ((HAL_GetTick() - tickstart) > PLL_TIMEOUT_VALUE)
 279:Drivers/STM32H7xx_HAL_Driver/Src/stm32h7xx_hal_rcc.c ****     {
 280:Drivers/STM32H7xx_HAL_Driver/Src/stm32h7xx_hal_rcc.c ****       return HAL_TIMEOUT;
 281:Drivers/STM32H7xx_HAL_Driver/Src/stm32h7xx_hal_rcc.c ****     }
 282:Drivers/STM32H7xx_HAL_Driver/Src/stm32h7xx_hal_rcc.c ****   }
 283:Drivers/STM32H7xx_HAL_Driver/Src/stm32h7xx_hal_rcc.c **** 
 284:Drivers/STM32H7xx_HAL_Driver/Src/stm32h7xx_hal_rcc.c ****   /* Get Start Tick */
 285:Drivers/STM32H7xx_HAL_Driver/Src/stm32h7xx_hal_rcc.c ****   tickstart = HAL_GetTick();
 286:Drivers/STM32H7xx_HAL_Driver/Src/stm32h7xx_hal_rcc.c **** 
 287:Drivers/STM32H7xx_HAL_Driver/Src/stm32h7xx_hal_rcc.c ****   /* Reset PLL2ON bit */
 288:Drivers/STM32H7xx_HAL_Driver/Src/stm32h7xx_hal_rcc.c ****   CLEAR_BIT(RCC->CR, RCC_CR_PLL2ON);
 289:Drivers/STM32H7xx_HAL_Driver/Src/stm32h7xx_hal_rcc.c **** 
 290:Drivers/STM32H7xx_HAL_Driver/Src/stm32h7xx_hal_rcc.c ****   /* Wait till PLL2 is disabled */
 291:Drivers/STM32H7xx_HAL_Driver/Src/stm32h7xx_hal_rcc.c ****   while (READ_BIT(RCC->CR, RCC_CR_PLL2RDY) != 0U)
 292:Drivers/STM32H7xx_HAL_Driver/Src/stm32h7xx_hal_rcc.c ****   {
 293:Drivers/STM32H7xx_HAL_Driver/Src/stm32h7xx_hal_rcc.c ****     if ((HAL_GetTick() - tickstart) > PLL_TIMEOUT_VALUE)
 294:Drivers/STM32H7xx_HAL_Driver/Src/stm32h7xx_hal_rcc.c ****     {
 295:Drivers/STM32H7xx_HAL_Driver/Src/stm32h7xx_hal_rcc.c ****       return HAL_TIMEOUT;
 296:Drivers/STM32H7xx_HAL_Driver/Src/stm32h7xx_hal_rcc.c ****     }
 297:Drivers/STM32H7xx_HAL_Driver/Src/stm32h7xx_hal_rcc.c ****   }
 298:Drivers/STM32H7xx_HAL_Driver/Src/stm32h7xx_hal_rcc.c **** 
 299:Drivers/STM32H7xx_HAL_Driver/Src/stm32h7xx_hal_rcc.c ****   /* Get Start Tick */
 300:Drivers/STM32H7xx_HAL_Driver/Src/stm32h7xx_hal_rcc.c ****   tickstart = HAL_GetTick();
 301:Drivers/STM32H7xx_HAL_Driver/Src/stm32h7xx_hal_rcc.c **** 
 302:Drivers/STM32H7xx_HAL_Driver/Src/stm32h7xx_hal_rcc.c ****   /* Reset PLL3 bit */
 303:Drivers/STM32H7xx_HAL_Driver/Src/stm32h7xx_hal_rcc.c ****   CLEAR_BIT(RCC->CR, RCC_CR_PLL3ON);
 304:Drivers/STM32H7xx_HAL_Driver/Src/stm32h7xx_hal_rcc.c **** 
 305:Drivers/STM32H7xx_HAL_Driver/Src/stm32h7xx_hal_rcc.c ****   /* Wait till PLL3 is disabled */
 306:Drivers/STM32H7xx_HAL_Driver/Src/stm32h7xx_hal_rcc.c ****   while (READ_BIT(RCC->CR, RCC_CR_PLL3RDY) != 0U)
 307:Drivers/STM32H7xx_HAL_Driver/Src/stm32h7xx_hal_rcc.c ****   {
 308:Drivers/STM32H7xx_HAL_Driver/Src/stm32h7xx_hal_rcc.c ****     if ((HAL_GetTick() - tickstart) > PLL_TIMEOUT_VALUE)
 309:Drivers/STM32H7xx_HAL_Driver/Src/stm32h7xx_hal_rcc.c ****     {
 310:Drivers/STM32H7xx_HAL_Driver/Src/stm32h7xx_hal_rcc.c ****       return HAL_TIMEOUT;
 311:Drivers/STM32H7xx_HAL_Driver/Src/stm32h7xx_hal_rcc.c ****     }
 312:Drivers/STM32H7xx_HAL_Driver/Src/stm32h7xx_hal_rcc.c ****   }
 313:Drivers/STM32H7xx_HAL_Driver/Src/stm32h7xx_hal_rcc.c **** 
 314:Drivers/STM32H7xx_HAL_Driver/Src/stm32h7xx_hal_rcc.c **** #if defined(RCC_D1CFGR_HPRE)
 315:Drivers/STM32H7xx_HAL_Driver/Src/stm32h7xx_hal_rcc.c ****   /* Reset D1CFGR register */
 316:Drivers/STM32H7xx_HAL_Driver/Src/stm32h7xx_hal_rcc.c ****   CLEAR_REG(RCC->D1CFGR);
 317:Drivers/STM32H7xx_HAL_Driver/Src/stm32h7xx_hal_rcc.c **** 
 318:Drivers/STM32H7xx_HAL_Driver/Src/stm32h7xx_hal_rcc.c ****   /* Reset D2CFGR register */
ARM GAS  C:\Users\MadeuxS\AppData\Local\Temp\ccJrku7c.s 			page 7


 319:Drivers/STM32H7xx_HAL_Driver/Src/stm32h7xx_hal_rcc.c ****   CLEAR_REG(RCC->D2CFGR);
 320:Drivers/STM32H7xx_HAL_Driver/Src/stm32h7xx_hal_rcc.c **** 
 321:Drivers/STM32H7xx_HAL_Driver/Src/stm32h7xx_hal_rcc.c ****   /* Reset D3CFGR register */
 322:Drivers/STM32H7xx_HAL_Driver/Src/stm32h7xx_hal_rcc.c ****   CLEAR_REG(RCC->D3CFGR);
 323:Drivers/STM32H7xx_HAL_Driver/Src/stm32h7xx_hal_rcc.c **** #else
 324:Drivers/STM32H7xx_HAL_Driver/Src/stm32h7xx_hal_rcc.c ****   /* Reset CDCFGR1 register */
 325:Drivers/STM32H7xx_HAL_Driver/Src/stm32h7xx_hal_rcc.c ****   CLEAR_REG(RCC->CDCFGR1);
 326:Drivers/STM32H7xx_HAL_Driver/Src/stm32h7xx_hal_rcc.c **** 
 327:Drivers/STM32H7xx_HAL_Driver/Src/stm32h7xx_hal_rcc.c ****   /* Reset CDCFGR2 register */
 328:Drivers/STM32H7xx_HAL_Driver/Src/stm32h7xx_hal_rcc.c ****   CLEAR_REG(RCC->CDCFGR2);
 329:Drivers/STM32H7xx_HAL_Driver/Src/stm32h7xx_hal_rcc.c **** 
 330:Drivers/STM32H7xx_HAL_Driver/Src/stm32h7xx_hal_rcc.c ****   /* Reset SRDCFGR register */
 331:Drivers/STM32H7xx_HAL_Driver/Src/stm32h7xx_hal_rcc.c ****   CLEAR_REG(RCC->SRDCFGR);
 332:Drivers/STM32H7xx_HAL_Driver/Src/stm32h7xx_hal_rcc.c **** #endif
 333:Drivers/STM32H7xx_HAL_Driver/Src/stm32h7xx_hal_rcc.c **** 
 334:Drivers/STM32H7xx_HAL_Driver/Src/stm32h7xx_hal_rcc.c ****   /* Reset PLLCKSELR register to default value */
 335:Drivers/STM32H7xx_HAL_Driver/Src/stm32h7xx_hal_rcc.c ****   RCC->PLLCKSELR= RCC_PLLCKSELR_DIVM1_5|RCC_PLLCKSELR_DIVM2_5|RCC_PLLCKSELR_DIVM3_5;
 336:Drivers/STM32H7xx_HAL_Driver/Src/stm32h7xx_hal_rcc.c **** 
 337:Drivers/STM32H7xx_HAL_Driver/Src/stm32h7xx_hal_rcc.c ****   /* Reset PLLCFGR register to default value */
 338:Drivers/STM32H7xx_HAL_Driver/Src/stm32h7xx_hal_rcc.c ****   WRITE_REG(RCC->PLLCFGR, 0x01FF0000U);
 339:Drivers/STM32H7xx_HAL_Driver/Src/stm32h7xx_hal_rcc.c **** 
 340:Drivers/STM32H7xx_HAL_Driver/Src/stm32h7xx_hal_rcc.c ****   /* Reset PLL1DIVR register to default value */
 341:Drivers/STM32H7xx_HAL_Driver/Src/stm32h7xx_hal_rcc.c ****   WRITE_REG(RCC->PLL1DIVR,0x01010280U);
 342:Drivers/STM32H7xx_HAL_Driver/Src/stm32h7xx_hal_rcc.c **** 
 343:Drivers/STM32H7xx_HAL_Driver/Src/stm32h7xx_hal_rcc.c ****   /* Reset PLL1FRACR register */
 344:Drivers/STM32H7xx_HAL_Driver/Src/stm32h7xx_hal_rcc.c ****   CLEAR_REG(RCC->PLL1FRACR);
 345:Drivers/STM32H7xx_HAL_Driver/Src/stm32h7xx_hal_rcc.c **** 
 346:Drivers/STM32H7xx_HAL_Driver/Src/stm32h7xx_hal_rcc.c ****   /* Reset PLL2DIVR register to default value */
 347:Drivers/STM32H7xx_HAL_Driver/Src/stm32h7xx_hal_rcc.c ****   WRITE_REG(RCC->PLL2DIVR,0x01010280U);
 348:Drivers/STM32H7xx_HAL_Driver/Src/stm32h7xx_hal_rcc.c **** 
 349:Drivers/STM32H7xx_HAL_Driver/Src/stm32h7xx_hal_rcc.c ****   /* Reset PLL2FRACR register */
 350:Drivers/STM32H7xx_HAL_Driver/Src/stm32h7xx_hal_rcc.c ****   CLEAR_REG(RCC->PLL2FRACR);
 351:Drivers/STM32H7xx_HAL_Driver/Src/stm32h7xx_hal_rcc.c **** 
 352:Drivers/STM32H7xx_HAL_Driver/Src/stm32h7xx_hal_rcc.c ****   /* Reset PLL3DIVR register to default value */
 353:Drivers/STM32H7xx_HAL_Driver/Src/stm32h7xx_hal_rcc.c ****   WRITE_REG(RCC->PLL3DIVR,0x01010280U);
 354:Drivers/STM32H7xx_HAL_Driver/Src/stm32h7xx_hal_rcc.c **** 
 355:Drivers/STM32H7xx_HAL_Driver/Src/stm32h7xx_hal_rcc.c ****   /* Reset PLL3FRACR register */
 356:Drivers/STM32H7xx_HAL_Driver/Src/stm32h7xx_hal_rcc.c ****   CLEAR_REG(RCC->PLL3FRACR);
 357:Drivers/STM32H7xx_HAL_Driver/Src/stm32h7xx_hal_rcc.c **** 
 358:Drivers/STM32H7xx_HAL_Driver/Src/stm32h7xx_hal_rcc.c **** #if defined(RCC_CR_HSEEXT)
 359:Drivers/STM32H7xx_HAL_Driver/Src/stm32h7xx_hal_rcc.c ****   /* Reset HSEEXT  */
 360:Drivers/STM32H7xx_HAL_Driver/Src/stm32h7xx_hal_rcc.c ****   CLEAR_BIT(RCC->CR, RCC_CR_HSEEXT);
 361:Drivers/STM32H7xx_HAL_Driver/Src/stm32h7xx_hal_rcc.c **** #endif /* RCC_CR_HSEEXT */
 362:Drivers/STM32H7xx_HAL_Driver/Src/stm32h7xx_hal_rcc.c **** 
 363:Drivers/STM32H7xx_HAL_Driver/Src/stm32h7xx_hal_rcc.c ****   /* Reset HSEBYP bit */
 364:Drivers/STM32H7xx_HAL_Driver/Src/stm32h7xx_hal_rcc.c ****   CLEAR_BIT(RCC->CR, RCC_CR_HSEBYP);
 365:Drivers/STM32H7xx_HAL_Driver/Src/stm32h7xx_hal_rcc.c **** 
 366:Drivers/STM32H7xx_HAL_Driver/Src/stm32h7xx_hal_rcc.c ****   /* Disable all interrupts */
 367:Drivers/STM32H7xx_HAL_Driver/Src/stm32h7xx_hal_rcc.c ****   CLEAR_REG(RCC->CIER);
 368:Drivers/STM32H7xx_HAL_Driver/Src/stm32h7xx_hal_rcc.c **** 
 369:Drivers/STM32H7xx_HAL_Driver/Src/stm32h7xx_hal_rcc.c ****   /* Clear all interrupts flags */
 370:Drivers/STM32H7xx_HAL_Driver/Src/stm32h7xx_hal_rcc.c ****   WRITE_REG(RCC->CICR,0xFFFFFFFFU);
 371:Drivers/STM32H7xx_HAL_Driver/Src/stm32h7xx_hal_rcc.c **** 
 372:Drivers/STM32H7xx_HAL_Driver/Src/stm32h7xx_hal_rcc.c ****   /* Reset all RSR flags */
 373:Drivers/STM32H7xx_HAL_Driver/Src/stm32h7xx_hal_rcc.c ****   SET_BIT(RCC->RSR, RCC_RSR_RMVF);
 374:Drivers/STM32H7xx_HAL_Driver/Src/stm32h7xx_hal_rcc.c **** 
 375:Drivers/STM32H7xx_HAL_Driver/Src/stm32h7xx_hal_rcc.c ****       /* Decreasing the number of wait states because of lower CPU frequency */
ARM GAS  C:\Users\MadeuxS\AppData\Local\Temp\ccJrku7c.s 			page 8


 376:Drivers/STM32H7xx_HAL_Driver/Src/stm32h7xx_hal_rcc.c ****   if(FLASH_LATENCY_DEFAULT  < __HAL_FLASH_GET_LATENCY())
 377:Drivers/STM32H7xx_HAL_Driver/Src/stm32h7xx_hal_rcc.c ****   {
 378:Drivers/STM32H7xx_HAL_Driver/Src/stm32h7xx_hal_rcc.c ****     /* Program the new number of wait states to the LATENCY bits in the FLASH_ACR register */
 379:Drivers/STM32H7xx_HAL_Driver/Src/stm32h7xx_hal_rcc.c ****     __HAL_FLASH_SET_LATENCY(FLASH_LATENCY_DEFAULT);
 380:Drivers/STM32H7xx_HAL_Driver/Src/stm32h7xx_hal_rcc.c **** 
 381:Drivers/STM32H7xx_HAL_Driver/Src/stm32h7xx_hal_rcc.c ****     /* Check that the new number of wait states is taken into account to access the Flash
 382:Drivers/STM32H7xx_HAL_Driver/Src/stm32h7xx_hal_rcc.c ****     memory by reading the FLASH_ACR register */
 383:Drivers/STM32H7xx_HAL_Driver/Src/stm32h7xx_hal_rcc.c ****     if(__HAL_FLASH_GET_LATENCY() != FLASH_LATENCY_DEFAULT)
 384:Drivers/STM32H7xx_HAL_Driver/Src/stm32h7xx_hal_rcc.c ****     {
 385:Drivers/STM32H7xx_HAL_Driver/Src/stm32h7xx_hal_rcc.c ****       return HAL_ERROR;
 386:Drivers/STM32H7xx_HAL_Driver/Src/stm32h7xx_hal_rcc.c ****     }
 387:Drivers/STM32H7xx_HAL_Driver/Src/stm32h7xx_hal_rcc.c **** 
 388:Drivers/STM32H7xx_HAL_Driver/Src/stm32h7xx_hal_rcc.c **** }
 389:Drivers/STM32H7xx_HAL_Driver/Src/stm32h7xx_hal_rcc.c **** 
 390:Drivers/STM32H7xx_HAL_Driver/Src/stm32h7xx_hal_rcc.c ****   return HAL_OK;
 391:Drivers/STM32H7xx_HAL_Driver/Src/stm32h7xx_hal_rcc.c **** }
 392:Drivers/STM32H7xx_HAL_Driver/Src/stm32h7xx_hal_rcc.c **** 
 393:Drivers/STM32H7xx_HAL_Driver/Src/stm32h7xx_hal_rcc.c **** /**
 394:Drivers/STM32H7xx_HAL_Driver/Src/stm32h7xx_hal_rcc.c ****   * @brief  Initializes the RCC Oscillators according to the specified parameters in the
 395:Drivers/STM32H7xx_HAL_Driver/Src/stm32h7xx_hal_rcc.c ****   *         RCC_OscInitTypeDef.
 396:Drivers/STM32H7xx_HAL_Driver/Src/stm32h7xx_hal_rcc.c ****   * @param  RCC_OscInitStruct: pointer to an RCC_OscInitTypeDef structure that
 397:Drivers/STM32H7xx_HAL_Driver/Src/stm32h7xx_hal_rcc.c ****   *         contains the configuration information for the RCC Oscillators.
 398:Drivers/STM32H7xx_HAL_Driver/Src/stm32h7xx_hal_rcc.c ****   * @note   The PLL is not disabled when used as system clock.
 399:Drivers/STM32H7xx_HAL_Driver/Src/stm32h7xx_hal_rcc.c ****   * @note   Transitions LSE Bypass to LSE On and LSE On to LSE Bypass are not
 400:Drivers/STM32H7xx_HAL_Driver/Src/stm32h7xx_hal_rcc.c ****   *         supported by this function. User should request a transition to LSE Off
 401:Drivers/STM32H7xx_HAL_Driver/Src/stm32h7xx_hal_rcc.c ****   *         first and then LSE On or LSE Bypass.
 402:Drivers/STM32H7xx_HAL_Driver/Src/stm32h7xx_hal_rcc.c ****   * @note   Transition HSE Bypass to HSE On and HSE On to HSE Bypass are not
 403:Drivers/STM32H7xx_HAL_Driver/Src/stm32h7xx_hal_rcc.c ****   *         supported by this function. User should request a transition to HSE Off
 404:Drivers/STM32H7xx_HAL_Driver/Src/stm32h7xx_hal_rcc.c ****   *         first and then HSE On or HSE Bypass.
 405:Drivers/STM32H7xx_HAL_Driver/Src/stm32h7xx_hal_rcc.c ****   * @retval HAL status
 406:Drivers/STM32H7xx_HAL_Driver/Src/stm32h7xx_hal_rcc.c ****   */
 407:Drivers/STM32H7xx_HAL_Driver/Src/stm32h7xx_hal_rcc.c **** __weak HAL_StatusTypeDef HAL_RCC_OscConfig(RCC_OscInitTypeDef  *RCC_OscInitStruct)
 408:Drivers/STM32H7xx_HAL_Driver/Src/stm32h7xx_hal_rcc.c **** {
 409:Drivers/STM32H7xx_HAL_Driver/Src/stm32h7xx_hal_rcc.c ****   uint32_t tickstart;
 410:Drivers/STM32H7xx_HAL_Driver/Src/stm32h7xx_hal_rcc.c ****   uint32_t temp1_pllckcfg, temp2_pllckcfg;
 411:Drivers/STM32H7xx_HAL_Driver/Src/stm32h7xx_hal_rcc.c **** 
 412:Drivers/STM32H7xx_HAL_Driver/Src/stm32h7xx_hal_rcc.c ****     /* Check Null pointer */
 413:Drivers/STM32H7xx_HAL_Driver/Src/stm32h7xx_hal_rcc.c ****   if(RCC_OscInitStruct == NULL)
 414:Drivers/STM32H7xx_HAL_Driver/Src/stm32h7xx_hal_rcc.c ****   {
 415:Drivers/STM32H7xx_HAL_Driver/Src/stm32h7xx_hal_rcc.c ****     return HAL_ERROR;
 416:Drivers/STM32H7xx_HAL_Driver/Src/stm32h7xx_hal_rcc.c ****   }
 417:Drivers/STM32H7xx_HAL_Driver/Src/stm32h7xx_hal_rcc.c **** 
 418:Drivers/STM32H7xx_HAL_Driver/Src/stm32h7xx_hal_rcc.c ****   /* Check the parameters */
 419:Drivers/STM32H7xx_HAL_Driver/Src/stm32h7xx_hal_rcc.c ****   assert_param(IS_RCC_OSCILLATORTYPE(RCC_OscInitStruct->OscillatorType));
 420:Drivers/STM32H7xx_HAL_Driver/Src/stm32h7xx_hal_rcc.c ****   /*------------------------------- HSE Configuration ------------------------*/
 421:Drivers/STM32H7xx_HAL_Driver/Src/stm32h7xx_hal_rcc.c ****   if(((RCC_OscInitStruct->OscillatorType) & RCC_OSCILLATORTYPE_HSE) == RCC_OSCILLATORTYPE_HSE)
 422:Drivers/STM32H7xx_HAL_Driver/Src/stm32h7xx_hal_rcc.c ****   {
 423:Drivers/STM32H7xx_HAL_Driver/Src/stm32h7xx_hal_rcc.c ****     /* Check the parameters */
 424:Drivers/STM32H7xx_HAL_Driver/Src/stm32h7xx_hal_rcc.c ****     assert_param(IS_RCC_HSE(RCC_OscInitStruct->HSEState));
 425:Drivers/STM32H7xx_HAL_Driver/Src/stm32h7xx_hal_rcc.c **** 
 426:Drivers/STM32H7xx_HAL_Driver/Src/stm32h7xx_hal_rcc.c ****     const uint32_t temp_sysclksrc = __HAL_RCC_GET_SYSCLK_SOURCE();
 427:Drivers/STM32H7xx_HAL_Driver/Src/stm32h7xx_hal_rcc.c ****     const uint32_t temp_pllckselr = RCC->PLLCKSELR;
 428:Drivers/STM32H7xx_HAL_Driver/Src/stm32h7xx_hal_rcc.c ****     /* When the HSE is used as system clock or clock source for PLL in these cases HSE will not dis
 429:Drivers/STM32H7xx_HAL_Driver/Src/stm32h7xx_hal_rcc.c ****     if((temp_sysclksrc == RCC_CFGR_SWS_HSE) || ((temp_sysclksrc == RCC_CFGR_SWS_PLL1) && ((temp_pll
 430:Drivers/STM32H7xx_HAL_Driver/Src/stm32h7xx_hal_rcc.c ****     {
 431:Drivers/STM32H7xx_HAL_Driver/Src/stm32h7xx_hal_rcc.c ****       if((__HAL_RCC_GET_FLAG(RCC_FLAG_HSERDY) != 0U) && (RCC_OscInitStruct->HSEState == RCC_HSE_OFF
 432:Drivers/STM32H7xx_HAL_Driver/Src/stm32h7xx_hal_rcc.c ****       {
ARM GAS  C:\Users\MadeuxS\AppData\Local\Temp\ccJrku7c.s 			page 9


 433:Drivers/STM32H7xx_HAL_Driver/Src/stm32h7xx_hal_rcc.c ****         return HAL_ERROR;
 434:Drivers/STM32H7xx_HAL_Driver/Src/stm32h7xx_hal_rcc.c ****       }
 435:Drivers/STM32H7xx_HAL_Driver/Src/stm32h7xx_hal_rcc.c ****     }
 436:Drivers/STM32H7xx_HAL_Driver/Src/stm32h7xx_hal_rcc.c ****     else
 437:Drivers/STM32H7xx_HAL_Driver/Src/stm32h7xx_hal_rcc.c ****     {
 438:Drivers/STM32H7xx_HAL_Driver/Src/stm32h7xx_hal_rcc.c ****       /* Set the new HSE configuration ---------------------------------------*/
 439:Drivers/STM32H7xx_HAL_Driver/Src/stm32h7xx_hal_rcc.c ****       __HAL_RCC_HSE_CONFIG(RCC_OscInitStruct->HSEState);
 440:Drivers/STM32H7xx_HAL_Driver/Src/stm32h7xx_hal_rcc.c **** 
 441:Drivers/STM32H7xx_HAL_Driver/Src/stm32h7xx_hal_rcc.c ****       /* Check the HSE State */
 442:Drivers/STM32H7xx_HAL_Driver/Src/stm32h7xx_hal_rcc.c ****       if(RCC_OscInitStruct->HSEState != RCC_HSE_OFF)
 443:Drivers/STM32H7xx_HAL_Driver/Src/stm32h7xx_hal_rcc.c ****       {
 444:Drivers/STM32H7xx_HAL_Driver/Src/stm32h7xx_hal_rcc.c ****         /* Get Start Tick*/
 445:Drivers/STM32H7xx_HAL_Driver/Src/stm32h7xx_hal_rcc.c ****         tickstart = HAL_GetTick();
 446:Drivers/STM32H7xx_HAL_Driver/Src/stm32h7xx_hal_rcc.c **** 
 447:Drivers/STM32H7xx_HAL_Driver/Src/stm32h7xx_hal_rcc.c ****         /* Wait till HSE is ready */
 448:Drivers/STM32H7xx_HAL_Driver/Src/stm32h7xx_hal_rcc.c ****         while(__HAL_RCC_GET_FLAG(RCC_FLAG_HSERDY) == 0U)
 449:Drivers/STM32H7xx_HAL_Driver/Src/stm32h7xx_hal_rcc.c ****         {
 450:Drivers/STM32H7xx_HAL_Driver/Src/stm32h7xx_hal_rcc.c ****           if((uint32_t) (HAL_GetTick() - tickstart ) > HSE_TIMEOUT_VALUE)
 451:Drivers/STM32H7xx_HAL_Driver/Src/stm32h7xx_hal_rcc.c ****           {
 452:Drivers/STM32H7xx_HAL_Driver/Src/stm32h7xx_hal_rcc.c ****             return HAL_TIMEOUT;
 453:Drivers/STM32H7xx_HAL_Driver/Src/stm32h7xx_hal_rcc.c ****           }
 454:Drivers/STM32H7xx_HAL_Driver/Src/stm32h7xx_hal_rcc.c ****         }
 455:Drivers/STM32H7xx_HAL_Driver/Src/stm32h7xx_hal_rcc.c ****       }
 456:Drivers/STM32H7xx_HAL_Driver/Src/stm32h7xx_hal_rcc.c ****       else
 457:Drivers/STM32H7xx_HAL_Driver/Src/stm32h7xx_hal_rcc.c ****       {
 458:Drivers/STM32H7xx_HAL_Driver/Src/stm32h7xx_hal_rcc.c ****         /* Get Start Tick*/
 459:Drivers/STM32H7xx_HAL_Driver/Src/stm32h7xx_hal_rcc.c ****         tickstart = HAL_GetTick();
 460:Drivers/STM32H7xx_HAL_Driver/Src/stm32h7xx_hal_rcc.c **** 
 461:Drivers/STM32H7xx_HAL_Driver/Src/stm32h7xx_hal_rcc.c ****         /* Wait till HSE is disabled */
 462:Drivers/STM32H7xx_HAL_Driver/Src/stm32h7xx_hal_rcc.c ****         while(__HAL_RCC_GET_FLAG(RCC_FLAG_HSERDY) != 0U)
 463:Drivers/STM32H7xx_HAL_Driver/Src/stm32h7xx_hal_rcc.c ****         {
 464:Drivers/STM32H7xx_HAL_Driver/Src/stm32h7xx_hal_rcc.c ****           if((uint32_t) (HAL_GetTick() - tickstart ) > HSE_TIMEOUT_VALUE)
 465:Drivers/STM32H7xx_HAL_Driver/Src/stm32h7xx_hal_rcc.c ****           {
 466:Drivers/STM32H7xx_HAL_Driver/Src/stm32h7xx_hal_rcc.c ****             return HAL_TIMEOUT;
 467:Drivers/STM32H7xx_HAL_Driver/Src/stm32h7xx_hal_rcc.c ****           }
 468:Drivers/STM32H7xx_HAL_Driver/Src/stm32h7xx_hal_rcc.c ****         }
 469:Drivers/STM32H7xx_HAL_Driver/Src/stm32h7xx_hal_rcc.c ****       }
 470:Drivers/STM32H7xx_HAL_Driver/Src/stm32h7xx_hal_rcc.c ****     }
 471:Drivers/STM32H7xx_HAL_Driver/Src/stm32h7xx_hal_rcc.c ****   }
 472:Drivers/STM32H7xx_HAL_Driver/Src/stm32h7xx_hal_rcc.c ****   /*----------------------------- HSI Configuration --------------------------*/
 473:Drivers/STM32H7xx_HAL_Driver/Src/stm32h7xx_hal_rcc.c ****   if(((RCC_OscInitStruct->OscillatorType) & RCC_OSCILLATORTYPE_HSI) == RCC_OSCILLATORTYPE_HSI)
 474:Drivers/STM32H7xx_HAL_Driver/Src/stm32h7xx_hal_rcc.c ****   {
 475:Drivers/STM32H7xx_HAL_Driver/Src/stm32h7xx_hal_rcc.c ****     /* Check the parameters */
 476:Drivers/STM32H7xx_HAL_Driver/Src/stm32h7xx_hal_rcc.c ****     assert_param(IS_RCC_HSI(RCC_OscInitStruct->HSIState));
 477:Drivers/STM32H7xx_HAL_Driver/Src/stm32h7xx_hal_rcc.c ****     assert_param(IS_RCC_HSICALIBRATION_VALUE(RCC_OscInitStruct->HSICalibrationValue));
 478:Drivers/STM32H7xx_HAL_Driver/Src/stm32h7xx_hal_rcc.c **** 
 479:Drivers/STM32H7xx_HAL_Driver/Src/stm32h7xx_hal_rcc.c ****     /* When the HSI is used as system clock it will not be disabled */
 480:Drivers/STM32H7xx_HAL_Driver/Src/stm32h7xx_hal_rcc.c ****     const uint32_t temp_sysclksrc = __HAL_RCC_GET_SYSCLK_SOURCE();
 481:Drivers/STM32H7xx_HAL_Driver/Src/stm32h7xx_hal_rcc.c ****     const uint32_t temp_pllckselr = RCC->PLLCKSELR;
 482:Drivers/STM32H7xx_HAL_Driver/Src/stm32h7xx_hal_rcc.c ****     if((temp_sysclksrc == RCC_CFGR_SWS_HSI) || ((temp_sysclksrc == RCC_CFGR_SWS_PLL1) && ((temp_pll
 483:Drivers/STM32H7xx_HAL_Driver/Src/stm32h7xx_hal_rcc.c ****     {
 484:Drivers/STM32H7xx_HAL_Driver/Src/stm32h7xx_hal_rcc.c ****       /* When HSI is used as system clock it will not be disabled */
 485:Drivers/STM32H7xx_HAL_Driver/Src/stm32h7xx_hal_rcc.c ****       if((__HAL_RCC_GET_FLAG(RCC_FLAG_HSIRDY) != 0U) && (RCC_OscInitStruct->HSIState == RCC_HSI_OFF
 486:Drivers/STM32H7xx_HAL_Driver/Src/stm32h7xx_hal_rcc.c ****       {
 487:Drivers/STM32H7xx_HAL_Driver/Src/stm32h7xx_hal_rcc.c ****         return HAL_ERROR;
 488:Drivers/STM32H7xx_HAL_Driver/Src/stm32h7xx_hal_rcc.c ****       }
 489:Drivers/STM32H7xx_HAL_Driver/Src/stm32h7xx_hal_rcc.c ****       /* Otherwise, just the calibration is allowed */
ARM GAS  C:\Users\MadeuxS\AppData\Local\Temp\ccJrku7c.s 			page 10


 490:Drivers/STM32H7xx_HAL_Driver/Src/stm32h7xx_hal_rcc.c ****       else
 491:Drivers/STM32H7xx_HAL_Driver/Src/stm32h7xx_hal_rcc.c ****       {
 492:Drivers/STM32H7xx_HAL_Driver/Src/stm32h7xx_hal_rcc.c ****         /* Adjusts the Internal High Speed oscillator (HSI) calibration value.*/
 493:Drivers/STM32H7xx_HAL_Driver/Src/stm32h7xx_hal_rcc.c ****         __HAL_RCC_HSI_CALIBRATIONVALUE_ADJUST(RCC_OscInitStruct->HSICalibrationValue);
 494:Drivers/STM32H7xx_HAL_Driver/Src/stm32h7xx_hal_rcc.c ****       }
 495:Drivers/STM32H7xx_HAL_Driver/Src/stm32h7xx_hal_rcc.c ****     }
 496:Drivers/STM32H7xx_HAL_Driver/Src/stm32h7xx_hal_rcc.c **** 
 497:Drivers/STM32H7xx_HAL_Driver/Src/stm32h7xx_hal_rcc.c ****     else
 498:Drivers/STM32H7xx_HAL_Driver/Src/stm32h7xx_hal_rcc.c ****     {
 499:Drivers/STM32H7xx_HAL_Driver/Src/stm32h7xx_hal_rcc.c ****       /* Check the HSI State */
 500:Drivers/STM32H7xx_HAL_Driver/Src/stm32h7xx_hal_rcc.c ****       if((RCC_OscInitStruct->HSIState)!= RCC_HSI_OFF)
 501:Drivers/STM32H7xx_HAL_Driver/Src/stm32h7xx_hal_rcc.c ****       {
 502:Drivers/STM32H7xx_HAL_Driver/Src/stm32h7xx_hal_rcc.c ****      /* Enable the Internal High Speed oscillator (HSI, HSIDIV2,HSIDIV4, or HSIDIV8) */
 503:Drivers/STM32H7xx_HAL_Driver/Src/stm32h7xx_hal_rcc.c ****         __HAL_RCC_HSI_CONFIG(RCC_OscInitStruct->HSIState);
 504:Drivers/STM32H7xx_HAL_Driver/Src/stm32h7xx_hal_rcc.c **** 
 505:Drivers/STM32H7xx_HAL_Driver/Src/stm32h7xx_hal_rcc.c ****         /* Get Start Tick*/
 506:Drivers/STM32H7xx_HAL_Driver/Src/stm32h7xx_hal_rcc.c ****         tickstart = HAL_GetTick();
 507:Drivers/STM32H7xx_HAL_Driver/Src/stm32h7xx_hal_rcc.c **** 
 508:Drivers/STM32H7xx_HAL_Driver/Src/stm32h7xx_hal_rcc.c ****         /* Wait till HSI is ready */
 509:Drivers/STM32H7xx_HAL_Driver/Src/stm32h7xx_hal_rcc.c ****         while(__HAL_RCC_GET_FLAG(RCC_FLAG_HSIRDY) == 0U)
 510:Drivers/STM32H7xx_HAL_Driver/Src/stm32h7xx_hal_rcc.c ****         {
 511:Drivers/STM32H7xx_HAL_Driver/Src/stm32h7xx_hal_rcc.c ****           if((HAL_GetTick() - tickstart ) > HSI_TIMEOUT_VALUE)
 512:Drivers/STM32H7xx_HAL_Driver/Src/stm32h7xx_hal_rcc.c ****           {
 513:Drivers/STM32H7xx_HAL_Driver/Src/stm32h7xx_hal_rcc.c ****             return HAL_TIMEOUT;
 514:Drivers/STM32H7xx_HAL_Driver/Src/stm32h7xx_hal_rcc.c ****           }
 515:Drivers/STM32H7xx_HAL_Driver/Src/stm32h7xx_hal_rcc.c ****         }
 516:Drivers/STM32H7xx_HAL_Driver/Src/stm32h7xx_hal_rcc.c **** 
 517:Drivers/STM32H7xx_HAL_Driver/Src/stm32h7xx_hal_rcc.c ****         /* Adjusts the Internal High Speed oscillator (HSI) calibration value.*/
 518:Drivers/STM32H7xx_HAL_Driver/Src/stm32h7xx_hal_rcc.c ****         __HAL_RCC_HSI_CALIBRATIONVALUE_ADJUST(RCC_OscInitStruct->HSICalibrationValue);
 519:Drivers/STM32H7xx_HAL_Driver/Src/stm32h7xx_hal_rcc.c ****       }
 520:Drivers/STM32H7xx_HAL_Driver/Src/stm32h7xx_hal_rcc.c ****       else
 521:Drivers/STM32H7xx_HAL_Driver/Src/stm32h7xx_hal_rcc.c ****       {
 522:Drivers/STM32H7xx_HAL_Driver/Src/stm32h7xx_hal_rcc.c ****         /* Disable the Internal High Speed oscillator (HSI). */
 523:Drivers/STM32H7xx_HAL_Driver/Src/stm32h7xx_hal_rcc.c ****         __HAL_RCC_HSI_DISABLE();
 524:Drivers/STM32H7xx_HAL_Driver/Src/stm32h7xx_hal_rcc.c **** 
 525:Drivers/STM32H7xx_HAL_Driver/Src/stm32h7xx_hal_rcc.c ****         /* Get Start Tick*/
 526:Drivers/STM32H7xx_HAL_Driver/Src/stm32h7xx_hal_rcc.c ****         tickstart = HAL_GetTick();
 527:Drivers/STM32H7xx_HAL_Driver/Src/stm32h7xx_hal_rcc.c **** 
 528:Drivers/STM32H7xx_HAL_Driver/Src/stm32h7xx_hal_rcc.c ****         /* Wait till HSI is disabled */
 529:Drivers/STM32H7xx_HAL_Driver/Src/stm32h7xx_hal_rcc.c ****         while(__HAL_RCC_GET_FLAG(RCC_FLAG_HSIRDY) != 0U)
 530:Drivers/STM32H7xx_HAL_Driver/Src/stm32h7xx_hal_rcc.c ****         {
 531:Drivers/STM32H7xx_HAL_Driver/Src/stm32h7xx_hal_rcc.c ****           if((HAL_GetTick() - tickstart ) > HSI_TIMEOUT_VALUE)
 532:Drivers/STM32H7xx_HAL_Driver/Src/stm32h7xx_hal_rcc.c ****           {
 533:Drivers/STM32H7xx_HAL_Driver/Src/stm32h7xx_hal_rcc.c ****             return HAL_TIMEOUT;
 534:Drivers/STM32H7xx_HAL_Driver/Src/stm32h7xx_hal_rcc.c ****           }
 535:Drivers/STM32H7xx_HAL_Driver/Src/stm32h7xx_hal_rcc.c ****         }
 536:Drivers/STM32H7xx_HAL_Driver/Src/stm32h7xx_hal_rcc.c ****       }
 537:Drivers/STM32H7xx_HAL_Driver/Src/stm32h7xx_hal_rcc.c ****     }
 538:Drivers/STM32H7xx_HAL_Driver/Src/stm32h7xx_hal_rcc.c ****   }
 539:Drivers/STM32H7xx_HAL_Driver/Src/stm32h7xx_hal_rcc.c ****   /*----------------------------- CSI Configuration --------------------------*/
 540:Drivers/STM32H7xx_HAL_Driver/Src/stm32h7xx_hal_rcc.c ****   if(((RCC_OscInitStruct->OscillatorType) & RCC_OSCILLATORTYPE_CSI) == RCC_OSCILLATORTYPE_CSI)
 541:Drivers/STM32H7xx_HAL_Driver/Src/stm32h7xx_hal_rcc.c ****   {
 542:Drivers/STM32H7xx_HAL_Driver/Src/stm32h7xx_hal_rcc.c ****     /* Check the parameters */
 543:Drivers/STM32H7xx_HAL_Driver/Src/stm32h7xx_hal_rcc.c ****     assert_param(IS_RCC_CSI(RCC_OscInitStruct->CSIState));
 544:Drivers/STM32H7xx_HAL_Driver/Src/stm32h7xx_hal_rcc.c ****     assert_param(IS_RCC_CSICALIBRATION_VALUE(RCC_OscInitStruct->CSICalibrationValue));
 545:Drivers/STM32H7xx_HAL_Driver/Src/stm32h7xx_hal_rcc.c **** 
 546:Drivers/STM32H7xx_HAL_Driver/Src/stm32h7xx_hal_rcc.c ****     /* When the CSI is used as system clock it will not disabled */
ARM GAS  C:\Users\MadeuxS\AppData\Local\Temp\ccJrku7c.s 			page 11


 547:Drivers/STM32H7xx_HAL_Driver/Src/stm32h7xx_hal_rcc.c ****     const uint32_t temp_sysclksrc = __HAL_RCC_GET_SYSCLK_SOURCE();
 548:Drivers/STM32H7xx_HAL_Driver/Src/stm32h7xx_hal_rcc.c ****     const uint32_t temp_pllckselr = RCC->PLLCKSELR;
 549:Drivers/STM32H7xx_HAL_Driver/Src/stm32h7xx_hal_rcc.c ****     if((temp_sysclksrc == RCC_CFGR_SWS_CSI) || ((temp_sysclksrc == RCC_CFGR_SWS_PLL1) && ((temp_pll
 550:Drivers/STM32H7xx_HAL_Driver/Src/stm32h7xx_hal_rcc.c ****     {
 551:Drivers/STM32H7xx_HAL_Driver/Src/stm32h7xx_hal_rcc.c ****       /* When CSI is used as system clock it will not disabled */
 552:Drivers/STM32H7xx_HAL_Driver/Src/stm32h7xx_hal_rcc.c ****       if((__HAL_RCC_GET_FLAG(RCC_FLAG_CSIRDY) != 0U) && (RCC_OscInitStruct->CSIState != RCC_CSI_ON)
 553:Drivers/STM32H7xx_HAL_Driver/Src/stm32h7xx_hal_rcc.c ****       {
 554:Drivers/STM32H7xx_HAL_Driver/Src/stm32h7xx_hal_rcc.c ****         return HAL_ERROR;
 555:Drivers/STM32H7xx_HAL_Driver/Src/stm32h7xx_hal_rcc.c ****       }
 556:Drivers/STM32H7xx_HAL_Driver/Src/stm32h7xx_hal_rcc.c ****       /* Otherwise, just the calibration is allowed */
 557:Drivers/STM32H7xx_HAL_Driver/Src/stm32h7xx_hal_rcc.c ****       else
 558:Drivers/STM32H7xx_HAL_Driver/Src/stm32h7xx_hal_rcc.c ****       {
 559:Drivers/STM32H7xx_HAL_Driver/Src/stm32h7xx_hal_rcc.c ****         /* Adjusts the Internal High Speed oscillator (CSI) calibration value.*/
 560:Drivers/STM32H7xx_HAL_Driver/Src/stm32h7xx_hal_rcc.c ****         __HAL_RCC_CSI_CALIBRATIONVALUE_ADJUST(RCC_OscInitStruct->CSICalibrationValue);
 561:Drivers/STM32H7xx_HAL_Driver/Src/stm32h7xx_hal_rcc.c ****       }
 562:Drivers/STM32H7xx_HAL_Driver/Src/stm32h7xx_hal_rcc.c ****     }
 563:Drivers/STM32H7xx_HAL_Driver/Src/stm32h7xx_hal_rcc.c ****     else
 564:Drivers/STM32H7xx_HAL_Driver/Src/stm32h7xx_hal_rcc.c ****     {
 565:Drivers/STM32H7xx_HAL_Driver/Src/stm32h7xx_hal_rcc.c ****       /* Check the CSI State */
 566:Drivers/STM32H7xx_HAL_Driver/Src/stm32h7xx_hal_rcc.c ****       if((RCC_OscInitStruct->CSIState)!= RCC_CSI_OFF)
 567:Drivers/STM32H7xx_HAL_Driver/Src/stm32h7xx_hal_rcc.c ****       {
 568:Drivers/STM32H7xx_HAL_Driver/Src/stm32h7xx_hal_rcc.c ****         /* Enable the Internal High Speed oscillator (CSI). */
 569:Drivers/STM32H7xx_HAL_Driver/Src/stm32h7xx_hal_rcc.c ****         __HAL_RCC_CSI_ENABLE();
 570:Drivers/STM32H7xx_HAL_Driver/Src/stm32h7xx_hal_rcc.c **** 
 571:Drivers/STM32H7xx_HAL_Driver/Src/stm32h7xx_hal_rcc.c ****         /* Get Start Tick*/
 572:Drivers/STM32H7xx_HAL_Driver/Src/stm32h7xx_hal_rcc.c ****         tickstart = HAL_GetTick();
 573:Drivers/STM32H7xx_HAL_Driver/Src/stm32h7xx_hal_rcc.c **** 
 574:Drivers/STM32H7xx_HAL_Driver/Src/stm32h7xx_hal_rcc.c ****         /* Wait till CSI is ready */
 575:Drivers/STM32H7xx_HAL_Driver/Src/stm32h7xx_hal_rcc.c ****         while(__HAL_RCC_GET_FLAG(RCC_FLAG_CSIRDY) == 0U)
 576:Drivers/STM32H7xx_HAL_Driver/Src/stm32h7xx_hal_rcc.c ****         {
 577:Drivers/STM32H7xx_HAL_Driver/Src/stm32h7xx_hal_rcc.c ****           if((HAL_GetTick() - tickstart ) > CSI_TIMEOUT_VALUE)
 578:Drivers/STM32H7xx_HAL_Driver/Src/stm32h7xx_hal_rcc.c ****           {
 579:Drivers/STM32H7xx_HAL_Driver/Src/stm32h7xx_hal_rcc.c ****             return HAL_TIMEOUT;
 580:Drivers/STM32H7xx_HAL_Driver/Src/stm32h7xx_hal_rcc.c ****           }
 581:Drivers/STM32H7xx_HAL_Driver/Src/stm32h7xx_hal_rcc.c ****         }
 582:Drivers/STM32H7xx_HAL_Driver/Src/stm32h7xx_hal_rcc.c **** 
 583:Drivers/STM32H7xx_HAL_Driver/Src/stm32h7xx_hal_rcc.c ****         /* Adjusts the Internal High Speed oscillator (CSI) calibration value.*/
 584:Drivers/STM32H7xx_HAL_Driver/Src/stm32h7xx_hal_rcc.c ****         __HAL_RCC_CSI_CALIBRATIONVALUE_ADJUST(RCC_OscInitStruct->CSICalibrationValue);
 585:Drivers/STM32H7xx_HAL_Driver/Src/stm32h7xx_hal_rcc.c ****       }
 586:Drivers/STM32H7xx_HAL_Driver/Src/stm32h7xx_hal_rcc.c ****       else
 587:Drivers/STM32H7xx_HAL_Driver/Src/stm32h7xx_hal_rcc.c ****       {
 588:Drivers/STM32H7xx_HAL_Driver/Src/stm32h7xx_hal_rcc.c ****         /* Disable the Internal High Speed oscillator (CSI). */
 589:Drivers/STM32H7xx_HAL_Driver/Src/stm32h7xx_hal_rcc.c ****         __HAL_RCC_CSI_DISABLE();
 590:Drivers/STM32H7xx_HAL_Driver/Src/stm32h7xx_hal_rcc.c **** 
 591:Drivers/STM32H7xx_HAL_Driver/Src/stm32h7xx_hal_rcc.c ****         /* Get Start Tick*/
 592:Drivers/STM32H7xx_HAL_Driver/Src/stm32h7xx_hal_rcc.c ****         tickstart = HAL_GetTick();
 593:Drivers/STM32H7xx_HAL_Driver/Src/stm32h7xx_hal_rcc.c **** 
 594:Drivers/STM32H7xx_HAL_Driver/Src/stm32h7xx_hal_rcc.c ****         /* Wait till CSI is disabled */
 595:Drivers/STM32H7xx_HAL_Driver/Src/stm32h7xx_hal_rcc.c ****         while(__HAL_RCC_GET_FLAG(RCC_FLAG_CSIRDY) != 0U)
 596:Drivers/STM32H7xx_HAL_Driver/Src/stm32h7xx_hal_rcc.c ****         {
 597:Drivers/STM32H7xx_HAL_Driver/Src/stm32h7xx_hal_rcc.c ****           if((HAL_GetTick() - tickstart ) > CSI_TIMEOUT_VALUE)
 598:Drivers/STM32H7xx_HAL_Driver/Src/stm32h7xx_hal_rcc.c ****           {
 599:Drivers/STM32H7xx_HAL_Driver/Src/stm32h7xx_hal_rcc.c ****             return HAL_TIMEOUT;
 600:Drivers/STM32H7xx_HAL_Driver/Src/stm32h7xx_hal_rcc.c ****           }
 601:Drivers/STM32H7xx_HAL_Driver/Src/stm32h7xx_hal_rcc.c ****         }
 602:Drivers/STM32H7xx_HAL_Driver/Src/stm32h7xx_hal_rcc.c ****       }
 603:Drivers/STM32H7xx_HAL_Driver/Src/stm32h7xx_hal_rcc.c ****     }
ARM GAS  C:\Users\MadeuxS\AppData\Local\Temp\ccJrku7c.s 			page 12


 604:Drivers/STM32H7xx_HAL_Driver/Src/stm32h7xx_hal_rcc.c ****   }
 605:Drivers/STM32H7xx_HAL_Driver/Src/stm32h7xx_hal_rcc.c ****   /*------------------------------ LSI Configuration -------------------------*/
 606:Drivers/STM32H7xx_HAL_Driver/Src/stm32h7xx_hal_rcc.c ****   if(((RCC_OscInitStruct->OscillatorType) & RCC_OSCILLATORTYPE_LSI) == RCC_OSCILLATORTYPE_LSI)
 607:Drivers/STM32H7xx_HAL_Driver/Src/stm32h7xx_hal_rcc.c ****   {
 608:Drivers/STM32H7xx_HAL_Driver/Src/stm32h7xx_hal_rcc.c ****     /* Check the parameters */
 609:Drivers/STM32H7xx_HAL_Driver/Src/stm32h7xx_hal_rcc.c ****     assert_param(IS_RCC_LSI(RCC_OscInitStruct->LSIState));
 610:Drivers/STM32H7xx_HAL_Driver/Src/stm32h7xx_hal_rcc.c **** 
 611:Drivers/STM32H7xx_HAL_Driver/Src/stm32h7xx_hal_rcc.c ****     /* Check the LSI State */
 612:Drivers/STM32H7xx_HAL_Driver/Src/stm32h7xx_hal_rcc.c ****     if((RCC_OscInitStruct->LSIState)!= RCC_LSI_OFF)
 613:Drivers/STM32H7xx_HAL_Driver/Src/stm32h7xx_hal_rcc.c ****     {
 614:Drivers/STM32H7xx_HAL_Driver/Src/stm32h7xx_hal_rcc.c ****       /* Enable the Internal Low Speed oscillator (LSI). */
 615:Drivers/STM32H7xx_HAL_Driver/Src/stm32h7xx_hal_rcc.c ****       __HAL_RCC_LSI_ENABLE();
 616:Drivers/STM32H7xx_HAL_Driver/Src/stm32h7xx_hal_rcc.c **** 
 617:Drivers/STM32H7xx_HAL_Driver/Src/stm32h7xx_hal_rcc.c ****       /* Get Start Tick*/
 618:Drivers/STM32H7xx_HAL_Driver/Src/stm32h7xx_hal_rcc.c ****       tickstart = HAL_GetTick();
 619:Drivers/STM32H7xx_HAL_Driver/Src/stm32h7xx_hal_rcc.c **** 
 620:Drivers/STM32H7xx_HAL_Driver/Src/stm32h7xx_hal_rcc.c ****       /* Wait till LSI is ready */
 621:Drivers/STM32H7xx_HAL_Driver/Src/stm32h7xx_hal_rcc.c ****       while(__HAL_RCC_GET_FLAG(RCC_FLAG_LSIRDY) == 0U)
 622:Drivers/STM32H7xx_HAL_Driver/Src/stm32h7xx_hal_rcc.c ****       {
 623:Drivers/STM32H7xx_HAL_Driver/Src/stm32h7xx_hal_rcc.c ****         if((HAL_GetTick() - tickstart ) > LSI_TIMEOUT_VALUE)
 624:Drivers/STM32H7xx_HAL_Driver/Src/stm32h7xx_hal_rcc.c ****         {
 625:Drivers/STM32H7xx_HAL_Driver/Src/stm32h7xx_hal_rcc.c ****           return HAL_TIMEOUT;
 626:Drivers/STM32H7xx_HAL_Driver/Src/stm32h7xx_hal_rcc.c ****         }
 627:Drivers/STM32H7xx_HAL_Driver/Src/stm32h7xx_hal_rcc.c ****       }
 628:Drivers/STM32H7xx_HAL_Driver/Src/stm32h7xx_hal_rcc.c ****     }
 629:Drivers/STM32H7xx_HAL_Driver/Src/stm32h7xx_hal_rcc.c ****     else
 630:Drivers/STM32H7xx_HAL_Driver/Src/stm32h7xx_hal_rcc.c ****     {
 631:Drivers/STM32H7xx_HAL_Driver/Src/stm32h7xx_hal_rcc.c ****       /* Disable the Internal Low Speed oscillator (LSI). */
 632:Drivers/STM32H7xx_HAL_Driver/Src/stm32h7xx_hal_rcc.c ****       __HAL_RCC_LSI_DISABLE();
 633:Drivers/STM32H7xx_HAL_Driver/Src/stm32h7xx_hal_rcc.c **** 
 634:Drivers/STM32H7xx_HAL_Driver/Src/stm32h7xx_hal_rcc.c ****       /* Get Start Tick*/
 635:Drivers/STM32H7xx_HAL_Driver/Src/stm32h7xx_hal_rcc.c ****       tickstart = HAL_GetTick();
 636:Drivers/STM32H7xx_HAL_Driver/Src/stm32h7xx_hal_rcc.c **** 
 637:Drivers/STM32H7xx_HAL_Driver/Src/stm32h7xx_hal_rcc.c ****       /* Wait till LSI is ready */
 638:Drivers/STM32H7xx_HAL_Driver/Src/stm32h7xx_hal_rcc.c ****       while(__HAL_RCC_GET_FLAG(RCC_FLAG_LSIRDY) != 0U)
 639:Drivers/STM32H7xx_HAL_Driver/Src/stm32h7xx_hal_rcc.c ****       {
 640:Drivers/STM32H7xx_HAL_Driver/Src/stm32h7xx_hal_rcc.c ****         if((HAL_GetTick() - tickstart ) > LSI_TIMEOUT_VALUE)
 641:Drivers/STM32H7xx_HAL_Driver/Src/stm32h7xx_hal_rcc.c ****         {
 642:Drivers/STM32H7xx_HAL_Driver/Src/stm32h7xx_hal_rcc.c ****           return HAL_TIMEOUT;
 643:Drivers/STM32H7xx_HAL_Driver/Src/stm32h7xx_hal_rcc.c ****         }
 644:Drivers/STM32H7xx_HAL_Driver/Src/stm32h7xx_hal_rcc.c ****       }
 645:Drivers/STM32H7xx_HAL_Driver/Src/stm32h7xx_hal_rcc.c ****     }
 646:Drivers/STM32H7xx_HAL_Driver/Src/stm32h7xx_hal_rcc.c ****   }
 647:Drivers/STM32H7xx_HAL_Driver/Src/stm32h7xx_hal_rcc.c **** 
 648:Drivers/STM32H7xx_HAL_Driver/Src/stm32h7xx_hal_rcc.c ****   /*------------------------------ HSI48 Configuration -------------------------*/
 649:Drivers/STM32H7xx_HAL_Driver/Src/stm32h7xx_hal_rcc.c ****   if(((RCC_OscInitStruct->OscillatorType) & RCC_OSCILLATORTYPE_HSI48) == RCC_OSCILLATORTYPE_HSI48)
 650:Drivers/STM32H7xx_HAL_Driver/Src/stm32h7xx_hal_rcc.c ****   {
 651:Drivers/STM32H7xx_HAL_Driver/Src/stm32h7xx_hal_rcc.c ****     /* Check the parameters */
 652:Drivers/STM32H7xx_HAL_Driver/Src/stm32h7xx_hal_rcc.c ****     assert_param(IS_RCC_HSI48(RCC_OscInitStruct->HSI48State));
 653:Drivers/STM32H7xx_HAL_Driver/Src/stm32h7xx_hal_rcc.c **** 
 654:Drivers/STM32H7xx_HAL_Driver/Src/stm32h7xx_hal_rcc.c ****     /* Check the HSI48 State */
 655:Drivers/STM32H7xx_HAL_Driver/Src/stm32h7xx_hal_rcc.c ****     if((RCC_OscInitStruct->HSI48State)!= RCC_HSI48_OFF)
 656:Drivers/STM32H7xx_HAL_Driver/Src/stm32h7xx_hal_rcc.c ****     {
 657:Drivers/STM32H7xx_HAL_Driver/Src/stm32h7xx_hal_rcc.c ****       /* Enable the Internal Low Speed oscillator (HSI48). */
 658:Drivers/STM32H7xx_HAL_Driver/Src/stm32h7xx_hal_rcc.c ****       __HAL_RCC_HSI48_ENABLE();
 659:Drivers/STM32H7xx_HAL_Driver/Src/stm32h7xx_hal_rcc.c **** 
 660:Drivers/STM32H7xx_HAL_Driver/Src/stm32h7xx_hal_rcc.c ****       /* Get time-out */
ARM GAS  C:\Users\MadeuxS\AppData\Local\Temp\ccJrku7c.s 			page 13


 661:Drivers/STM32H7xx_HAL_Driver/Src/stm32h7xx_hal_rcc.c ****       tickstart = HAL_GetTick();
 662:Drivers/STM32H7xx_HAL_Driver/Src/stm32h7xx_hal_rcc.c **** 
 663:Drivers/STM32H7xx_HAL_Driver/Src/stm32h7xx_hal_rcc.c ****       /* Wait till HSI48 is ready */
 664:Drivers/STM32H7xx_HAL_Driver/Src/stm32h7xx_hal_rcc.c ****       while(__HAL_RCC_GET_FLAG(RCC_FLAG_HSI48RDY) == 0U)
 665:Drivers/STM32H7xx_HAL_Driver/Src/stm32h7xx_hal_rcc.c ****       {
 666:Drivers/STM32H7xx_HAL_Driver/Src/stm32h7xx_hal_rcc.c ****         if((HAL_GetTick() - tickstart ) > HSI48_TIMEOUT_VALUE)
 667:Drivers/STM32H7xx_HAL_Driver/Src/stm32h7xx_hal_rcc.c ****         {
 668:Drivers/STM32H7xx_HAL_Driver/Src/stm32h7xx_hal_rcc.c ****           return HAL_TIMEOUT;
 669:Drivers/STM32H7xx_HAL_Driver/Src/stm32h7xx_hal_rcc.c ****         }
 670:Drivers/STM32H7xx_HAL_Driver/Src/stm32h7xx_hal_rcc.c ****       }
 671:Drivers/STM32H7xx_HAL_Driver/Src/stm32h7xx_hal_rcc.c ****     }
 672:Drivers/STM32H7xx_HAL_Driver/Src/stm32h7xx_hal_rcc.c ****     else
 673:Drivers/STM32H7xx_HAL_Driver/Src/stm32h7xx_hal_rcc.c ****     {
 674:Drivers/STM32H7xx_HAL_Driver/Src/stm32h7xx_hal_rcc.c ****       /* Disable the Internal Low Speed oscillator (HSI48). */
 675:Drivers/STM32H7xx_HAL_Driver/Src/stm32h7xx_hal_rcc.c ****       __HAL_RCC_HSI48_DISABLE();
 676:Drivers/STM32H7xx_HAL_Driver/Src/stm32h7xx_hal_rcc.c **** 
 677:Drivers/STM32H7xx_HAL_Driver/Src/stm32h7xx_hal_rcc.c ****       /* Get time-out */
 678:Drivers/STM32H7xx_HAL_Driver/Src/stm32h7xx_hal_rcc.c ****       tickstart = HAL_GetTick();
 679:Drivers/STM32H7xx_HAL_Driver/Src/stm32h7xx_hal_rcc.c **** 
 680:Drivers/STM32H7xx_HAL_Driver/Src/stm32h7xx_hal_rcc.c ****       /* Wait till HSI48 is ready */
 681:Drivers/STM32H7xx_HAL_Driver/Src/stm32h7xx_hal_rcc.c ****       while(__HAL_RCC_GET_FLAG(RCC_FLAG_HSI48RDY) != 0U)
 682:Drivers/STM32H7xx_HAL_Driver/Src/stm32h7xx_hal_rcc.c ****       {
 683:Drivers/STM32H7xx_HAL_Driver/Src/stm32h7xx_hal_rcc.c ****         if((HAL_GetTick() - tickstart ) > HSI48_TIMEOUT_VALUE)
 684:Drivers/STM32H7xx_HAL_Driver/Src/stm32h7xx_hal_rcc.c ****         {
 685:Drivers/STM32H7xx_HAL_Driver/Src/stm32h7xx_hal_rcc.c ****           return HAL_TIMEOUT;
 686:Drivers/STM32H7xx_HAL_Driver/Src/stm32h7xx_hal_rcc.c ****         }
 687:Drivers/STM32H7xx_HAL_Driver/Src/stm32h7xx_hal_rcc.c ****       }
 688:Drivers/STM32H7xx_HAL_Driver/Src/stm32h7xx_hal_rcc.c ****     }
 689:Drivers/STM32H7xx_HAL_Driver/Src/stm32h7xx_hal_rcc.c ****   }
 690:Drivers/STM32H7xx_HAL_Driver/Src/stm32h7xx_hal_rcc.c ****   /*------------------------------ LSE Configuration -------------------------*/
 691:Drivers/STM32H7xx_HAL_Driver/Src/stm32h7xx_hal_rcc.c ****   if(((RCC_OscInitStruct->OscillatorType) & RCC_OSCILLATORTYPE_LSE) == RCC_OSCILLATORTYPE_LSE)
 692:Drivers/STM32H7xx_HAL_Driver/Src/stm32h7xx_hal_rcc.c ****   {
 693:Drivers/STM32H7xx_HAL_Driver/Src/stm32h7xx_hal_rcc.c ****     /* Check the parameters */
 694:Drivers/STM32H7xx_HAL_Driver/Src/stm32h7xx_hal_rcc.c ****     assert_param(IS_RCC_LSE(RCC_OscInitStruct->LSEState));
 695:Drivers/STM32H7xx_HAL_Driver/Src/stm32h7xx_hal_rcc.c **** 
 696:Drivers/STM32H7xx_HAL_Driver/Src/stm32h7xx_hal_rcc.c ****     /* Enable write access to Backup domain */
 697:Drivers/STM32H7xx_HAL_Driver/Src/stm32h7xx_hal_rcc.c ****     PWR->CR1 |= PWR_CR1_DBP;
 698:Drivers/STM32H7xx_HAL_Driver/Src/stm32h7xx_hal_rcc.c **** 
 699:Drivers/STM32H7xx_HAL_Driver/Src/stm32h7xx_hal_rcc.c ****     /* Wait for Backup domain Write protection disable */
 700:Drivers/STM32H7xx_HAL_Driver/Src/stm32h7xx_hal_rcc.c ****     tickstart = HAL_GetTick();
 701:Drivers/STM32H7xx_HAL_Driver/Src/stm32h7xx_hal_rcc.c **** 
 702:Drivers/STM32H7xx_HAL_Driver/Src/stm32h7xx_hal_rcc.c ****     while((PWR->CR1 & PWR_CR1_DBP) == 0U)
 703:Drivers/STM32H7xx_HAL_Driver/Src/stm32h7xx_hal_rcc.c ****     {
 704:Drivers/STM32H7xx_HAL_Driver/Src/stm32h7xx_hal_rcc.c ****       if((HAL_GetTick() - tickstart ) > RCC_DBP_TIMEOUT_VALUE)
 705:Drivers/STM32H7xx_HAL_Driver/Src/stm32h7xx_hal_rcc.c ****       {
 706:Drivers/STM32H7xx_HAL_Driver/Src/stm32h7xx_hal_rcc.c ****         return HAL_TIMEOUT;
 707:Drivers/STM32H7xx_HAL_Driver/Src/stm32h7xx_hal_rcc.c ****       }
 708:Drivers/STM32H7xx_HAL_Driver/Src/stm32h7xx_hal_rcc.c ****     }
 709:Drivers/STM32H7xx_HAL_Driver/Src/stm32h7xx_hal_rcc.c **** 
 710:Drivers/STM32H7xx_HAL_Driver/Src/stm32h7xx_hal_rcc.c ****     /* Set the new LSE configuration -----------------------------------------*/
 711:Drivers/STM32H7xx_HAL_Driver/Src/stm32h7xx_hal_rcc.c ****     __HAL_RCC_LSE_CONFIG(RCC_OscInitStruct->LSEState);
 712:Drivers/STM32H7xx_HAL_Driver/Src/stm32h7xx_hal_rcc.c ****     /* Check the LSE State */
 713:Drivers/STM32H7xx_HAL_Driver/Src/stm32h7xx_hal_rcc.c ****     if((RCC_OscInitStruct->LSEState) != RCC_LSE_OFF)
 714:Drivers/STM32H7xx_HAL_Driver/Src/stm32h7xx_hal_rcc.c ****     {
 715:Drivers/STM32H7xx_HAL_Driver/Src/stm32h7xx_hal_rcc.c ****       /* Get Start Tick*/
 716:Drivers/STM32H7xx_HAL_Driver/Src/stm32h7xx_hal_rcc.c ****       tickstart = HAL_GetTick();
 717:Drivers/STM32H7xx_HAL_Driver/Src/stm32h7xx_hal_rcc.c **** 
ARM GAS  C:\Users\MadeuxS\AppData\Local\Temp\ccJrku7c.s 			page 14


 718:Drivers/STM32H7xx_HAL_Driver/Src/stm32h7xx_hal_rcc.c ****       /* Wait till LSE is ready */
 719:Drivers/STM32H7xx_HAL_Driver/Src/stm32h7xx_hal_rcc.c ****       while(__HAL_RCC_GET_FLAG(RCC_FLAG_LSERDY) == 0U)
 720:Drivers/STM32H7xx_HAL_Driver/Src/stm32h7xx_hal_rcc.c ****       {
 721:Drivers/STM32H7xx_HAL_Driver/Src/stm32h7xx_hal_rcc.c ****         if((HAL_GetTick() - tickstart ) > RCC_LSE_TIMEOUT_VALUE)
 722:Drivers/STM32H7xx_HAL_Driver/Src/stm32h7xx_hal_rcc.c ****         {
 723:Drivers/STM32H7xx_HAL_Driver/Src/stm32h7xx_hal_rcc.c ****           return HAL_TIMEOUT;
 724:Drivers/STM32H7xx_HAL_Driver/Src/stm32h7xx_hal_rcc.c ****         }
 725:Drivers/STM32H7xx_HAL_Driver/Src/stm32h7xx_hal_rcc.c ****       }
 726:Drivers/STM32H7xx_HAL_Driver/Src/stm32h7xx_hal_rcc.c ****     }
 727:Drivers/STM32H7xx_HAL_Driver/Src/stm32h7xx_hal_rcc.c ****     else
 728:Drivers/STM32H7xx_HAL_Driver/Src/stm32h7xx_hal_rcc.c ****     {
 729:Drivers/STM32H7xx_HAL_Driver/Src/stm32h7xx_hal_rcc.c ****       /* Get Start Tick*/
 730:Drivers/STM32H7xx_HAL_Driver/Src/stm32h7xx_hal_rcc.c ****       tickstart = HAL_GetTick();
 731:Drivers/STM32H7xx_HAL_Driver/Src/stm32h7xx_hal_rcc.c **** 
 732:Drivers/STM32H7xx_HAL_Driver/Src/stm32h7xx_hal_rcc.c ****       /* Wait till LSE is disabled */
 733:Drivers/STM32H7xx_HAL_Driver/Src/stm32h7xx_hal_rcc.c ****       while(__HAL_RCC_GET_FLAG(RCC_FLAG_LSERDY) != 0U)
 734:Drivers/STM32H7xx_HAL_Driver/Src/stm32h7xx_hal_rcc.c ****       {
 735:Drivers/STM32H7xx_HAL_Driver/Src/stm32h7xx_hal_rcc.c ****         if((HAL_GetTick() - tickstart ) > RCC_LSE_TIMEOUT_VALUE)
 736:Drivers/STM32H7xx_HAL_Driver/Src/stm32h7xx_hal_rcc.c ****         {
 737:Drivers/STM32H7xx_HAL_Driver/Src/stm32h7xx_hal_rcc.c ****           return HAL_TIMEOUT;
 738:Drivers/STM32H7xx_HAL_Driver/Src/stm32h7xx_hal_rcc.c ****         }
 739:Drivers/STM32H7xx_HAL_Driver/Src/stm32h7xx_hal_rcc.c ****       }
 740:Drivers/STM32H7xx_HAL_Driver/Src/stm32h7xx_hal_rcc.c ****     }
 741:Drivers/STM32H7xx_HAL_Driver/Src/stm32h7xx_hal_rcc.c ****   }
 742:Drivers/STM32H7xx_HAL_Driver/Src/stm32h7xx_hal_rcc.c ****   /*-------------------------------- PLL Configuration -----------------------*/
 743:Drivers/STM32H7xx_HAL_Driver/Src/stm32h7xx_hal_rcc.c ****   /* Check the parameters */
 744:Drivers/STM32H7xx_HAL_Driver/Src/stm32h7xx_hal_rcc.c ****   assert_param(IS_RCC_PLL(RCC_OscInitStruct->PLL.PLLState));
 745:Drivers/STM32H7xx_HAL_Driver/Src/stm32h7xx_hal_rcc.c ****   if ((RCC_OscInitStruct->PLL.PLLState) != RCC_PLL_NONE)
 746:Drivers/STM32H7xx_HAL_Driver/Src/stm32h7xx_hal_rcc.c ****   {
 747:Drivers/STM32H7xx_HAL_Driver/Src/stm32h7xx_hal_rcc.c ****     /* Check if the PLL is used as system clock or not */
 748:Drivers/STM32H7xx_HAL_Driver/Src/stm32h7xx_hal_rcc.c ****     if(__HAL_RCC_GET_SYSCLK_SOURCE() != RCC_CFGR_SWS_PLL1)
 749:Drivers/STM32H7xx_HAL_Driver/Src/stm32h7xx_hal_rcc.c ****     {
 750:Drivers/STM32H7xx_HAL_Driver/Src/stm32h7xx_hal_rcc.c ****       if((RCC_OscInitStruct->PLL.PLLState) == RCC_PLL_ON)
 751:Drivers/STM32H7xx_HAL_Driver/Src/stm32h7xx_hal_rcc.c ****       {
 752:Drivers/STM32H7xx_HAL_Driver/Src/stm32h7xx_hal_rcc.c ****         /* Check the parameters */
 753:Drivers/STM32H7xx_HAL_Driver/Src/stm32h7xx_hal_rcc.c ****         assert_param(IS_RCC_PLLSOURCE(RCC_OscInitStruct->PLL.PLLSource));
 754:Drivers/STM32H7xx_HAL_Driver/Src/stm32h7xx_hal_rcc.c ****         assert_param(IS_RCC_PLLRGE_VALUE(RCC_OscInitStruct->PLL.PLLRGE));
 755:Drivers/STM32H7xx_HAL_Driver/Src/stm32h7xx_hal_rcc.c ****         assert_param(IS_RCC_PLLVCO_VALUE(RCC_OscInitStruct->PLL.PLLVCOSEL));
 756:Drivers/STM32H7xx_HAL_Driver/Src/stm32h7xx_hal_rcc.c ****         assert_param(IS_RCC_PLLM_VALUE(RCC_OscInitStruct->PLL.PLLM));
 757:Drivers/STM32H7xx_HAL_Driver/Src/stm32h7xx_hal_rcc.c ****         assert_param(IS_RCC_PLLN_VALUE(RCC_OscInitStruct->PLL.PLLN));
 758:Drivers/STM32H7xx_HAL_Driver/Src/stm32h7xx_hal_rcc.c ****         assert_param(IS_RCC_PLLP_VALUE(RCC_OscInitStruct->PLL.PLLP));
 759:Drivers/STM32H7xx_HAL_Driver/Src/stm32h7xx_hal_rcc.c ****         assert_param(IS_RCC_PLLQ_VALUE(RCC_OscInitStruct->PLL.PLLQ));
 760:Drivers/STM32H7xx_HAL_Driver/Src/stm32h7xx_hal_rcc.c ****         assert_param(IS_RCC_PLLR_VALUE(RCC_OscInitStruct->PLL.PLLR));
 761:Drivers/STM32H7xx_HAL_Driver/Src/stm32h7xx_hal_rcc.c ****         assert_param(IS_RCC_PLLFRACN_VALUE(RCC_OscInitStruct->PLL.PLLFRACN));
 762:Drivers/STM32H7xx_HAL_Driver/Src/stm32h7xx_hal_rcc.c **** 
 763:Drivers/STM32H7xx_HAL_Driver/Src/stm32h7xx_hal_rcc.c ****         /* Disable the main PLL. */
 764:Drivers/STM32H7xx_HAL_Driver/Src/stm32h7xx_hal_rcc.c ****         __HAL_RCC_PLL_DISABLE();
 765:Drivers/STM32H7xx_HAL_Driver/Src/stm32h7xx_hal_rcc.c **** 
 766:Drivers/STM32H7xx_HAL_Driver/Src/stm32h7xx_hal_rcc.c ****         /* Get Start Tick*/
 767:Drivers/STM32H7xx_HAL_Driver/Src/stm32h7xx_hal_rcc.c ****         tickstart = HAL_GetTick();
 768:Drivers/STM32H7xx_HAL_Driver/Src/stm32h7xx_hal_rcc.c **** 
 769:Drivers/STM32H7xx_HAL_Driver/Src/stm32h7xx_hal_rcc.c ****         /* Wait till PLL is disabled */
 770:Drivers/STM32H7xx_HAL_Driver/Src/stm32h7xx_hal_rcc.c ****         while(__HAL_RCC_GET_FLAG(RCC_FLAG_PLLRDY) != 0U)
 771:Drivers/STM32H7xx_HAL_Driver/Src/stm32h7xx_hal_rcc.c ****         {
 772:Drivers/STM32H7xx_HAL_Driver/Src/stm32h7xx_hal_rcc.c ****           if((HAL_GetTick() - tickstart ) > PLL_TIMEOUT_VALUE)
 773:Drivers/STM32H7xx_HAL_Driver/Src/stm32h7xx_hal_rcc.c ****           {
 774:Drivers/STM32H7xx_HAL_Driver/Src/stm32h7xx_hal_rcc.c ****             return HAL_TIMEOUT;
ARM GAS  C:\Users\MadeuxS\AppData\Local\Temp\ccJrku7c.s 			page 15


 775:Drivers/STM32H7xx_HAL_Driver/Src/stm32h7xx_hal_rcc.c ****           }
 776:Drivers/STM32H7xx_HAL_Driver/Src/stm32h7xx_hal_rcc.c ****         }
 777:Drivers/STM32H7xx_HAL_Driver/Src/stm32h7xx_hal_rcc.c **** 
 778:Drivers/STM32H7xx_HAL_Driver/Src/stm32h7xx_hal_rcc.c ****         /* Configure the main PLL clock source, multiplication and division factors. */
 779:Drivers/STM32H7xx_HAL_Driver/Src/stm32h7xx_hal_rcc.c ****         __HAL_RCC_PLL_CONFIG(RCC_OscInitStruct->PLL.PLLSource,
 780:Drivers/STM32H7xx_HAL_Driver/Src/stm32h7xx_hal_rcc.c ****                              RCC_OscInitStruct->PLL.PLLM,
 781:Drivers/STM32H7xx_HAL_Driver/Src/stm32h7xx_hal_rcc.c ****                              RCC_OscInitStruct->PLL.PLLN,
 782:Drivers/STM32H7xx_HAL_Driver/Src/stm32h7xx_hal_rcc.c ****                              RCC_OscInitStruct->PLL.PLLP,
 783:Drivers/STM32H7xx_HAL_Driver/Src/stm32h7xx_hal_rcc.c ****                              RCC_OscInitStruct->PLL.PLLQ,
 784:Drivers/STM32H7xx_HAL_Driver/Src/stm32h7xx_hal_rcc.c ****                              RCC_OscInitStruct->PLL.PLLR);
 785:Drivers/STM32H7xx_HAL_Driver/Src/stm32h7xx_hal_rcc.c **** 
 786:Drivers/STM32H7xx_HAL_Driver/Src/stm32h7xx_hal_rcc.c ****          /* Disable PLLFRACN . */
 787:Drivers/STM32H7xx_HAL_Driver/Src/stm32h7xx_hal_rcc.c ****          __HAL_RCC_PLLFRACN_DISABLE();
 788:Drivers/STM32H7xx_HAL_Driver/Src/stm32h7xx_hal_rcc.c **** 
 789:Drivers/STM32H7xx_HAL_Driver/Src/stm32h7xx_hal_rcc.c ****          /* Configure PLL PLL1FRACN */
 790:Drivers/STM32H7xx_HAL_Driver/Src/stm32h7xx_hal_rcc.c ****          __HAL_RCC_PLLFRACN_CONFIG(RCC_OscInitStruct->PLL.PLLFRACN);
 791:Drivers/STM32H7xx_HAL_Driver/Src/stm32h7xx_hal_rcc.c **** 
 792:Drivers/STM32H7xx_HAL_Driver/Src/stm32h7xx_hal_rcc.c ****         /* Select PLL1 input reference frequency range: VCI */
 793:Drivers/STM32H7xx_HAL_Driver/Src/stm32h7xx_hal_rcc.c ****         __HAL_RCC_PLL_VCIRANGE(RCC_OscInitStruct->PLL.PLLRGE) ;
 794:Drivers/STM32H7xx_HAL_Driver/Src/stm32h7xx_hal_rcc.c **** 
 795:Drivers/STM32H7xx_HAL_Driver/Src/stm32h7xx_hal_rcc.c ****         /* Select PLL1 output frequency range : VCO */
 796:Drivers/STM32H7xx_HAL_Driver/Src/stm32h7xx_hal_rcc.c ****         __HAL_RCC_PLL_VCORANGE(RCC_OscInitStruct->PLL.PLLVCOSEL) ;
 797:Drivers/STM32H7xx_HAL_Driver/Src/stm32h7xx_hal_rcc.c **** 
 798:Drivers/STM32H7xx_HAL_Driver/Src/stm32h7xx_hal_rcc.c ****         /* Enable PLL System Clock output. */
 799:Drivers/STM32H7xx_HAL_Driver/Src/stm32h7xx_hal_rcc.c ****          __HAL_RCC_PLLCLKOUT_ENABLE(RCC_PLL1_DIVP);
 800:Drivers/STM32H7xx_HAL_Driver/Src/stm32h7xx_hal_rcc.c **** 
 801:Drivers/STM32H7xx_HAL_Driver/Src/stm32h7xx_hal_rcc.c ****         /* Enable PLL1Q Clock output. */
 802:Drivers/STM32H7xx_HAL_Driver/Src/stm32h7xx_hal_rcc.c ****          __HAL_RCC_PLLCLKOUT_ENABLE(RCC_PLL1_DIVQ);
 803:Drivers/STM32H7xx_HAL_Driver/Src/stm32h7xx_hal_rcc.c **** 
 804:Drivers/STM32H7xx_HAL_Driver/Src/stm32h7xx_hal_rcc.c ****         /* Enable PLL1R  Clock output. */
 805:Drivers/STM32H7xx_HAL_Driver/Src/stm32h7xx_hal_rcc.c ****          __HAL_RCC_PLLCLKOUT_ENABLE(RCC_PLL1_DIVR);
 806:Drivers/STM32H7xx_HAL_Driver/Src/stm32h7xx_hal_rcc.c **** 
 807:Drivers/STM32H7xx_HAL_Driver/Src/stm32h7xx_hal_rcc.c ****         /* Enable PLL1FRACN . */
 808:Drivers/STM32H7xx_HAL_Driver/Src/stm32h7xx_hal_rcc.c ****          __HAL_RCC_PLLFRACN_ENABLE();
 809:Drivers/STM32H7xx_HAL_Driver/Src/stm32h7xx_hal_rcc.c **** 
 810:Drivers/STM32H7xx_HAL_Driver/Src/stm32h7xx_hal_rcc.c ****         /* Enable the main PLL. */
 811:Drivers/STM32H7xx_HAL_Driver/Src/stm32h7xx_hal_rcc.c ****         __HAL_RCC_PLL_ENABLE();
 812:Drivers/STM32H7xx_HAL_Driver/Src/stm32h7xx_hal_rcc.c **** 
 813:Drivers/STM32H7xx_HAL_Driver/Src/stm32h7xx_hal_rcc.c ****         /* Get Start Tick*/
 814:Drivers/STM32H7xx_HAL_Driver/Src/stm32h7xx_hal_rcc.c ****         tickstart = HAL_GetTick();
 815:Drivers/STM32H7xx_HAL_Driver/Src/stm32h7xx_hal_rcc.c **** 
 816:Drivers/STM32H7xx_HAL_Driver/Src/stm32h7xx_hal_rcc.c ****         /* Wait till PLL is ready */
 817:Drivers/STM32H7xx_HAL_Driver/Src/stm32h7xx_hal_rcc.c ****         while(__HAL_RCC_GET_FLAG(RCC_FLAG_PLLRDY) == 0U)
 818:Drivers/STM32H7xx_HAL_Driver/Src/stm32h7xx_hal_rcc.c ****         {
 819:Drivers/STM32H7xx_HAL_Driver/Src/stm32h7xx_hal_rcc.c ****           if((HAL_GetTick() - tickstart ) > PLL_TIMEOUT_VALUE)
 820:Drivers/STM32H7xx_HAL_Driver/Src/stm32h7xx_hal_rcc.c ****           {
 821:Drivers/STM32H7xx_HAL_Driver/Src/stm32h7xx_hal_rcc.c ****             return HAL_TIMEOUT;
 822:Drivers/STM32H7xx_HAL_Driver/Src/stm32h7xx_hal_rcc.c ****           }
 823:Drivers/STM32H7xx_HAL_Driver/Src/stm32h7xx_hal_rcc.c ****         }
 824:Drivers/STM32H7xx_HAL_Driver/Src/stm32h7xx_hal_rcc.c ****       }
 825:Drivers/STM32H7xx_HAL_Driver/Src/stm32h7xx_hal_rcc.c ****       else
 826:Drivers/STM32H7xx_HAL_Driver/Src/stm32h7xx_hal_rcc.c ****       {
 827:Drivers/STM32H7xx_HAL_Driver/Src/stm32h7xx_hal_rcc.c ****         /* Disable the main PLL. */
 828:Drivers/STM32H7xx_HAL_Driver/Src/stm32h7xx_hal_rcc.c ****         __HAL_RCC_PLL_DISABLE();
 829:Drivers/STM32H7xx_HAL_Driver/Src/stm32h7xx_hal_rcc.c **** 
 830:Drivers/STM32H7xx_HAL_Driver/Src/stm32h7xx_hal_rcc.c ****         /* Get Start Tick*/
 831:Drivers/STM32H7xx_HAL_Driver/Src/stm32h7xx_hal_rcc.c ****         tickstart = HAL_GetTick();
ARM GAS  C:\Users\MadeuxS\AppData\Local\Temp\ccJrku7c.s 			page 16


 832:Drivers/STM32H7xx_HAL_Driver/Src/stm32h7xx_hal_rcc.c **** 
 833:Drivers/STM32H7xx_HAL_Driver/Src/stm32h7xx_hal_rcc.c ****         /* Wait till PLL is disabled */
 834:Drivers/STM32H7xx_HAL_Driver/Src/stm32h7xx_hal_rcc.c ****         while(__HAL_RCC_GET_FLAG(RCC_FLAG_PLLRDY) != 0U)
 835:Drivers/STM32H7xx_HAL_Driver/Src/stm32h7xx_hal_rcc.c ****         {
 836:Drivers/STM32H7xx_HAL_Driver/Src/stm32h7xx_hal_rcc.c ****           if((HAL_GetTick() - tickstart ) > PLL_TIMEOUT_VALUE)
 837:Drivers/STM32H7xx_HAL_Driver/Src/stm32h7xx_hal_rcc.c ****           {
 838:Drivers/STM32H7xx_HAL_Driver/Src/stm32h7xx_hal_rcc.c ****             return HAL_TIMEOUT;
 839:Drivers/STM32H7xx_HAL_Driver/Src/stm32h7xx_hal_rcc.c ****           }
 840:Drivers/STM32H7xx_HAL_Driver/Src/stm32h7xx_hal_rcc.c ****         }
 841:Drivers/STM32H7xx_HAL_Driver/Src/stm32h7xx_hal_rcc.c ****       }
 842:Drivers/STM32H7xx_HAL_Driver/Src/stm32h7xx_hal_rcc.c ****     }
 843:Drivers/STM32H7xx_HAL_Driver/Src/stm32h7xx_hal_rcc.c ****     else
 844:Drivers/STM32H7xx_HAL_Driver/Src/stm32h7xx_hal_rcc.c ****     {
 845:Drivers/STM32H7xx_HAL_Driver/Src/stm32h7xx_hal_rcc.c ****       /* Do not return HAL_ERROR if request repeats the current configuration */
 846:Drivers/STM32H7xx_HAL_Driver/Src/stm32h7xx_hal_rcc.c ****       temp1_pllckcfg = RCC->PLLCKSELR;
 847:Drivers/STM32H7xx_HAL_Driver/Src/stm32h7xx_hal_rcc.c ****       temp2_pllckcfg = RCC->PLL1DIVR;
 848:Drivers/STM32H7xx_HAL_Driver/Src/stm32h7xx_hal_rcc.c ****       if(((RCC_OscInitStruct->PLL.PLLState) == RCC_PLL_OFF) ||
 849:Drivers/STM32H7xx_HAL_Driver/Src/stm32h7xx_hal_rcc.c **** 	 (READ_BIT(temp1_pllckcfg, RCC_PLLCKSELR_PLLSRC) != RCC_OscInitStruct->PLL.PLLSource) ||
 850:Drivers/STM32H7xx_HAL_Driver/Src/stm32h7xx_hal_rcc.c ****          ((READ_BIT(temp1_pllckcfg, RCC_PLLCKSELR_DIVM1) >> RCC_PLLCKSELR_DIVM1_Pos) != RCC_OscInit
 851:Drivers/STM32H7xx_HAL_Driver/Src/stm32h7xx_hal_rcc.c ****          (READ_BIT(temp2_pllckcfg, RCC_PLL1DIVR_N1) != (RCC_OscInitStruct->PLL.PLLN - 1U)) ||
 852:Drivers/STM32H7xx_HAL_Driver/Src/stm32h7xx_hal_rcc.c ****          ((READ_BIT(temp2_pllckcfg, RCC_PLL1DIVR_P1) >> RCC_PLL1DIVR_P1_Pos) != (RCC_OscInitStruct-
 853:Drivers/STM32H7xx_HAL_Driver/Src/stm32h7xx_hal_rcc.c ****          ((READ_BIT(temp2_pllckcfg, RCC_PLL1DIVR_Q1) >> RCC_PLL1DIVR_Q1_Pos) != (RCC_OscInitStruct-
 854:Drivers/STM32H7xx_HAL_Driver/Src/stm32h7xx_hal_rcc.c ****          ((READ_BIT(temp2_pllckcfg, RCC_PLL1DIVR_R1) >> RCC_PLL1DIVR_R1_Pos) != (RCC_OscInitStruct-
 855:Drivers/STM32H7xx_HAL_Driver/Src/stm32h7xx_hal_rcc.c ****       {
 856:Drivers/STM32H7xx_HAL_Driver/Src/stm32h7xx_hal_rcc.c ****         return HAL_ERROR;
 857:Drivers/STM32H7xx_HAL_Driver/Src/stm32h7xx_hal_rcc.c ****       }
 858:Drivers/STM32H7xx_HAL_Driver/Src/stm32h7xx_hal_rcc.c ****     }
 859:Drivers/STM32H7xx_HAL_Driver/Src/stm32h7xx_hal_rcc.c ****   }
 860:Drivers/STM32H7xx_HAL_Driver/Src/stm32h7xx_hal_rcc.c ****   return HAL_OK;
 861:Drivers/STM32H7xx_HAL_Driver/Src/stm32h7xx_hal_rcc.c **** }
 862:Drivers/STM32H7xx_HAL_Driver/Src/stm32h7xx_hal_rcc.c **** 
 863:Drivers/STM32H7xx_HAL_Driver/Src/stm32h7xx_hal_rcc.c **** /**
 864:Drivers/STM32H7xx_HAL_Driver/Src/stm32h7xx_hal_rcc.c ****   * @brief  Initializes the CPU, AHB and APB buses clocks according to the specified
 865:Drivers/STM32H7xx_HAL_Driver/Src/stm32h7xx_hal_rcc.c ****   *         parameters in the RCC_ClkInitStruct.
 866:Drivers/STM32H7xx_HAL_Driver/Src/stm32h7xx_hal_rcc.c ****   * @param  RCC_ClkInitStruct: pointer to an RCC_OscInitTypeDef structure that
 867:Drivers/STM32H7xx_HAL_Driver/Src/stm32h7xx_hal_rcc.c ****   *         contains the configuration information for the RCC peripheral.
 868:Drivers/STM32H7xx_HAL_Driver/Src/stm32h7xx_hal_rcc.c ****   * @param  FLatency: FLASH Latency, this parameter depend on device selected
 869:Drivers/STM32H7xx_HAL_Driver/Src/stm32h7xx_hal_rcc.c ****   *
 870:Drivers/STM32H7xx_HAL_Driver/Src/stm32h7xx_hal_rcc.c ****   * @note   The SystemCoreClock CMSIS variable is used to store System Core Clock Frequency
 871:Drivers/STM32H7xx_HAL_Driver/Src/stm32h7xx_hal_rcc.c ****   *         and updated by HAL_InitTick() function called within this function
 872:Drivers/STM32H7xx_HAL_Driver/Src/stm32h7xx_hal_rcc.c ****   *
 873:Drivers/STM32H7xx_HAL_Driver/Src/stm32h7xx_hal_rcc.c ****   * @note   The HSI is used (enabled by hardware) as system clock source after
 874:Drivers/STM32H7xx_HAL_Driver/Src/stm32h7xx_hal_rcc.c ****   *         start-up from Reset, wake-up from STOP and STANDBY mode, or in case
 875:Drivers/STM32H7xx_HAL_Driver/Src/stm32h7xx_hal_rcc.c ****   *         of failure of the HSE used directly or indirectly as system clock
 876:Drivers/STM32H7xx_HAL_Driver/Src/stm32h7xx_hal_rcc.c ****   *         (if the Clock Security System CSS is enabled).
 877:Drivers/STM32H7xx_HAL_Driver/Src/stm32h7xx_hal_rcc.c ****   *
 878:Drivers/STM32H7xx_HAL_Driver/Src/stm32h7xx_hal_rcc.c ****   * @note   A switch from one clock source to another occurs only if the target
 879:Drivers/STM32H7xx_HAL_Driver/Src/stm32h7xx_hal_rcc.c ****   *         clock source is ready (clock stable after start-up delay or PLL locked).
 880:Drivers/STM32H7xx_HAL_Driver/Src/stm32h7xx_hal_rcc.c ****   *         If a clock source which is not yet ready is selected, the switch will
 881:Drivers/STM32H7xx_HAL_Driver/Src/stm32h7xx_hal_rcc.c ****   *         occur when the clock source will be ready.
 882:Drivers/STM32H7xx_HAL_Driver/Src/stm32h7xx_hal_rcc.c ****   *         You can use HAL_RCC_GetClockConfig() function to know which clock is
 883:Drivers/STM32H7xx_HAL_Driver/Src/stm32h7xx_hal_rcc.c ****   *         currently used as system clock source.
 884:Drivers/STM32H7xx_HAL_Driver/Src/stm32h7xx_hal_rcc.c ****   * @note   Depending on the device voltage range, the software has to set correctly
 885:Drivers/STM32H7xx_HAL_Driver/Src/stm32h7xx_hal_rcc.c ****   *         D1CPRE[3:0] bits to ensure that  Domain1 core clock not exceed the maximum allowed freq
 886:Drivers/STM32H7xx_HAL_Driver/Src/stm32h7xx_hal_rcc.c ****   *         (for more details refer to section above "Initialization/de-initialization functions")
 887:Drivers/STM32H7xx_HAL_Driver/Src/stm32h7xx_hal_rcc.c ****   * @retval None
 888:Drivers/STM32H7xx_HAL_Driver/Src/stm32h7xx_hal_rcc.c ****   */
ARM GAS  C:\Users\MadeuxS\AppData\Local\Temp\ccJrku7c.s 			page 17


 889:Drivers/STM32H7xx_HAL_Driver/Src/stm32h7xx_hal_rcc.c **** HAL_StatusTypeDef HAL_RCC_ClockConfig(RCC_ClkInitTypeDef  *RCC_ClkInitStruct, uint32_t FLatency)
 890:Drivers/STM32H7xx_HAL_Driver/Src/stm32h7xx_hal_rcc.c **** {
 891:Drivers/STM32H7xx_HAL_Driver/Src/stm32h7xx_hal_rcc.c ****   HAL_StatusTypeDef halstatus;
 892:Drivers/STM32H7xx_HAL_Driver/Src/stm32h7xx_hal_rcc.c ****   uint32_t tickstart;
 893:Drivers/STM32H7xx_HAL_Driver/Src/stm32h7xx_hal_rcc.c ****   uint32_t common_system_clock;
 894:Drivers/STM32H7xx_HAL_Driver/Src/stm32h7xx_hal_rcc.c **** 
 895:Drivers/STM32H7xx_HAL_Driver/Src/stm32h7xx_hal_rcc.c ****    /* Check Null pointer */
 896:Drivers/STM32H7xx_HAL_Driver/Src/stm32h7xx_hal_rcc.c ****   if(RCC_ClkInitStruct == NULL)
 897:Drivers/STM32H7xx_HAL_Driver/Src/stm32h7xx_hal_rcc.c ****   {
 898:Drivers/STM32H7xx_HAL_Driver/Src/stm32h7xx_hal_rcc.c ****     return HAL_ERROR;
 899:Drivers/STM32H7xx_HAL_Driver/Src/stm32h7xx_hal_rcc.c ****   }
 900:Drivers/STM32H7xx_HAL_Driver/Src/stm32h7xx_hal_rcc.c **** 
 901:Drivers/STM32H7xx_HAL_Driver/Src/stm32h7xx_hal_rcc.c ****   /* Check the parameters */
 902:Drivers/STM32H7xx_HAL_Driver/Src/stm32h7xx_hal_rcc.c ****   assert_param(IS_RCC_CLOCKTYPE(RCC_ClkInitStruct->ClockType));
 903:Drivers/STM32H7xx_HAL_Driver/Src/stm32h7xx_hal_rcc.c ****   assert_param(IS_FLASH_LATENCY(FLatency));
 904:Drivers/STM32H7xx_HAL_Driver/Src/stm32h7xx_hal_rcc.c **** 
 905:Drivers/STM32H7xx_HAL_Driver/Src/stm32h7xx_hal_rcc.c ****   /* To correctly read data from FLASH memory, the number of wait states (LATENCY)
 906:Drivers/STM32H7xx_HAL_Driver/Src/stm32h7xx_hal_rcc.c ****     must be correctly programmed according to the frequency of the CPU clock
 907:Drivers/STM32H7xx_HAL_Driver/Src/stm32h7xx_hal_rcc.c ****     (HCLK) and the supply voltage of the device. */
 908:Drivers/STM32H7xx_HAL_Driver/Src/stm32h7xx_hal_rcc.c **** 
 909:Drivers/STM32H7xx_HAL_Driver/Src/stm32h7xx_hal_rcc.c ****   /* Increasing the CPU frequency */
 910:Drivers/STM32H7xx_HAL_Driver/Src/stm32h7xx_hal_rcc.c ****   if(FLatency > __HAL_FLASH_GET_LATENCY())
 911:Drivers/STM32H7xx_HAL_Driver/Src/stm32h7xx_hal_rcc.c ****   {
 912:Drivers/STM32H7xx_HAL_Driver/Src/stm32h7xx_hal_rcc.c ****     /* Program the new number of wait states to the LATENCY bits in the FLASH_ACR register */
 913:Drivers/STM32H7xx_HAL_Driver/Src/stm32h7xx_hal_rcc.c ****     __HAL_FLASH_SET_LATENCY(FLatency);
 914:Drivers/STM32H7xx_HAL_Driver/Src/stm32h7xx_hal_rcc.c **** 
 915:Drivers/STM32H7xx_HAL_Driver/Src/stm32h7xx_hal_rcc.c ****     /* Check that the new number of wait states is taken into account to access the Flash
 916:Drivers/STM32H7xx_HAL_Driver/Src/stm32h7xx_hal_rcc.c ****     memory by reading the FLASH_ACR register */
 917:Drivers/STM32H7xx_HAL_Driver/Src/stm32h7xx_hal_rcc.c ****     if(__HAL_FLASH_GET_LATENCY() != FLatency)
 918:Drivers/STM32H7xx_HAL_Driver/Src/stm32h7xx_hal_rcc.c ****     {
 919:Drivers/STM32H7xx_HAL_Driver/Src/stm32h7xx_hal_rcc.c ****       return HAL_ERROR;
 920:Drivers/STM32H7xx_HAL_Driver/Src/stm32h7xx_hal_rcc.c ****     }
 921:Drivers/STM32H7xx_HAL_Driver/Src/stm32h7xx_hal_rcc.c **** 
 922:Drivers/STM32H7xx_HAL_Driver/Src/stm32h7xx_hal_rcc.c ****   }
 923:Drivers/STM32H7xx_HAL_Driver/Src/stm32h7xx_hal_rcc.c **** 
 924:Drivers/STM32H7xx_HAL_Driver/Src/stm32h7xx_hal_rcc.c ****   /* Increasing the BUS frequency divider */
 925:Drivers/STM32H7xx_HAL_Driver/Src/stm32h7xx_hal_rcc.c ****   /*-------------------------- D1PCLK1/CDPCLK1 Configuration ---------------------------*/
 926:Drivers/STM32H7xx_HAL_Driver/Src/stm32h7xx_hal_rcc.c ****   if(((RCC_ClkInitStruct->ClockType) & RCC_CLOCKTYPE_D1PCLK1) == RCC_CLOCKTYPE_D1PCLK1)
 927:Drivers/STM32H7xx_HAL_Driver/Src/stm32h7xx_hal_rcc.c ****   {
 928:Drivers/STM32H7xx_HAL_Driver/Src/stm32h7xx_hal_rcc.c **** #if defined (RCC_D1CFGR_D1PPRE)
 929:Drivers/STM32H7xx_HAL_Driver/Src/stm32h7xx_hal_rcc.c ****     if((RCC_ClkInitStruct->APB3CLKDivider) > (RCC->D1CFGR & RCC_D1CFGR_D1PPRE))
 930:Drivers/STM32H7xx_HAL_Driver/Src/stm32h7xx_hal_rcc.c ****     {
 931:Drivers/STM32H7xx_HAL_Driver/Src/stm32h7xx_hal_rcc.c ****       assert_param(IS_RCC_D1PCLK1(RCC_ClkInitStruct->APB3CLKDivider));
 932:Drivers/STM32H7xx_HAL_Driver/Src/stm32h7xx_hal_rcc.c ****       MODIFY_REG(RCC->D1CFGR, RCC_D1CFGR_D1PPRE, RCC_ClkInitStruct->APB3CLKDivider);
 933:Drivers/STM32H7xx_HAL_Driver/Src/stm32h7xx_hal_rcc.c ****     }
 934:Drivers/STM32H7xx_HAL_Driver/Src/stm32h7xx_hal_rcc.c **** #else
 935:Drivers/STM32H7xx_HAL_Driver/Src/stm32h7xx_hal_rcc.c ****     if((RCC_ClkInitStruct->APB3CLKDivider) > (RCC->CDCFGR1 & RCC_CDCFGR1_CDPPRE))
 936:Drivers/STM32H7xx_HAL_Driver/Src/stm32h7xx_hal_rcc.c ****     {
 937:Drivers/STM32H7xx_HAL_Driver/Src/stm32h7xx_hal_rcc.c ****       assert_param(IS_RCC_CDPCLK1(RCC_ClkInitStruct->APB3CLKDivider));
 938:Drivers/STM32H7xx_HAL_Driver/Src/stm32h7xx_hal_rcc.c ****       MODIFY_REG(RCC->CDCFGR1, RCC_CDCFGR1_CDPPRE, RCC_ClkInitStruct->APB3CLKDivider);
 939:Drivers/STM32H7xx_HAL_Driver/Src/stm32h7xx_hal_rcc.c ****     }
 940:Drivers/STM32H7xx_HAL_Driver/Src/stm32h7xx_hal_rcc.c **** #endif
 941:Drivers/STM32H7xx_HAL_Driver/Src/stm32h7xx_hal_rcc.c ****   }
 942:Drivers/STM32H7xx_HAL_Driver/Src/stm32h7xx_hal_rcc.c **** 
 943:Drivers/STM32H7xx_HAL_Driver/Src/stm32h7xx_hal_rcc.c ****   /*-------------------------- PCLK1 Configuration ---------------------------*/
 944:Drivers/STM32H7xx_HAL_Driver/Src/stm32h7xx_hal_rcc.c ****   if(((RCC_ClkInitStruct->ClockType) & RCC_CLOCKTYPE_PCLK1) == RCC_CLOCKTYPE_PCLK1)
 945:Drivers/STM32H7xx_HAL_Driver/Src/stm32h7xx_hal_rcc.c ****   {
ARM GAS  C:\Users\MadeuxS\AppData\Local\Temp\ccJrku7c.s 			page 18


 946:Drivers/STM32H7xx_HAL_Driver/Src/stm32h7xx_hal_rcc.c **** #if defined (RCC_D2CFGR_D2PPRE1)
 947:Drivers/STM32H7xx_HAL_Driver/Src/stm32h7xx_hal_rcc.c ****     if((RCC_ClkInitStruct->APB1CLKDivider) > (RCC->D2CFGR & RCC_D2CFGR_D2PPRE1))
 948:Drivers/STM32H7xx_HAL_Driver/Src/stm32h7xx_hal_rcc.c ****     {
 949:Drivers/STM32H7xx_HAL_Driver/Src/stm32h7xx_hal_rcc.c ****       assert_param(IS_RCC_PCLK1(RCC_ClkInitStruct->APB1CLKDivider));
 950:Drivers/STM32H7xx_HAL_Driver/Src/stm32h7xx_hal_rcc.c ****       MODIFY_REG(RCC->D2CFGR, RCC_D2CFGR_D2PPRE1, (RCC_ClkInitStruct->APB1CLKDivider));
 951:Drivers/STM32H7xx_HAL_Driver/Src/stm32h7xx_hal_rcc.c ****     }
 952:Drivers/STM32H7xx_HAL_Driver/Src/stm32h7xx_hal_rcc.c **** #else
 953:Drivers/STM32H7xx_HAL_Driver/Src/stm32h7xx_hal_rcc.c ****     if((RCC_ClkInitStruct->APB1CLKDivider) > (RCC->CDCFGR2 & RCC_CDCFGR2_CDPPRE1))
 954:Drivers/STM32H7xx_HAL_Driver/Src/stm32h7xx_hal_rcc.c ****     {
 955:Drivers/STM32H7xx_HAL_Driver/Src/stm32h7xx_hal_rcc.c ****       assert_param(IS_RCC_PCLK1(RCC_ClkInitStruct->APB1CLKDivider));
 956:Drivers/STM32H7xx_HAL_Driver/Src/stm32h7xx_hal_rcc.c ****       MODIFY_REG(RCC->CDCFGR2, RCC_CDCFGR2_CDPPRE1, (RCC_ClkInitStruct->APB1CLKDivider));
 957:Drivers/STM32H7xx_HAL_Driver/Src/stm32h7xx_hal_rcc.c ****   }
 958:Drivers/STM32H7xx_HAL_Driver/Src/stm32h7xx_hal_rcc.c **** #endif
 959:Drivers/STM32H7xx_HAL_Driver/Src/stm32h7xx_hal_rcc.c ****     }
 960:Drivers/STM32H7xx_HAL_Driver/Src/stm32h7xx_hal_rcc.c ****   /*-------------------------- PCLK2 Configuration ---------------------------*/
 961:Drivers/STM32H7xx_HAL_Driver/Src/stm32h7xx_hal_rcc.c ****   if(((RCC_ClkInitStruct->ClockType) & RCC_CLOCKTYPE_PCLK2) == RCC_CLOCKTYPE_PCLK2)
 962:Drivers/STM32H7xx_HAL_Driver/Src/stm32h7xx_hal_rcc.c ****   {
 963:Drivers/STM32H7xx_HAL_Driver/Src/stm32h7xx_hal_rcc.c **** #if defined(RCC_D2CFGR_D2PPRE2)
 964:Drivers/STM32H7xx_HAL_Driver/Src/stm32h7xx_hal_rcc.c ****     if((RCC_ClkInitStruct->APB2CLKDivider) > (RCC->D2CFGR & RCC_D2CFGR_D2PPRE2))
 965:Drivers/STM32H7xx_HAL_Driver/Src/stm32h7xx_hal_rcc.c ****     {
 966:Drivers/STM32H7xx_HAL_Driver/Src/stm32h7xx_hal_rcc.c ****       assert_param(IS_RCC_PCLK2(RCC_ClkInitStruct->APB2CLKDivider));
 967:Drivers/STM32H7xx_HAL_Driver/Src/stm32h7xx_hal_rcc.c ****       MODIFY_REG(RCC->D2CFGR, RCC_D2CFGR_D2PPRE2, (RCC_ClkInitStruct->APB2CLKDivider));
 968:Drivers/STM32H7xx_HAL_Driver/Src/stm32h7xx_hal_rcc.c ****     }
 969:Drivers/STM32H7xx_HAL_Driver/Src/stm32h7xx_hal_rcc.c **** #else
 970:Drivers/STM32H7xx_HAL_Driver/Src/stm32h7xx_hal_rcc.c ****      if((RCC_ClkInitStruct->APB2CLKDivider) > (RCC->CDCFGR2 & RCC_CDCFGR2_CDPPRE2))
 971:Drivers/STM32H7xx_HAL_Driver/Src/stm32h7xx_hal_rcc.c ****     {
 972:Drivers/STM32H7xx_HAL_Driver/Src/stm32h7xx_hal_rcc.c ****       assert_param(IS_RCC_PCLK2(RCC_ClkInitStruct->APB2CLKDivider));
 973:Drivers/STM32H7xx_HAL_Driver/Src/stm32h7xx_hal_rcc.c ****       MODIFY_REG(RCC->CDCFGR2, RCC_CDCFGR2_CDPPRE2, (RCC_ClkInitStruct->APB2CLKDivider));
 974:Drivers/STM32H7xx_HAL_Driver/Src/stm32h7xx_hal_rcc.c ****     }
 975:Drivers/STM32H7xx_HAL_Driver/Src/stm32h7xx_hal_rcc.c **** #endif
 976:Drivers/STM32H7xx_HAL_Driver/Src/stm32h7xx_hal_rcc.c ****   }
 977:Drivers/STM32H7xx_HAL_Driver/Src/stm32h7xx_hal_rcc.c **** 
 978:Drivers/STM32H7xx_HAL_Driver/Src/stm32h7xx_hal_rcc.c ****   /*-------------------------- D3PCLK1 Configuration ---------------------------*/
 979:Drivers/STM32H7xx_HAL_Driver/Src/stm32h7xx_hal_rcc.c ****   if(((RCC_ClkInitStruct->ClockType) & RCC_CLOCKTYPE_D3PCLK1) == RCC_CLOCKTYPE_D3PCLK1)
 980:Drivers/STM32H7xx_HAL_Driver/Src/stm32h7xx_hal_rcc.c ****   {
 981:Drivers/STM32H7xx_HAL_Driver/Src/stm32h7xx_hal_rcc.c **** #if defined(RCC_D3CFGR_D3PPRE)
 982:Drivers/STM32H7xx_HAL_Driver/Src/stm32h7xx_hal_rcc.c ****     if((RCC_ClkInitStruct->APB4CLKDivider) > (RCC->D3CFGR & RCC_D3CFGR_D3PPRE))
 983:Drivers/STM32H7xx_HAL_Driver/Src/stm32h7xx_hal_rcc.c ****     {
 984:Drivers/STM32H7xx_HAL_Driver/Src/stm32h7xx_hal_rcc.c ****       assert_param(IS_RCC_D3PCLK1(RCC_ClkInitStruct->APB4CLKDivider));
 985:Drivers/STM32H7xx_HAL_Driver/Src/stm32h7xx_hal_rcc.c ****       MODIFY_REG(RCC->D3CFGR, RCC_D3CFGR_D3PPRE, (RCC_ClkInitStruct->APB4CLKDivider) );
 986:Drivers/STM32H7xx_HAL_Driver/Src/stm32h7xx_hal_rcc.c ****     }
 987:Drivers/STM32H7xx_HAL_Driver/Src/stm32h7xx_hal_rcc.c **** #else
 988:Drivers/STM32H7xx_HAL_Driver/Src/stm32h7xx_hal_rcc.c ****     if((RCC_ClkInitStruct->APB4CLKDivider) > (RCC->SRDCFGR & RCC_SRDCFGR_SRDPPRE))
 989:Drivers/STM32H7xx_HAL_Driver/Src/stm32h7xx_hal_rcc.c ****     {
 990:Drivers/STM32H7xx_HAL_Driver/Src/stm32h7xx_hal_rcc.c ****       assert_param(IS_RCC_D3PCLK1(RCC_ClkInitStruct->APB4CLKDivider));
 991:Drivers/STM32H7xx_HAL_Driver/Src/stm32h7xx_hal_rcc.c ****       MODIFY_REG(RCC->SRDCFGR, RCC_SRDCFGR_SRDPPRE, (RCC_ClkInitStruct->APB4CLKDivider) );
 992:Drivers/STM32H7xx_HAL_Driver/Src/stm32h7xx_hal_rcc.c ****     }
 993:Drivers/STM32H7xx_HAL_Driver/Src/stm32h7xx_hal_rcc.c **** #endif
 994:Drivers/STM32H7xx_HAL_Driver/Src/stm32h7xx_hal_rcc.c ****   }
 995:Drivers/STM32H7xx_HAL_Driver/Src/stm32h7xx_hal_rcc.c **** 
 996:Drivers/STM32H7xx_HAL_Driver/Src/stm32h7xx_hal_rcc.c ****    /*-------------------------- HCLK Configuration --------------------------*/
 997:Drivers/STM32H7xx_HAL_Driver/Src/stm32h7xx_hal_rcc.c ****   if(((RCC_ClkInitStruct->ClockType) & RCC_CLOCKTYPE_HCLK) == RCC_CLOCKTYPE_HCLK)
 998:Drivers/STM32H7xx_HAL_Driver/Src/stm32h7xx_hal_rcc.c ****   {
 999:Drivers/STM32H7xx_HAL_Driver/Src/stm32h7xx_hal_rcc.c **** #if defined (RCC_D1CFGR_HPRE)
1000:Drivers/STM32H7xx_HAL_Driver/Src/stm32h7xx_hal_rcc.c ****     if((RCC_ClkInitStruct->AHBCLKDivider) > (RCC->D1CFGR & RCC_D1CFGR_HPRE))
1001:Drivers/STM32H7xx_HAL_Driver/Src/stm32h7xx_hal_rcc.c ****     {
1002:Drivers/STM32H7xx_HAL_Driver/Src/stm32h7xx_hal_rcc.c ****       /* Set the new HCLK clock divider */
ARM GAS  C:\Users\MadeuxS\AppData\Local\Temp\ccJrku7c.s 			page 19


1003:Drivers/STM32H7xx_HAL_Driver/Src/stm32h7xx_hal_rcc.c ****       assert_param(IS_RCC_HCLK(RCC_ClkInitStruct->AHBCLKDivider));
1004:Drivers/STM32H7xx_HAL_Driver/Src/stm32h7xx_hal_rcc.c ****       MODIFY_REG(RCC->D1CFGR, RCC_D1CFGR_HPRE, RCC_ClkInitStruct->AHBCLKDivider);
1005:Drivers/STM32H7xx_HAL_Driver/Src/stm32h7xx_hal_rcc.c ****     }
1006:Drivers/STM32H7xx_HAL_Driver/Src/stm32h7xx_hal_rcc.c **** #else
1007:Drivers/STM32H7xx_HAL_Driver/Src/stm32h7xx_hal_rcc.c ****         if((RCC_ClkInitStruct->AHBCLKDivider) > (RCC->CDCFGR1 & RCC_CDCFGR1_HPRE))
1008:Drivers/STM32H7xx_HAL_Driver/Src/stm32h7xx_hal_rcc.c ****     {
1009:Drivers/STM32H7xx_HAL_Driver/Src/stm32h7xx_hal_rcc.c ****       /* Set the new HCLK clock divider */
1010:Drivers/STM32H7xx_HAL_Driver/Src/stm32h7xx_hal_rcc.c ****       assert_param(IS_RCC_HCLK(RCC_ClkInitStruct->AHBCLKDivider));
1011:Drivers/STM32H7xx_HAL_Driver/Src/stm32h7xx_hal_rcc.c ****       MODIFY_REG(RCC->CDCFGR1, RCC_CDCFGR1_HPRE, RCC_ClkInitStruct->AHBCLKDivider);
1012:Drivers/STM32H7xx_HAL_Driver/Src/stm32h7xx_hal_rcc.c ****     }
1013:Drivers/STM32H7xx_HAL_Driver/Src/stm32h7xx_hal_rcc.c **** #endif
1014:Drivers/STM32H7xx_HAL_Driver/Src/stm32h7xx_hal_rcc.c ****   }
1015:Drivers/STM32H7xx_HAL_Driver/Src/stm32h7xx_hal_rcc.c **** 
1016:Drivers/STM32H7xx_HAL_Driver/Src/stm32h7xx_hal_rcc.c ****     /*------------------------- SYSCLK Configuration -------------------------*/
1017:Drivers/STM32H7xx_HAL_Driver/Src/stm32h7xx_hal_rcc.c ****     if(((RCC_ClkInitStruct->ClockType) & RCC_CLOCKTYPE_SYSCLK) == RCC_CLOCKTYPE_SYSCLK)
1018:Drivers/STM32H7xx_HAL_Driver/Src/stm32h7xx_hal_rcc.c ****     {
1019:Drivers/STM32H7xx_HAL_Driver/Src/stm32h7xx_hal_rcc.c ****       assert_param(IS_RCC_SYSCLK(RCC_ClkInitStruct->SYSCLKDivider));
1020:Drivers/STM32H7xx_HAL_Driver/Src/stm32h7xx_hal_rcc.c ****       assert_param(IS_RCC_SYSCLKSOURCE(RCC_ClkInitStruct->SYSCLKSource));
1021:Drivers/STM32H7xx_HAL_Driver/Src/stm32h7xx_hal_rcc.c **** #if defined(RCC_D1CFGR_D1CPRE)
1022:Drivers/STM32H7xx_HAL_Driver/Src/stm32h7xx_hal_rcc.c ****       MODIFY_REG(RCC->D1CFGR, RCC_D1CFGR_D1CPRE, RCC_ClkInitStruct->SYSCLKDivider);
1023:Drivers/STM32H7xx_HAL_Driver/Src/stm32h7xx_hal_rcc.c **** #else
1024:Drivers/STM32H7xx_HAL_Driver/Src/stm32h7xx_hal_rcc.c ****       MODIFY_REG(RCC->CDCFGR1, RCC_CDCFGR1_CDCPRE, RCC_ClkInitStruct->SYSCLKDivider);
1025:Drivers/STM32H7xx_HAL_Driver/Src/stm32h7xx_hal_rcc.c **** #endif
1026:Drivers/STM32H7xx_HAL_Driver/Src/stm32h7xx_hal_rcc.c ****       /* HSE is selected as System Clock Source */
1027:Drivers/STM32H7xx_HAL_Driver/Src/stm32h7xx_hal_rcc.c ****       if(RCC_ClkInitStruct->SYSCLKSource == RCC_SYSCLKSOURCE_HSE)
1028:Drivers/STM32H7xx_HAL_Driver/Src/stm32h7xx_hal_rcc.c ****       {
1029:Drivers/STM32H7xx_HAL_Driver/Src/stm32h7xx_hal_rcc.c ****         /* Check the HSE ready flag */
1030:Drivers/STM32H7xx_HAL_Driver/Src/stm32h7xx_hal_rcc.c ****         if(__HAL_RCC_GET_FLAG(RCC_FLAG_HSERDY) == 0U)
1031:Drivers/STM32H7xx_HAL_Driver/Src/stm32h7xx_hal_rcc.c ****         {
1032:Drivers/STM32H7xx_HAL_Driver/Src/stm32h7xx_hal_rcc.c ****           return HAL_ERROR;
1033:Drivers/STM32H7xx_HAL_Driver/Src/stm32h7xx_hal_rcc.c ****         }
1034:Drivers/STM32H7xx_HAL_Driver/Src/stm32h7xx_hal_rcc.c ****       }
1035:Drivers/STM32H7xx_HAL_Driver/Src/stm32h7xx_hal_rcc.c ****       /* PLL is selected as System Clock Source */
1036:Drivers/STM32H7xx_HAL_Driver/Src/stm32h7xx_hal_rcc.c ****       else if(RCC_ClkInitStruct->SYSCLKSource == RCC_SYSCLKSOURCE_PLLCLK)
1037:Drivers/STM32H7xx_HAL_Driver/Src/stm32h7xx_hal_rcc.c ****       {
1038:Drivers/STM32H7xx_HAL_Driver/Src/stm32h7xx_hal_rcc.c ****         /* Check the PLL ready flag */
1039:Drivers/STM32H7xx_HAL_Driver/Src/stm32h7xx_hal_rcc.c ****         if(__HAL_RCC_GET_FLAG(RCC_FLAG_PLLRDY) == 0U)
1040:Drivers/STM32H7xx_HAL_Driver/Src/stm32h7xx_hal_rcc.c ****         {
1041:Drivers/STM32H7xx_HAL_Driver/Src/stm32h7xx_hal_rcc.c ****           return HAL_ERROR;
1042:Drivers/STM32H7xx_HAL_Driver/Src/stm32h7xx_hal_rcc.c ****         }
1043:Drivers/STM32H7xx_HAL_Driver/Src/stm32h7xx_hal_rcc.c ****       }
1044:Drivers/STM32H7xx_HAL_Driver/Src/stm32h7xx_hal_rcc.c ****       /* CSI is selected as System Clock Source */
1045:Drivers/STM32H7xx_HAL_Driver/Src/stm32h7xx_hal_rcc.c ****       else if(RCC_ClkInitStruct->SYSCLKSource == RCC_SYSCLKSOURCE_CSI)
1046:Drivers/STM32H7xx_HAL_Driver/Src/stm32h7xx_hal_rcc.c ****       {
1047:Drivers/STM32H7xx_HAL_Driver/Src/stm32h7xx_hal_rcc.c ****         /* Check the PLL ready flag */
1048:Drivers/STM32H7xx_HAL_Driver/Src/stm32h7xx_hal_rcc.c ****         if(__HAL_RCC_GET_FLAG(RCC_FLAG_CSIRDY) == 0U)
1049:Drivers/STM32H7xx_HAL_Driver/Src/stm32h7xx_hal_rcc.c ****         {
1050:Drivers/STM32H7xx_HAL_Driver/Src/stm32h7xx_hal_rcc.c ****           return HAL_ERROR;
1051:Drivers/STM32H7xx_HAL_Driver/Src/stm32h7xx_hal_rcc.c ****         }
1052:Drivers/STM32H7xx_HAL_Driver/Src/stm32h7xx_hal_rcc.c ****       }
1053:Drivers/STM32H7xx_HAL_Driver/Src/stm32h7xx_hal_rcc.c ****       /* HSI is selected as System Clock Source */
1054:Drivers/STM32H7xx_HAL_Driver/Src/stm32h7xx_hal_rcc.c ****       else
1055:Drivers/STM32H7xx_HAL_Driver/Src/stm32h7xx_hal_rcc.c ****       {
1056:Drivers/STM32H7xx_HAL_Driver/Src/stm32h7xx_hal_rcc.c ****         /* Check the HSI ready flag */
1057:Drivers/STM32H7xx_HAL_Driver/Src/stm32h7xx_hal_rcc.c ****         if(__HAL_RCC_GET_FLAG(RCC_FLAG_HSIRDY) == 0U)
1058:Drivers/STM32H7xx_HAL_Driver/Src/stm32h7xx_hal_rcc.c ****         {
1059:Drivers/STM32H7xx_HAL_Driver/Src/stm32h7xx_hal_rcc.c ****           return HAL_ERROR;
ARM GAS  C:\Users\MadeuxS\AppData\Local\Temp\ccJrku7c.s 			page 20


1060:Drivers/STM32H7xx_HAL_Driver/Src/stm32h7xx_hal_rcc.c ****         }
1061:Drivers/STM32H7xx_HAL_Driver/Src/stm32h7xx_hal_rcc.c ****       }
1062:Drivers/STM32H7xx_HAL_Driver/Src/stm32h7xx_hal_rcc.c ****       MODIFY_REG(RCC->CFGR, RCC_CFGR_SW, RCC_ClkInitStruct->SYSCLKSource);
1063:Drivers/STM32H7xx_HAL_Driver/Src/stm32h7xx_hal_rcc.c **** 
1064:Drivers/STM32H7xx_HAL_Driver/Src/stm32h7xx_hal_rcc.c ****       /* Get Start Tick*/
1065:Drivers/STM32H7xx_HAL_Driver/Src/stm32h7xx_hal_rcc.c ****       tickstart = HAL_GetTick();
1066:Drivers/STM32H7xx_HAL_Driver/Src/stm32h7xx_hal_rcc.c **** 
1067:Drivers/STM32H7xx_HAL_Driver/Src/stm32h7xx_hal_rcc.c ****         while (__HAL_RCC_GET_SYSCLK_SOURCE() !=  (RCC_ClkInitStruct->SYSCLKSource << RCC_CFGR_SWS_P
1068:Drivers/STM32H7xx_HAL_Driver/Src/stm32h7xx_hal_rcc.c ****         {
1069:Drivers/STM32H7xx_HAL_Driver/Src/stm32h7xx_hal_rcc.c ****           if((HAL_GetTick() - tickstart ) > CLOCKSWITCH_TIMEOUT_VALUE)
1070:Drivers/STM32H7xx_HAL_Driver/Src/stm32h7xx_hal_rcc.c ****           {
1071:Drivers/STM32H7xx_HAL_Driver/Src/stm32h7xx_hal_rcc.c ****             return HAL_TIMEOUT;
1072:Drivers/STM32H7xx_HAL_Driver/Src/stm32h7xx_hal_rcc.c ****           }
1073:Drivers/STM32H7xx_HAL_Driver/Src/stm32h7xx_hal_rcc.c ****         }
1074:Drivers/STM32H7xx_HAL_Driver/Src/stm32h7xx_hal_rcc.c **** 
1075:Drivers/STM32H7xx_HAL_Driver/Src/stm32h7xx_hal_rcc.c ****     }
1076:Drivers/STM32H7xx_HAL_Driver/Src/stm32h7xx_hal_rcc.c **** 
1077:Drivers/STM32H7xx_HAL_Driver/Src/stm32h7xx_hal_rcc.c ****     /* Decreasing the BUS frequency divider */
1078:Drivers/STM32H7xx_HAL_Driver/Src/stm32h7xx_hal_rcc.c ****    /*-------------------------- HCLK Configuration --------------------------*/
1079:Drivers/STM32H7xx_HAL_Driver/Src/stm32h7xx_hal_rcc.c ****   if(((RCC_ClkInitStruct->ClockType) & RCC_CLOCKTYPE_HCLK) == RCC_CLOCKTYPE_HCLK)
1080:Drivers/STM32H7xx_HAL_Driver/Src/stm32h7xx_hal_rcc.c ****   {
1081:Drivers/STM32H7xx_HAL_Driver/Src/stm32h7xx_hal_rcc.c **** #if defined(RCC_D1CFGR_HPRE)
1082:Drivers/STM32H7xx_HAL_Driver/Src/stm32h7xx_hal_rcc.c ****     if((RCC_ClkInitStruct->AHBCLKDivider) < (RCC->D1CFGR & RCC_D1CFGR_HPRE))
1083:Drivers/STM32H7xx_HAL_Driver/Src/stm32h7xx_hal_rcc.c ****     {
1084:Drivers/STM32H7xx_HAL_Driver/Src/stm32h7xx_hal_rcc.c ****       /* Set the new HCLK clock divider */
1085:Drivers/STM32H7xx_HAL_Driver/Src/stm32h7xx_hal_rcc.c ****       assert_param(IS_RCC_HCLK(RCC_ClkInitStruct->AHBCLKDivider));
1086:Drivers/STM32H7xx_HAL_Driver/Src/stm32h7xx_hal_rcc.c ****       MODIFY_REG(RCC->D1CFGR, RCC_D1CFGR_HPRE, RCC_ClkInitStruct->AHBCLKDivider);
1087:Drivers/STM32H7xx_HAL_Driver/Src/stm32h7xx_hal_rcc.c ****     }
1088:Drivers/STM32H7xx_HAL_Driver/Src/stm32h7xx_hal_rcc.c **** #else
1089:Drivers/STM32H7xx_HAL_Driver/Src/stm32h7xx_hal_rcc.c ****     if((RCC_ClkInitStruct->AHBCLKDivider) < (RCC->CDCFGR1 & RCC_CDCFGR1_HPRE))
1090:Drivers/STM32H7xx_HAL_Driver/Src/stm32h7xx_hal_rcc.c ****     {
1091:Drivers/STM32H7xx_HAL_Driver/Src/stm32h7xx_hal_rcc.c ****       /* Set the new HCLK clock divider */
1092:Drivers/STM32H7xx_HAL_Driver/Src/stm32h7xx_hal_rcc.c ****       assert_param(IS_RCC_HCLK(RCC_ClkInitStruct->AHBCLKDivider));
1093:Drivers/STM32H7xx_HAL_Driver/Src/stm32h7xx_hal_rcc.c ****       MODIFY_REG(RCC->CDCFGR1, RCC_CDCFGR1_HPRE, RCC_ClkInitStruct->AHBCLKDivider);
1094:Drivers/STM32H7xx_HAL_Driver/Src/stm32h7xx_hal_rcc.c ****     }
1095:Drivers/STM32H7xx_HAL_Driver/Src/stm32h7xx_hal_rcc.c **** #endif
1096:Drivers/STM32H7xx_HAL_Driver/Src/stm32h7xx_hal_rcc.c ****   }
1097:Drivers/STM32H7xx_HAL_Driver/Src/stm32h7xx_hal_rcc.c **** 
1098:Drivers/STM32H7xx_HAL_Driver/Src/stm32h7xx_hal_rcc.c ****   /* Decreasing the number of wait states because of lower CPU frequency */
1099:Drivers/STM32H7xx_HAL_Driver/Src/stm32h7xx_hal_rcc.c ****   if(FLatency < __HAL_FLASH_GET_LATENCY())
1100:Drivers/STM32H7xx_HAL_Driver/Src/stm32h7xx_hal_rcc.c ****   {
1101:Drivers/STM32H7xx_HAL_Driver/Src/stm32h7xx_hal_rcc.c ****     /* Program the new number of wait states to the LATENCY bits in the FLASH_ACR register */
1102:Drivers/STM32H7xx_HAL_Driver/Src/stm32h7xx_hal_rcc.c ****     __HAL_FLASH_SET_LATENCY(FLatency);
1103:Drivers/STM32H7xx_HAL_Driver/Src/stm32h7xx_hal_rcc.c **** 
1104:Drivers/STM32H7xx_HAL_Driver/Src/stm32h7xx_hal_rcc.c ****     /* Check that the new number of wait states is taken into account to access the Flash
1105:Drivers/STM32H7xx_HAL_Driver/Src/stm32h7xx_hal_rcc.c ****     memory by reading the FLASH_ACR register */
1106:Drivers/STM32H7xx_HAL_Driver/Src/stm32h7xx_hal_rcc.c ****     if(__HAL_FLASH_GET_LATENCY() != FLatency)
1107:Drivers/STM32H7xx_HAL_Driver/Src/stm32h7xx_hal_rcc.c ****     {
1108:Drivers/STM32H7xx_HAL_Driver/Src/stm32h7xx_hal_rcc.c ****       return HAL_ERROR;
1109:Drivers/STM32H7xx_HAL_Driver/Src/stm32h7xx_hal_rcc.c ****     }
1110:Drivers/STM32H7xx_HAL_Driver/Src/stm32h7xx_hal_rcc.c ****  }
1111:Drivers/STM32H7xx_HAL_Driver/Src/stm32h7xx_hal_rcc.c **** 
1112:Drivers/STM32H7xx_HAL_Driver/Src/stm32h7xx_hal_rcc.c ****   /*-------------------------- D1PCLK1/CDPCLK Configuration ---------------------------*/
1113:Drivers/STM32H7xx_HAL_Driver/Src/stm32h7xx_hal_rcc.c ****  if(((RCC_ClkInitStruct->ClockType) & RCC_CLOCKTYPE_D1PCLK1) == RCC_CLOCKTYPE_D1PCLK1)
1114:Drivers/STM32H7xx_HAL_Driver/Src/stm32h7xx_hal_rcc.c ****  {
1115:Drivers/STM32H7xx_HAL_Driver/Src/stm32h7xx_hal_rcc.c **** #if defined(RCC_D1CFGR_D1PPRE)
1116:Drivers/STM32H7xx_HAL_Driver/Src/stm32h7xx_hal_rcc.c ****    if((RCC_ClkInitStruct->APB3CLKDivider) < (RCC->D1CFGR & RCC_D1CFGR_D1PPRE))
ARM GAS  C:\Users\MadeuxS\AppData\Local\Temp\ccJrku7c.s 			page 21


1117:Drivers/STM32H7xx_HAL_Driver/Src/stm32h7xx_hal_rcc.c ****    {
1118:Drivers/STM32H7xx_HAL_Driver/Src/stm32h7xx_hal_rcc.c ****      assert_param(IS_RCC_D1PCLK1(RCC_ClkInitStruct->APB3CLKDivider));
1119:Drivers/STM32H7xx_HAL_Driver/Src/stm32h7xx_hal_rcc.c ****      MODIFY_REG(RCC->D1CFGR, RCC_D1CFGR_D1PPRE, RCC_ClkInitStruct->APB3CLKDivider);
1120:Drivers/STM32H7xx_HAL_Driver/Src/stm32h7xx_hal_rcc.c ****    }
1121:Drivers/STM32H7xx_HAL_Driver/Src/stm32h7xx_hal_rcc.c **** #else
1122:Drivers/STM32H7xx_HAL_Driver/Src/stm32h7xx_hal_rcc.c ****    if((RCC_ClkInitStruct->APB3CLKDivider) < (RCC->CDCFGR1 & RCC_CDCFGR1_CDPPRE))
1123:Drivers/STM32H7xx_HAL_Driver/Src/stm32h7xx_hal_rcc.c ****    {
1124:Drivers/STM32H7xx_HAL_Driver/Src/stm32h7xx_hal_rcc.c ****      assert_param(IS_RCC_CDPCLK1(RCC_ClkInitStruct->APB3CLKDivider));
1125:Drivers/STM32H7xx_HAL_Driver/Src/stm32h7xx_hal_rcc.c ****      MODIFY_REG(RCC->CDCFGR1, RCC_CDCFGR1_CDPPRE, RCC_ClkInitStruct->APB3CLKDivider);
1126:Drivers/STM32H7xx_HAL_Driver/Src/stm32h7xx_hal_rcc.c ****    }
1127:Drivers/STM32H7xx_HAL_Driver/Src/stm32h7xx_hal_rcc.c **** #endif
1128:Drivers/STM32H7xx_HAL_Driver/Src/stm32h7xx_hal_rcc.c ****  }
1129:Drivers/STM32H7xx_HAL_Driver/Src/stm32h7xx_hal_rcc.c **** 
1130:Drivers/STM32H7xx_HAL_Driver/Src/stm32h7xx_hal_rcc.c ****   /*-------------------------- PCLK1 Configuration ---------------------------*/
1131:Drivers/STM32H7xx_HAL_Driver/Src/stm32h7xx_hal_rcc.c ****  if(((RCC_ClkInitStruct->ClockType) & RCC_CLOCKTYPE_PCLK1) == RCC_CLOCKTYPE_PCLK1)
1132:Drivers/STM32H7xx_HAL_Driver/Src/stm32h7xx_hal_rcc.c ****  {
1133:Drivers/STM32H7xx_HAL_Driver/Src/stm32h7xx_hal_rcc.c **** #if defined(RCC_D2CFGR_D2PPRE1)
1134:Drivers/STM32H7xx_HAL_Driver/Src/stm32h7xx_hal_rcc.c ****    if((RCC_ClkInitStruct->APB1CLKDivider) < (RCC->D2CFGR & RCC_D2CFGR_D2PPRE1))
1135:Drivers/STM32H7xx_HAL_Driver/Src/stm32h7xx_hal_rcc.c ****    {
1136:Drivers/STM32H7xx_HAL_Driver/Src/stm32h7xx_hal_rcc.c ****      assert_param(IS_RCC_PCLK1(RCC_ClkInitStruct->APB1CLKDivider));
1137:Drivers/STM32H7xx_HAL_Driver/Src/stm32h7xx_hal_rcc.c ****      MODIFY_REG(RCC->D2CFGR, RCC_D2CFGR_D2PPRE1, (RCC_ClkInitStruct->APB1CLKDivider));
1138:Drivers/STM32H7xx_HAL_Driver/Src/stm32h7xx_hal_rcc.c ****    }
1139:Drivers/STM32H7xx_HAL_Driver/Src/stm32h7xx_hal_rcc.c **** #else
1140:Drivers/STM32H7xx_HAL_Driver/Src/stm32h7xx_hal_rcc.c ****    if((RCC_ClkInitStruct->APB1CLKDivider) < (RCC->CDCFGR2 & RCC_CDCFGR2_CDPPRE1))
1141:Drivers/STM32H7xx_HAL_Driver/Src/stm32h7xx_hal_rcc.c ****    {
1142:Drivers/STM32H7xx_HAL_Driver/Src/stm32h7xx_hal_rcc.c ****      assert_param(IS_RCC_PCLK1(RCC_ClkInitStruct->APB1CLKDivider));
1143:Drivers/STM32H7xx_HAL_Driver/Src/stm32h7xx_hal_rcc.c ****      MODIFY_REG(RCC->CDCFGR2, RCC_CDCFGR2_CDPPRE1, (RCC_ClkInitStruct->APB1CLKDivider));
1144:Drivers/STM32H7xx_HAL_Driver/Src/stm32h7xx_hal_rcc.c ****    }
1145:Drivers/STM32H7xx_HAL_Driver/Src/stm32h7xx_hal_rcc.c **** #endif
1146:Drivers/STM32H7xx_HAL_Driver/Src/stm32h7xx_hal_rcc.c ****  }
1147:Drivers/STM32H7xx_HAL_Driver/Src/stm32h7xx_hal_rcc.c **** 
1148:Drivers/STM32H7xx_HAL_Driver/Src/stm32h7xx_hal_rcc.c ****   /*-------------------------- PCLK2 Configuration ---------------------------*/
1149:Drivers/STM32H7xx_HAL_Driver/Src/stm32h7xx_hal_rcc.c ****  if(((RCC_ClkInitStruct->ClockType) & RCC_CLOCKTYPE_PCLK2) == RCC_CLOCKTYPE_PCLK2)
1150:Drivers/STM32H7xx_HAL_Driver/Src/stm32h7xx_hal_rcc.c ****  {
1151:Drivers/STM32H7xx_HAL_Driver/Src/stm32h7xx_hal_rcc.c **** #if defined (RCC_D2CFGR_D2PPRE2)
1152:Drivers/STM32H7xx_HAL_Driver/Src/stm32h7xx_hal_rcc.c ****    if((RCC_ClkInitStruct->APB2CLKDivider) < (RCC->D2CFGR & RCC_D2CFGR_D2PPRE2))
1153:Drivers/STM32H7xx_HAL_Driver/Src/stm32h7xx_hal_rcc.c ****    {
1154:Drivers/STM32H7xx_HAL_Driver/Src/stm32h7xx_hal_rcc.c ****      assert_param(IS_RCC_PCLK2(RCC_ClkInitStruct->APB2CLKDivider));
1155:Drivers/STM32H7xx_HAL_Driver/Src/stm32h7xx_hal_rcc.c ****      MODIFY_REG(RCC->D2CFGR, RCC_D2CFGR_D2PPRE2, (RCC_ClkInitStruct->APB2CLKDivider));
1156:Drivers/STM32H7xx_HAL_Driver/Src/stm32h7xx_hal_rcc.c ****    }
1157:Drivers/STM32H7xx_HAL_Driver/Src/stm32h7xx_hal_rcc.c **** #else
1158:Drivers/STM32H7xx_HAL_Driver/Src/stm32h7xx_hal_rcc.c ****    if((RCC_ClkInitStruct->APB2CLKDivider) < (RCC->CDCFGR2 & RCC_CDCFGR2_CDPPRE2))
1159:Drivers/STM32H7xx_HAL_Driver/Src/stm32h7xx_hal_rcc.c ****    {
1160:Drivers/STM32H7xx_HAL_Driver/Src/stm32h7xx_hal_rcc.c ****      assert_param(IS_RCC_PCLK2(RCC_ClkInitStruct->APB2CLKDivider));
1161:Drivers/STM32H7xx_HAL_Driver/Src/stm32h7xx_hal_rcc.c ****      MODIFY_REG(RCC->CDCFGR2, RCC_CDCFGR2_CDPPRE2, (RCC_ClkInitStruct->APB2CLKDivider));
1162:Drivers/STM32H7xx_HAL_Driver/Src/stm32h7xx_hal_rcc.c ****    }
1163:Drivers/STM32H7xx_HAL_Driver/Src/stm32h7xx_hal_rcc.c **** #endif
1164:Drivers/STM32H7xx_HAL_Driver/Src/stm32h7xx_hal_rcc.c ****  }
1165:Drivers/STM32H7xx_HAL_Driver/Src/stm32h7xx_hal_rcc.c **** 
1166:Drivers/STM32H7xx_HAL_Driver/Src/stm32h7xx_hal_rcc.c ****   /*-------------------------- D3PCLK1/SRDPCLK1 Configuration ---------------------------*/
1167:Drivers/STM32H7xx_HAL_Driver/Src/stm32h7xx_hal_rcc.c ****  if(((RCC_ClkInitStruct->ClockType) & RCC_CLOCKTYPE_D3PCLK1) == RCC_CLOCKTYPE_D3PCLK1)
1168:Drivers/STM32H7xx_HAL_Driver/Src/stm32h7xx_hal_rcc.c ****  {
1169:Drivers/STM32H7xx_HAL_Driver/Src/stm32h7xx_hal_rcc.c **** #if defined(RCC_D3CFGR_D3PPRE)
1170:Drivers/STM32H7xx_HAL_Driver/Src/stm32h7xx_hal_rcc.c ****    if((RCC_ClkInitStruct->APB4CLKDivider) < (RCC->D3CFGR & RCC_D3CFGR_D3PPRE))
1171:Drivers/STM32H7xx_HAL_Driver/Src/stm32h7xx_hal_rcc.c ****    {
1172:Drivers/STM32H7xx_HAL_Driver/Src/stm32h7xx_hal_rcc.c ****      assert_param(IS_RCC_D3PCLK1(RCC_ClkInitStruct->APB4CLKDivider));
1173:Drivers/STM32H7xx_HAL_Driver/Src/stm32h7xx_hal_rcc.c ****      MODIFY_REG(RCC->D3CFGR, RCC_D3CFGR_D3PPRE, (RCC_ClkInitStruct->APB4CLKDivider) );
ARM GAS  C:\Users\MadeuxS\AppData\Local\Temp\ccJrku7c.s 			page 22


1174:Drivers/STM32H7xx_HAL_Driver/Src/stm32h7xx_hal_rcc.c ****    }
1175:Drivers/STM32H7xx_HAL_Driver/Src/stm32h7xx_hal_rcc.c **** #else
1176:Drivers/STM32H7xx_HAL_Driver/Src/stm32h7xx_hal_rcc.c ****    if((RCC_ClkInitStruct->APB4CLKDivider) < (RCC->SRDCFGR & RCC_SRDCFGR_SRDPPRE))
1177:Drivers/STM32H7xx_HAL_Driver/Src/stm32h7xx_hal_rcc.c ****    {
1178:Drivers/STM32H7xx_HAL_Driver/Src/stm32h7xx_hal_rcc.c ****      assert_param(IS_RCC_SRDPCLK1(RCC_ClkInitStruct->APB4CLKDivider));
1179:Drivers/STM32H7xx_HAL_Driver/Src/stm32h7xx_hal_rcc.c ****      MODIFY_REG(RCC->SRDCFGR, RCC_SRDCFGR_SRDPPRE, (RCC_ClkInitStruct->APB4CLKDivider) );
1180:Drivers/STM32H7xx_HAL_Driver/Src/stm32h7xx_hal_rcc.c ****    }
1181:Drivers/STM32H7xx_HAL_Driver/Src/stm32h7xx_hal_rcc.c **** #endif
1182:Drivers/STM32H7xx_HAL_Driver/Src/stm32h7xx_hal_rcc.c ****  }
1183:Drivers/STM32H7xx_HAL_Driver/Src/stm32h7xx_hal_rcc.c **** 
1184:Drivers/STM32H7xx_HAL_Driver/Src/stm32h7xx_hal_rcc.c ****   /* Update the SystemCoreClock global variable */
1185:Drivers/STM32H7xx_HAL_Driver/Src/stm32h7xx_hal_rcc.c **** #if defined(RCC_D1CFGR_D1CPRE)
1186:Drivers/STM32H7xx_HAL_Driver/Src/stm32h7xx_hal_rcc.c ****   common_system_clock = HAL_RCC_GetSysClockFreq() >> ((D1CorePrescTable[(RCC->D1CFGR & RCC_D1CFGR_D
1187:Drivers/STM32H7xx_HAL_Driver/Src/stm32h7xx_hal_rcc.c **** #else
1188:Drivers/STM32H7xx_HAL_Driver/Src/stm32h7xx_hal_rcc.c ****   common_system_clock = HAL_RCC_GetSysClockFreq() >> ((D1CorePrescTable[(RCC->CDCFGR1 & RCC_CDCFGR1
1189:Drivers/STM32H7xx_HAL_Driver/Src/stm32h7xx_hal_rcc.c **** #endif
1190:Drivers/STM32H7xx_HAL_Driver/Src/stm32h7xx_hal_rcc.c **** 
1191:Drivers/STM32H7xx_HAL_Driver/Src/stm32h7xx_hal_rcc.c **** #if defined(RCC_D1CFGR_HPRE)
1192:Drivers/STM32H7xx_HAL_Driver/Src/stm32h7xx_hal_rcc.c ****   SystemD2Clock = (common_system_clock >> ((D1CorePrescTable[(RCC->D1CFGR & RCC_D1CFGR_HPRE)>> RCC_
1193:Drivers/STM32H7xx_HAL_Driver/Src/stm32h7xx_hal_rcc.c **** #else
1194:Drivers/STM32H7xx_HAL_Driver/Src/stm32h7xx_hal_rcc.c ****   SystemD2Clock = (common_system_clock >> ((D1CorePrescTable[(RCC->CDCFGR1 & RCC_CDCFGR1_HPRE)>> RC
1195:Drivers/STM32H7xx_HAL_Driver/Src/stm32h7xx_hal_rcc.c **** #endif
1196:Drivers/STM32H7xx_HAL_Driver/Src/stm32h7xx_hal_rcc.c **** 
1197:Drivers/STM32H7xx_HAL_Driver/Src/stm32h7xx_hal_rcc.c **** #if defined(DUAL_CORE) && defined(CORE_CM4)
1198:Drivers/STM32H7xx_HAL_Driver/Src/stm32h7xx_hal_rcc.c ****   SystemCoreClock = SystemD2Clock;
1199:Drivers/STM32H7xx_HAL_Driver/Src/stm32h7xx_hal_rcc.c **** #else
1200:Drivers/STM32H7xx_HAL_Driver/Src/stm32h7xx_hal_rcc.c ****   SystemCoreClock = common_system_clock;
1201:Drivers/STM32H7xx_HAL_Driver/Src/stm32h7xx_hal_rcc.c **** #endif /* DUAL_CORE && CORE_CM4 */
1202:Drivers/STM32H7xx_HAL_Driver/Src/stm32h7xx_hal_rcc.c **** 
1203:Drivers/STM32H7xx_HAL_Driver/Src/stm32h7xx_hal_rcc.c ****   /* Configure the source of time base considering new system clocks settings*/
1204:Drivers/STM32H7xx_HAL_Driver/Src/stm32h7xx_hal_rcc.c ****   halstatus = HAL_InitTick (uwTickPrio);
1205:Drivers/STM32H7xx_HAL_Driver/Src/stm32h7xx_hal_rcc.c **** 
1206:Drivers/STM32H7xx_HAL_Driver/Src/stm32h7xx_hal_rcc.c ****   return halstatus;
1207:Drivers/STM32H7xx_HAL_Driver/Src/stm32h7xx_hal_rcc.c **** }
1208:Drivers/STM32H7xx_HAL_Driver/Src/stm32h7xx_hal_rcc.c **** 
1209:Drivers/STM32H7xx_HAL_Driver/Src/stm32h7xx_hal_rcc.c **** /**
1210:Drivers/STM32H7xx_HAL_Driver/Src/stm32h7xx_hal_rcc.c ****   * @}
1211:Drivers/STM32H7xx_HAL_Driver/Src/stm32h7xx_hal_rcc.c ****   */
1212:Drivers/STM32H7xx_HAL_Driver/Src/stm32h7xx_hal_rcc.c **** 
1213:Drivers/STM32H7xx_HAL_Driver/Src/stm32h7xx_hal_rcc.c **** /** @defgroup RCC_Group2 Peripheral Control functions
1214:Drivers/STM32H7xx_HAL_Driver/Src/stm32h7xx_hal_rcc.c ****  *  @brief   RCC clocks control functions
1215:Drivers/STM32H7xx_HAL_Driver/Src/stm32h7xx_hal_rcc.c ****  *
1216:Drivers/STM32H7xx_HAL_Driver/Src/stm32h7xx_hal_rcc.c **** @verbatim
1217:Drivers/STM32H7xx_HAL_Driver/Src/stm32h7xx_hal_rcc.c ****  ===============================================================================
1218:Drivers/STM32H7xx_HAL_Driver/Src/stm32h7xx_hal_rcc.c ****                       ##### Peripheral Control functions #####
1219:Drivers/STM32H7xx_HAL_Driver/Src/stm32h7xx_hal_rcc.c ****  ===============================================================================
1220:Drivers/STM32H7xx_HAL_Driver/Src/stm32h7xx_hal_rcc.c ****     [..]
1221:Drivers/STM32H7xx_HAL_Driver/Src/stm32h7xx_hal_rcc.c ****     This subsection provides a set of functions allowing to control the RCC Clocks
1222:Drivers/STM32H7xx_HAL_Driver/Src/stm32h7xx_hal_rcc.c ****     frequencies.
1223:Drivers/STM32H7xx_HAL_Driver/Src/stm32h7xx_hal_rcc.c **** 
1224:Drivers/STM32H7xx_HAL_Driver/Src/stm32h7xx_hal_rcc.c **** @endverbatim
1225:Drivers/STM32H7xx_HAL_Driver/Src/stm32h7xx_hal_rcc.c ****   * @{
1226:Drivers/STM32H7xx_HAL_Driver/Src/stm32h7xx_hal_rcc.c ****   */
1227:Drivers/STM32H7xx_HAL_Driver/Src/stm32h7xx_hal_rcc.c **** 
1228:Drivers/STM32H7xx_HAL_Driver/Src/stm32h7xx_hal_rcc.c **** /**
1229:Drivers/STM32H7xx_HAL_Driver/Src/stm32h7xx_hal_rcc.c ****   * @brief  Selects the clock source to output on MCO1 pin(PA8) or on MCO2 pin(PC9).
1230:Drivers/STM32H7xx_HAL_Driver/Src/stm32h7xx_hal_rcc.c ****   * @note   PA8/PC9 should be configured in alternate function mode.
ARM GAS  C:\Users\MadeuxS\AppData\Local\Temp\ccJrku7c.s 			page 23


1231:Drivers/STM32H7xx_HAL_Driver/Src/stm32h7xx_hal_rcc.c ****   * @param  RCC_MCOx: specifies the output direction for the clock source.
1232:Drivers/STM32H7xx_HAL_Driver/Src/stm32h7xx_hal_rcc.c ****   *          This parameter can be one of the following values:
1233:Drivers/STM32H7xx_HAL_Driver/Src/stm32h7xx_hal_rcc.c ****   *            @arg RCC_MCO1: Clock source to output on MCO1 pin(PA8).
1234:Drivers/STM32H7xx_HAL_Driver/Src/stm32h7xx_hal_rcc.c ****   *            @arg RCC_MCO2: Clock source to output on MCO2 pin(PC9).
1235:Drivers/STM32H7xx_HAL_Driver/Src/stm32h7xx_hal_rcc.c ****   * @param  RCC_MCOSource: specifies the clock source to output.
1236:Drivers/STM32H7xx_HAL_Driver/Src/stm32h7xx_hal_rcc.c ****   *          This parameter can be one of the following values:
1237:Drivers/STM32H7xx_HAL_Driver/Src/stm32h7xx_hal_rcc.c ****   *            @arg RCC_MCO1SOURCE_HSI: HSI clock selected as MCO1 source
1238:Drivers/STM32H7xx_HAL_Driver/Src/stm32h7xx_hal_rcc.c ****   *            @arg RCC_MCO1SOURCE_LSE: LSE clock selected as MCO1 source
1239:Drivers/STM32H7xx_HAL_Driver/Src/stm32h7xx_hal_rcc.c ****   *            @arg RCC_MCO1SOURCE_HSE: HSE clock selected as MCO1 source
1240:Drivers/STM32H7xx_HAL_Driver/Src/stm32h7xx_hal_rcc.c ****   *            @arg RCC_MCO1SOURCE_PLL1QCLK:  PLL1Q clock selected as MCO1 source
1241:Drivers/STM32H7xx_HAL_Driver/Src/stm32h7xx_hal_rcc.c ****   *            @arg RCC_MCO1SOURCE_HSI48: HSI48 (48MHZ) selected as MCO1 source
1242:Drivers/STM32H7xx_HAL_Driver/Src/stm32h7xx_hal_rcc.c ****   *            @arg RCC_MCO2SOURCE_SYSCLK: System clock (SYSCLK) selected as MCO2 source
1243:Drivers/STM32H7xx_HAL_Driver/Src/stm32h7xx_hal_rcc.c ****   *            @arg RCC_MCO2SOURCE_PLL2PCLK: PLL2P clock selected as MCO2 source
1244:Drivers/STM32H7xx_HAL_Driver/Src/stm32h7xx_hal_rcc.c ****   *            @arg RCC_MCO2SOURCE_HSE: HSE clock selected as MCO2 source
1245:Drivers/STM32H7xx_HAL_Driver/Src/stm32h7xx_hal_rcc.c ****   *            @arg RCC_MCO2SOURCE_PLLCLK:  PLL1P clock selected as MCO2 source
1246:Drivers/STM32H7xx_HAL_Driver/Src/stm32h7xx_hal_rcc.c ****   *            @arg RCC_MCO2SOURCE_CSICLK:  CSI clock selected as MCO2 source
1247:Drivers/STM32H7xx_HAL_Driver/Src/stm32h7xx_hal_rcc.c ****   *            @arg RCC_MCO2SOURCE_LSICLK:  LSI clock selected as MCO2 source
1248:Drivers/STM32H7xx_HAL_Driver/Src/stm32h7xx_hal_rcc.c ****   * @param  RCC_MCODiv: specifies the MCOx pre-scaler.
1249:Drivers/STM32H7xx_HAL_Driver/Src/stm32h7xx_hal_rcc.c ****   *          This parameter can be one of the following values:
1250:Drivers/STM32H7xx_HAL_Driver/Src/stm32h7xx_hal_rcc.c ****   *            @arg RCC_MCODIV_1 up to RCC_MCODIV_15  : divider applied to MCOx clock
1251:Drivers/STM32H7xx_HAL_Driver/Src/stm32h7xx_hal_rcc.c ****   * @retval None
1252:Drivers/STM32H7xx_HAL_Driver/Src/stm32h7xx_hal_rcc.c ****   */
1253:Drivers/STM32H7xx_HAL_Driver/Src/stm32h7xx_hal_rcc.c **** void HAL_RCC_MCOConfig(uint32_t RCC_MCOx, uint32_t RCC_MCOSource, uint32_t RCC_MCODiv)
1254:Drivers/STM32H7xx_HAL_Driver/Src/stm32h7xx_hal_rcc.c **** {
1255:Drivers/STM32H7xx_HAL_Driver/Src/stm32h7xx_hal_rcc.c ****   GPIO_InitTypeDef GPIO_InitStruct;
1256:Drivers/STM32H7xx_HAL_Driver/Src/stm32h7xx_hal_rcc.c ****   /* Check the parameters */
1257:Drivers/STM32H7xx_HAL_Driver/Src/stm32h7xx_hal_rcc.c ****   assert_param(IS_RCC_MCO(RCC_MCOx));
1258:Drivers/STM32H7xx_HAL_Driver/Src/stm32h7xx_hal_rcc.c ****   assert_param(IS_RCC_MCODIV(RCC_MCODiv));
1259:Drivers/STM32H7xx_HAL_Driver/Src/stm32h7xx_hal_rcc.c ****   /* RCC_MCO1 */
1260:Drivers/STM32H7xx_HAL_Driver/Src/stm32h7xx_hal_rcc.c ****   if(RCC_MCOx == RCC_MCO1)
1261:Drivers/STM32H7xx_HAL_Driver/Src/stm32h7xx_hal_rcc.c ****   {
1262:Drivers/STM32H7xx_HAL_Driver/Src/stm32h7xx_hal_rcc.c ****     assert_param(IS_RCC_MCO1SOURCE(RCC_MCOSource));
1263:Drivers/STM32H7xx_HAL_Driver/Src/stm32h7xx_hal_rcc.c **** 
1264:Drivers/STM32H7xx_HAL_Driver/Src/stm32h7xx_hal_rcc.c ****     /* MCO1 Clock Enable */
1265:Drivers/STM32H7xx_HAL_Driver/Src/stm32h7xx_hal_rcc.c ****     MCO1_CLK_ENABLE();
1266:Drivers/STM32H7xx_HAL_Driver/Src/stm32h7xx_hal_rcc.c **** 
1267:Drivers/STM32H7xx_HAL_Driver/Src/stm32h7xx_hal_rcc.c ****     /* Configure the MCO1 pin in alternate function mode */
1268:Drivers/STM32H7xx_HAL_Driver/Src/stm32h7xx_hal_rcc.c ****     GPIO_InitStruct.Pin = MCO1_PIN;
1269:Drivers/STM32H7xx_HAL_Driver/Src/stm32h7xx_hal_rcc.c ****     GPIO_InitStruct.Mode = GPIO_MODE_AF_PP;
1270:Drivers/STM32H7xx_HAL_Driver/Src/stm32h7xx_hal_rcc.c ****     GPIO_InitStruct.Speed = GPIO_SPEED_FREQ_VERY_HIGH;
1271:Drivers/STM32H7xx_HAL_Driver/Src/stm32h7xx_hal_rcc.c ****     GPIO_InitStruct.Pull = GPIO_NOPULL;
1272:Drivers/STM32H7xx_HAL_Driver/Src/stm32h7xx_hal_rcc.c ****     GPIO_InitStruct.Alternate = GPIO_AF0_MCO;
1273:Drivers/STM32H7xx_HAL_Driver/Src/stm32h7xx_hal_rcc.c ****     HAL_GPIO_Init(MCO1_GPIO_PORT, &GPIO_InitStruct);
1274:Drivers/STM32H7xx_HAL_Driver/Src/stm32h7xx_hal_rcc.c **** 
1275:Drivers/STM32H7xx_HAL_Driver/Src/stm32h7xx_hal_rcc.c ****     /* Mask MCO1 and MCO1PRE[3:0] bits then Select MCO1 clock source and pre-scaler */
1276:Drivers/STM32H7xx_HAL_Driver/Src/stm32h7xx_hal_rcc.c ****     MODIFY_REG(RCC->CFGR, (RCC_CFGR_MCO1 | RCC_CFGR_MCO1PRE), (RCC_MCOSource | RCC_MCODiv));
1277:Drivers/STM32H7xx_HAL_Driver/Src/stm32h7xx_hal_rcc.c ****   }
1278:Drivers/STM32H7xx_HAL_Driver/Src/stm32h7xx_hal_rcc.c ****   else
1279:Drivers/STM32H7xx_HAL_Driver/Src/stm32h7xx_hal_rcc.c ****   {
1280:Drivers/STM32H7xx_HAL_Driver/Src/stm32h7xx_hal_rcc.c ****     assert_param(IS_RCC_MCO2SOURCE(RCC_MCOSource));
1281:Drivers/STM32H7xx_HAL_Driver/Src/stm32h7xx_hal_rcc.c **** 
1282:Drivers/STM32H7xx_HAL_Driver/Src/stm32h7xx_hal_rcc.c ****     /* MCO2 Clock Enable */
1283:Drivers/STM32H7xx_HAL_Driver/Src/stm32h7xx_hal_rcc.c ****     MCO2_CLK_ENABLE();
1284:Drivers/STM32H7xx_HAL_Driver/Src/stm32h7xx_hal_rcc.c **** 
1285:Drivers/STM32H7xx_HAL_Driver/Src/stm32h7xx_hal_rcc.c ****     /* Configure the MCO2 pin in alternate function mode */
1286:Drivers/STM32H7xx_HAL_Driver/Src/stm32h7xx_hal_rcc.c ****     GPIO_InitStruct.Pin = MCO2_PIN;
1287:Drivers/STM32H7xx_HAL_Driver/Src/stm32h7xx_hal_rcc.c ****     GPIO_InitStruct.Mode = GPIO_MODE_AF_PP;
ARM GAS  C:\Users\MadeuxS\AppData\Local\Temp\ccJrku7c.s 			page 24


1288:Drivers/STM32H7xx_HAL_Driver/Src/stm32h7xx_hal_rcc.c ****     GPIO_InitStruct.Speed = GPIO_SPEED_FREQ_VERY_HIGH;
1289:Drivers/STM32H7xx_HAL_Driver/Src/stm32h7xx_hal_rcc.c ****     GPIO_InitStruct.Pull = GPIO_NOPULL;
1290:Drivers/STM32H7xx_HAL_Driver/Src/stm32h7xx_hal_rcc.c ****     GPIO_InitStruct.Alternate = GPIO_AF0_MCO;
1291:Drivers/STM32H7xx_HAL_Driver/Src/stm32h7xx_hal_rcc.c ****     HAL_GPIO_Init(MCO2_GPIO_PORT, &GPIO_InitStruct);
1292:Drivers/STM32H7xx_HAL_Driver/Src/stm32h7xx_hal_rcc.c **** 
1293:Drivers/STM32H7xx_HAL_Driver/Src/stm32h7xx_hal_rcc.c ****     /* Mask MCO2 and MCO2PRE[3:0] bits then Select MCO2 clock source and pre-scaler */
1294:Drivers/STM32H7xx_HAL_Driver/Src/stm32h7xx_hal_rcc.c ****     MODIFY_REG(RCC->CFGR, (RCC_CFGR_MCO2 | RCC_CFGR_MCO2PRE), (RCC_MCOSource | (RCC_MCODiv << 7U)))
1295:Drivers/STM32H7xx_HAL_Driver/Src/stm32h7xx_hal_rcc.c ****   }
1296:Drivers/STM32H7xx_HAL_Driver/Src/stm32h7xx_hal_rcc.c **** }
1297:Drivers/STM32H7xx_HAL_Driver/Src/stm32h7xx_hal_rcc.c **** 
1298:Drivers/STM32H7xx_HAL_Driver/Src/stm32h7xx_hal_rcc.c **** /**
1299:Drivers/STM32H7xx_HAL_Driver/Src/stm32h7xx_hal_rcc.c ****   * @brief  Enables the Clock Security System.
1300:Drivers/STM32H7xx_HAL_Driver/Src/stm32h7xx_hal_rcc.c ****   * @note   If a failure is detected on the HSE oscillator clock, this oscillator
1301:Drivers/STM32H7xx_HAL_Driver/Src/stm32h7xx_hal_rcc.c ****   *         is automatically disabled and an interrupt is generated to inform the
1302:Drivers/STM32H7xx_HAL_Driver/Src/stm32h7xx_hal_rcc.c ****   *         software about the failure (Clock Security System Interrupt, CSSI),
1303:Drivers/STM32H7xx_HAL_Driver/Src/stm32h7xx_hal_rcc.c ****   *         allowing the MCU to perform rescue operations. The CSSI is linked to
1304:Drivers/STM32H7xx_HAL_Driver/Src/stm32h7xx_hal_rcc.c ****   *         the Cortex-M NMI (Non-Mask-able Interrupt) exception vector.
1305:Drivers/STM32H7xx_HAL_Driver/Src/stm32h7xx_hal_rcc.c ****   * @retval None
1306:Drivers/STM32H7xx_HAL_Driver/Src/stm32h7xx_hal_rcc.c ****   */
1307:Drivers/STM32H7xx_HAL_Driver/Src/stm32h7xx_hal_rcc.c **** void HAL_RCC_EnableCSS(void)
1308:Drivers/STM32H7xx_HAL_Driver/Src/stm32h7xx_hal_rcc.c **** {
1309:Drivers/STM32H7xx_HAL_Driver/Src/stm32h7xx_hal_rcc.c ****   SET_BIT(RCC->CR, RCC_CR_CSSHSEON) ;
1310:Drivers/STM32H7xx_HAL_Driver/Src/stm32h7xx_hal_rcc.c **** }
1311:Drivers/STM32H7xx_HAL_Driver/Src/stm32h7xx_hal_rcc.c **** 
1312:Drivers/STM32H7xx_HAL_Driver/Src/stm32h7xx_hal_rcc.c **** /**
1313:Drivers/STM32H7xx_HAL_Driver/Src/stm32h7xx_hal_rcc.c ****   * @brief  Disables the Clock Security System.
1314:Drivers/STM32H7xx_HAL_Driver/Src/stm32h7xx_hal_rcc.c ****   * @retval None
1315:Drivers/STM32H7xx_HAL_Driver/Src/stm32h7xx_hal_rcc.c ****   */
1316:Drivers/STM32H7xx_HAL_Driver/Src/stm32h7xx_hal_rcc.c **** void HAL_RCC_DisableCSS(void)
1317:Drivers/STM32H7xx_HAL_Driver/Src/stm32h7xx_hal_rcc.c **** {
1318:Drivers/STM32H7xx_HAL_Driver/Src/stm32h7xx_hal_rcc.c ****   CLEAR_BIT(RCC->CR, RCC_CR_CSSHSEON);
1319:Drivers/STM32H7xx_HAL_Driver/Src/stm32h7xx_hal_rcc.c **** }
1320:Drivers/STM32H7xx_HAL_Driver/Src/stm32h7xx_hal_rcc.c **** 
1321:Drivers/STM32H7xx_HAL_Driver/Src/stm32h7xx_hal_rcc.c **** /**
1322:Drivers/STM32H7xx_HAL_Driver/Src/stm32h7xx_hal_rcc.c ****   * @brief  Returns the SYSCLK frequency
1323:Drivers/STM32H7xx_HAL_Driver/Src/stm32h7xx_hal_rcc.c ****   *
1324:Drivers/STM32H7xx_HAL_Driver/Src/stm32h7xx_hal_rcc.c ****   * @note   The system frequency computed by this function is not the real
1325:Drivers/STM32H7xx_HAL_Driver/Src/stm32h7xx_hal_rcc.c ****   *         frequency in the chip. It is calculated based on the predefined
1326:Drivers/STM32H7xx_HAL_Driver/Src/stm32h7xx_hal_rcc.c ****   *         constant and the selected clock source:
1327:Drivers/STM32H7xx_HAL_Driver/Src/stm32h7xx_hal_rcc.c ****   * @note     If SYSCLK source is CSI, function returns values based on CSI_VALUE(*)
1328:Drivers/STM32H7xx_HAL_Driver/Src/stm32h7xx_hal_rcc.c ****   * @note     If SYSCLK source is HSI, function returns values based on HSI_VALUE(**)
1329:Drivers/STM32H7xx_HAL_Driver/Src/stm32h7xx_hal_rcc.c ****   * @note     If SYSCLK source is HSE, function returns values based on HSE_VALUE(***)
1330:Drivers/STM32H7xx_HAL_Driver/Src/stm32h7xx_hal_rcc.c ****   * @note     If SYSCLK source is PLL, function returns values based on CSI_VALUE(*),
1331:Drivers/STM32H7xx_HAL_Driver/Src/stm32h7xx_hal_rcc.c ****   *           HSI_VALUE(**) or HSE_VALUE(***) multiplied/divided by the PLL factors.
1332:Drivers/STM32H7xx_HAL_Driver/Src/stm32h7xx_hal_rcc.c ****   * @note     (*) CSI_VALUE is a constant defined in stm32h7xx_hal_conf.h file (default value
1333:Drivers/STM32H7xx_HAL_Driver/Src/stm32h7xx_hal_rcc.c ****   *               4 MHz) but the real value may vary depending on the variations
1334:Drivers/STM32H7xx_HAL_Driver/Src/stm32h7xx_hal_rcc.c ****   *               in voltage and temperature.
1335:Drivers/STM32H7xx_HAL_Driver/Src/stm32h7xx_hal_rcc.c ****   * @note     (**) HSI_VALUE is a constant defined in stm32h7xx_hal_conf.h file (default value
1336:Drivers/STM32H7xx_HAL_Driver/Src/stm32h7xx_hal_rcc.c ****   *               64 MHz) but the real value may vary depending on the variations
1337:Drivers/STM32H7xx_HAL_Driver/Src/stm32h7xx_hal_rcc.c ****   *               in voltage and temperature.
1338:Drivers/STM32H7xx_HAL_Driver/Src/stm32h7xx_hal_rcc.c ****   * @note     (***) HSE_VALUE is a constant defined in stm32h7xx_hal_conf.h file (default value
1339:Drivers/STM32H7xx_HAL_Driver/Src/stm32h7xx_hal_rcc.c ****   *                25 MHz), user has to ensure that HSE_VALUE is same as the real
1340:Drivers/STM32H7xx_HAL_Driver/Src/stm32h7xx_hal_rcc.c ****   *                frequency of the crystal used. Otherwise, this function may
1341:Drivers/STM32H7xx_HAL_Driver/Src/stm32h7xx_hal_rcc.c ****   *                have wrong result.
1342:Drivers/STM32H7xx_HAL_Driver/Src/stm32h7xx_hal_rcc.c ****   *
1343:Drivers/STM32H7xx_HAL_Driver/Src/stm32h7xx_hal_rcc.c ****   * @note   The result of this function could be not correct when using fractional
1344:Drivers/STM32H7xx_HAL_Driver/Src/stm32h7xx_hal_rcc.c ****   *         value for HSE crystal.
ARM GAS  C:\Users\MadeuxS\AppData\Local\Temp\ccJrku7c.s 			page 25


1345:Drivers/STM32H7xx_HAL_Driver/Src/stm32h7xx_hal_rcc.c ****   *
1346:Drivers/STM32H7xx_HAL_Driver/Src/stm32h7xx_hal_rcc.c ****   * @note   This function can be used by the user application to compute the
1347:Drivers/STM32H7xx_HAL_Driver/Src/stm32h7xx_hal_rcc.c ****   *         baud rate for the communication peripherals or configure other parameters.
1348:Drivers/STM32H7xx_HAL_Driver/Src/stm32h7xx_hal_rcc.c ****   *
1349:Drivers/STM32H7xx_HAL_Driver/Src/stm32h7xx_hal_rcc.c ****   * @note   Each time SYSCLK changes, this function must be called to update the
1350:Drivers/STM32H7xx_HAL_Driver/Src/stm32h7xx_hal_rcc.c ****   *         right SYSCLK value. Otherwise, any configuration based on this function will be incorre
1351:Drivers/STM32H7xx_HAL_Driver/Src/stm32h7xx_hal_rcc.c ****   *
1352:Drivers/STM32H7xx_HAL_Driver/Src/stm32h7xx_hal_rcc.c ****   *
1353:Drivers/STM32H7xx_HAL_Driver/Src/stm32h7xx_hal_rcc.c ****   * @retval SYSCLK frequency
1354:Drivers/STM32H7xx_HAL_Driver/Src/stm32h7xx_hal_rcc.c ****   */
1355:Drivers/STM32H7xx_HAL_Driver/Src/stm32h7xx_hal_rcc.c **** uint32_t HAL_RCC_GetSysClockFreq(void)
  26              		.loc 1 1355 10 view -0
  27              		.cfi_startproc
  28              		@ args = 0, pretend = 0, frame = 0
  29              		@ frame_needed = 0, uses_anonymous_args = 0
  30              		@ link register save eliminated.
1356:Drivers/STM32H7xx_HAL_Driver/Src/stm32h7xx_hal_rcc.c **** {
1357:Drivers/STM32H7xx_HAL_Driver/Src/stm32h7xx_hal_rcc.c ****   uint32_t pllp, pllsource, pllm, pllfracen, hsivalue;
1358:Drivers/STM32H7xx_HAL_Driver/Src/stm32h7xx_hal_rcc.c ****   float_t fracn1, pllvco;
1359:Drivers/STM32H7xx_HAL_Driver/Src/stm32h7xx_hal_rcc.c ****   uint32_t sysclockfreq;
1360:Drivers/STM32H7xx_HAL_Driver/Src/stm32h7xx_hal_rcc.c **** 
1361:Drivers/STM32H7xx_HAL_Driver/Src/stm32h7xx_hal_rcc.c ****   /* Get SYSCLK source -------------------------------------------------------*/
1362:Drivers/STM32H7xx_HAL_Driver/Src/stm32h7xx_hal_rcc.c **** 
1363:Drivers/STM32H7xx_HAL_Driver/Src/stm32h7xx_hal_rcc.c ****   switch (RCC->CFGR & RCC_CFGR_SWS)
1364:Drivers/STM32H7xx_HAL_Driver/Src/stm32h7xx_hal_rcc.c ****   {
1365:Drivers/STM32H7xx_HAL_Driver/Src/stm32h7xx_hal_rcc.c ****   case RCC_CFGR_SWS_HSI:  /* HSI used as system clock source */
1366:Drivers/STM32H7xx_HAL_Driver/Src/stm32h7xx_hal_rcc.c **** 
1367:Drivers/STM32H7xx_HAL_Driver/Src/stm32h7xx_hal_rcc.c ****    if (__HAL_RCC_GET_FLAG(RCC_FLAG_HSIDIV) != 0U)
1368:Drivers/STM32H7xx_HAL_Driver/Src/stm32h7xx_hal_rcc.c ****       {
1369:Drivers/STM32H7xx_HAL_Driver/Src/stm32h7xx_hal_rcc.c ****         sysclockfreq = (uint32_t) (HSI_VALUE >> (__HAL_RCC_GET_HSI_DIVIDER()>> 3));
1370:Drivers/STM32H7xx_HAL_Driver/Src/stm32h7xx_hal_rcc.c ****       }
1371:Drivers/STM32H7xx_HAL_Driver/Src/stm32h7xx_hal_rcc.c ****       else
1372:Drivers/STM32H7xx_HAL_Driver/Src/stm32h7xx_hal_rcc.c ****       {
1373:Drivers/STM32H7xx_HAL_Driver/Src/stm32h7xx_hal_rcc.c ****         sysclockfreq = (uint32_t) HSI_VALUE;
1374:Drivers/STM32H7xx_HAL_Driver/Src/stm32h7xx_hal_rcc.c ****       }
1375:Drivers/STM32H7xx_HAL_Driver/Src/stm32h7xx_hal_rcc.c **** 
1376:Drivers/STM32H7xx_HAL_Driver/Src/stm32h7xx_hal_rcc.c ****     break;
1377:Drivers/STM32H7xx_HAL_Driver/Src/stm32h7xx_hal_rcc.c **** 
1378:Drivers/STM32H7xx_HAL_Driver/Src/stm32h7xx_hal_rcc.c ****   case RCC_CFGR_SWS_CSI:  /* CSI used as system clock  source */
1379:Drivers/STM32H7xx_HAL_Driver/Src/stm32h7xx_hal_rcc.c ****     sysclockfreq = CSI_VALUE;
1380:Drivers/STM32H7xx_HAL_Driver/Src/stm32h7xx_hal_rcc.c ****     break;
1381:Drivers/STM32H7xx_HAL_Driver/Src/stm32h7xx_hal_rcc.c **** 
1382:Drivers/STM32H7xx_HAL_Driver/Src/stm32h7xx_hal_rcc.c ****   case RCC_CFGR_SWS_HSE:  /* HSE used as system clock  source */
1383:Drivers/STM32H7xx_HAL_Driver/Src/stm32h7xx_hal_rcc.c ****     sysclockfreq = HSE_VALUE;
1384:Drivers/STM32H7xx_HAL_Driver/Src/stm32h7xx_hal_rcc.c ****     break;
1385:Drivers/STM32H7xx_HAL_Driver/Src/stm32h7xx_hal_rcc.c **** 
1386:Drivers/STM32H7xx_HAL_Driver/Src/stm32h7xx_hal_rcc.c ****   case RCC_CFGR_SWS_PLL1:  /* PLL1 used as system clock  source */
1387:Drivers/STM32H7xx_HAL_Driver/Src/stm32h7xx_hal_rcc.c **** 
1388:Drivers/STM32H7xx_HAL_Driver/Src/stm32h7xx_hal_rcc.c ****     /* PLL_VCO = (HSE_VALUE or HSI_VALUE or CSI_VALUE/ PLLM) * PLLN
1389:Drivers/STM32H7xx_HAL_Driver/Src/stm32h7xx_hal_rcc.c ****     SYSCLK = PLL_VCO / PLLR
1390:Drivers/STM32H7xx_HAL_Driver/Src/stm32h7xx_hal_rcc.c ****     */
1391:Drivers/STM32H7xx_HAL_Driver/Src/stm32h7xx_hal_rcc.c ****     pllsource = (RCC->PLLCKSELR & RCC_PLLCKSELR_PLLSRC);
  31              		.loc 1 1391 5 view .LVU1
  32              		.loc 1 1391 21 is_stmt 0 view .LVU2
  33 0000 3B4B     		ldr	r3, .L15
1355:Drivers/STM32H7xx_HAL_Driver/Src/stm32h7xx_hal_rcc.c **** {
  34              		.loc 1 1355 10 view .LVU3
ARM GAS  C:\Users\MadeuxS\AppData\Local\Temp\ccJrku7c.s 			page 26


  35 0002 30B4     		push	{r4, r5}
  36              	.LCFI0:
  37              		.cfi_def_cfa_offset 8
  38              		.cfi_offset 4, -8
  39              		.cfi_offset 5, -4
  40              		.loc 1 1391 21 view .LVU4
  41 0004 9A6A     		ldr	r2, [r3, #40]
  42              	.LVL0:
1392:Drivers/STM32H7xx_HAL_Driver/Src/stm32h7xx_hal_rcc.c ****     pllm = ((RCC->PLLCKSELR & RCC_PLLCKSELR_DIVM1)>> 4)  ;
  43              		.loc 1 1392 5 is_stmt 1 view .LVU5
  44              		.loc 1 1392 17 is_stmt 0 view .LVU6
  45 0006 9C6A     		ldr	r4, [r3, #40]
1393:Drivers/STM32H7xx_HAL_Driver/Src/stm32h7xx_hal_rcc.c ****     pllfracen = ((RCC-> PLLCFGR & RCC_PLLCFGR_PLL1FRACEN)>>RCC_PLLCFGR_PLL1FRACEN_Pos);
  46              		.loc 1 1393 22 view .LVU7
  47 0008 DD6A     		ldr	r5, [r3, #44]
1394:Drivers/STM32H7xx_HAL_Driver/Src/stm32h7xx_hal_rcc.c ****     fracn1 = (float_t)(uint32_t)(pllfracen* ((RCC->PLL1FRACR & RCC_PLL1FRACR_FRACN1)>> 3));
1395:Drivers/STM32H7xx_HAL_Driver/Src/stm32h7xx_hal_rcc.c **** 
1396:Drivers/STM32H7xx_HAL_Driver/Src/stm32h7xx_hal_rcc.c ****     if (pllm != 0U)
  48              		.loc 1 1396 8 view .LVU8
  49 000a 14F47C7F 		tst	r4, #1008
1394:Drivers/STM32H7xx_HAL_Driver/Src/stm32h7xx_hal_rcc.c ****     fracn1 = (float_t)(uint32_t)(pllfracen* ((RCC->PLL1FRACR & RCC_PLL1FRACR_FRACN1)>> 3));
  50              		.loc 1 1394 50 view .LVU9
  51 000e 596B     		ldr	r1, [r3, #52]
1392:Drivers/STM32H7xx_HAL_Driver/Src/stm32h7xx_hal_rcc.c ****     pllfracen = ((RCC-> PLLCFGR & RCC_PLLCFGR_PLL1FRACEN)>>RCC_PLLCFGR_PLL1FRACEN_Pos);
  52              		.loc 1 1392 10 view .LVU10
  53 0010 C4F30510 		ubfx	r0, r4, #4, #6
  54              	.LVL1:
1393:Drivers/STM32H7xx_HAL_Driver/Src/stm32h7xx_hal_rcc.c ****     pllfracen = ((RCC-> PLLCFGR & RCC_PLLCFGR_PLL1FRACEN)>>RCC_PLLCFGR_PLL1FRACEN_Pos);
  55              		.loc 1 1393 5 is_stmt 1 view .LVU11
1394:Drivers/STM32H7xx_HAL_Driver/Src/stm32h7xx_hal_rcc.c ****     fracn1 = (float_t)(uint32_t)(pllfracen* ((RCC->PLL1FRACR & RCC_PLL1FRACR_FRACN1)>> 3));
  56              		.loc 1 1394 5 view .LVU12
  57              		.loc 1 1396 5 view .LVU13
  58              		.loc 1 1396 8 is_stmt 0 view .LVU14
  59 0014 38D0     		beq	.L1
1394:Drivers/STM32H7xx_HAL_Driver/Src/stm32h7xx_hal_rcc.c ****     fracn1 = (float_t)(uint32_t)(pllfracen* ((RCC->PLL1FRACR & RCC_PLL1FRACR_FRACN1)>> 3));
  60              		.loc 1 1394 85 view .LVU15
  61 0016 C1F3CC01 		ubfx	r1, r1, #3, #13
  62              	.LVL2:
1393:Drivers/STM32H7xx_HAL_Driver/Src/stm32h7xx_hal_rcc.c ****     pllfracen = ((RCC-> PLLCFGR & RCC_PLLCFGR_PLL1FRACEN)>>RCC_PLLCFGR_PLL1FRACEN_Pos);
  63              		.loc 1 1393 15 view .LVU16
  64 001a 05F00105 		and	r5, r5, #1
  65              	.LVL3:
1391:Drivers/STM32H7xx_HAL_Driver/Src/stm32h7xx_hal_rcc.c ****     pllm = ((RCC->PLLCKSELR & RCC_PLLCKSELR_DIVM1)>> 4)  ;
  66              		.loc 1 1391 15 view .LVU17
  67 001e 02F00302 		and	r2, r2, #3
  68              	.LVL4:
1394:Drivers/STM32H7xx_HAL_Driver/Src/stm32h7xx_hal_rcc.c ****     fracn1 = (float_t)(uint32_t)(pllfracen* ((RCC->PLL1FRACR & RCC_PLL1FRACR_FRACN1)>> 3));
  69              		.loc 1 1394 23 view .LVU18
  70 0022 05FB01F1 		mul	r1, r5, r1
  71 0026 012A     		cmp	r2, #1
1394:Drivers/STM32H7xx_HAL_Driver/Src/stm32h7xx_hal_rcc.c ****     fracn1 = (float_t)(uint32_t)(pllfracen* ((RCC->PLL1FRACR & RCC_PLL1FRACR_FRACN1)>> 3));
  72              		.loc 1 1394 12 view .LVU19
  73 0028 07EE901A 		vmov	s15, r1	@ int
  74 002c B8EEE77A 		vcvt.f32.s32	s14, s15
1397:Drivers/STM32H7xx_HAL_Driver/Src/stm32h7xx_hal_rcc.c ****     {
1398:Drivers/STM32H7xx_HAL_Driver/Src/stm32h7xx_hal_rcc.c ****       switch (pllsource)
  75              		.loc 1 1398 7 is_stmt 1 view .LVU20
ARM GAS  C:\Users\MadeuxS\AppData\Local\Temp\ccJrku7c.s 			page 27


  76 0030 02D0     		beq	.L5
  77 0032 022A     		cmp	r2, #2
  78 0034 4ED0     		beq	.L4
  79 0036 4AB3     		cbz	r2, .L14
  80              	.L5:
1399:Drivers/STM32H7xx_HAL_Driver/Src/stm32h7xx_hal_rcc.c ****       {
1400:Drivers/STM32H7xx_HAL_Driver/Src/stm32h7xx_hal_rcc.c ****       case RCC_PLLSOURCE_HSI:  /* HSI used as PLL clock source */
1401:Drivers/STM32H7xx_HAL_Driver/Src/stm32h7xx_hal_rcc.c **** 
1402:Drivers/STM32H7xx_HAL_Driver/Src/stm32h7xx_hal_rcc.c ****        if (__HAL_RCC_GET_FLAG(RCC_FLAG_HSIDIV) != 0U)
1403:Drivers/STM32H7xx_HAL_Driver/Src/stm32h7xx_hal_rcc.c ****         {
1404:Drivers/STM32H7xx_HAL_Driver/Src/stm32h7xx_hal_rcc.c ****           hsivalue= (HSI_VALUE >> (__HAL_RCC_GET_HSI_DIVIDER()>> 3));
1405:Drivers/STM32H7xx_HAL_Driver/Src/stm32h7xx_hal_rcc.c ****           pllvco = ( (float_t)hsivalue / (float_t)pllm) * ((float_t)(uint32_t)(RCC->PLL1DIVR & RCC_
1406:Drivers/STM32H7xx_HAL_Driver/Src/stm32h7xx_hal_rcc.c ****         }
1407:Drivers/STM32H7xx_HAL_Driver/Src/stm32h7xx_hal_rcc.c ****         else
1408:Drivers/STM32H7xx_HAL_Driver/Src/stm32h7xx_hal_rcc.c ****         {
1409:Drivers/STM32H7xx_HAL_Driver/Src/stm32h7xx_hal_rcc.c ****           pllvco = ((float_t)HSI_VALUE / (float_t)pllm) * ((float_t)(uint32_t)(RCC->PLL1DIVR & RCC_
1410:Drivers/STM32H7xx_HAL_Driver/Src/stm32h7xx_hal_rcc.c ****         }
1411:Drivers/STM32H7xx_HAL_Driver/Src/stm32h7xx_hal_rcc.c ****         break;
1412:Drivers/STM32H7xx_HAL_Driver/Src/stm32h7xx_hal_rcc.c **** 
1413:Drivers/STM32H7xx_HAL_Driver/Src/stm32h7xx_hal_rcc.c ****       case RCC_PLLSOURCE_CSI:  /* CSI used as PLL clock source */
1414:Drivers/STM32H7xx_HAL_Driver/Src/stm32h7xx_hal_rcc.c ****         pllvco = ((float_t)CSI_VALUE / (float_t)pllm) * ((float_t)(uint32_t)(RCC->PLL1DIVR & RCC_PL
1415:Drivers/STM32H7xx_HAL_Driver/Src/stm32h7xx_hal_rcc.c ****         break;
1416:Drivers/STM32H7xx_HAL_Driver/Src/stm32h7xx_hal_rcc.c **** 
1417:Drivers/STM32H7xx_HAL_Driver/Src/stm32h7xx_hal_rcc.c ****       case RCC_PLLSOURCE_HSE:  /* HSE used as PLL clock source */
1418:Drivers/STM32H7xx_HAL_Driver/Src/stm32h7xx_hal_rcc.c ****         pllvco = ((float_t)HSE_VALUE / (float_t)pllm) * ((float_t)(uint32_t)(RCC->PLL1DIVR & RCC_PL
1419:Drivers/STM32H7xx_HAL_Driver/Src/stm32h7xx_hal_rcc.c ****         break;
1420:Drivers/STM32H7xx_HAL_Driver/Src/stm32h7xx_hal_rcc.c **** 
1421:Drivers/STM32H7xx_HAL_Driver/Src/stm32h7xx_hal_rcc.c ****       default:
1422:Drivers/STM32H7xx_HAL_Driver/Src/stm32h7xx_hal_rcc.c ****         pllvco = ((float_t)CSI_VALUE / (float_t)pllm) * ((float_t)(uint32_t)(RCC->PLL1DIVR & RCC_PL
  81              		.loc 1 1422 9 view .LVU21
  82              		.loc 1 1422 40 is_stmt 0 view .LVU22
  83 0038 07EE900A 		vmov	s15, r0	@ int
  84              		.loc 1 1422 38 view .LVU23
  85 003c DFED2D6A 		vldr.32	s13, .L15+4
  86              		.loc 1 1422 40 view .LVU24
  87 0040 F8EEE77A 		vcvt.f32.s32	s15, s15
  88              	.LVL5:
  89              	.L12:
  90              		.loc 1 1422 81 view .LVU25
  91 0044 1B6B     		ldr	r3, [r3, #48]
  92              		.loc 1 1422 38 view .LVU26
  93 0046 86EEA76A 		vdiv.f32	s12, s13, s15
  94              		.loc 1 1422 138 view .LVU27
  95 004a DFED2B5A 		vldr.32	s11, .L15+8
  96              		.loc 1 1422 67 view .LVU28
  97 004e C3F30803 		ubfx	r3, r3, #0, #9
  98 0052 06EE903A 		vmov	s13, r3	@ int
  99              		.loc 1 1422 138 view .LVU29
 100 0056 B7EE005A 		vmov.f32	s10, #1.0e+0
 101              		.loc 1 1422 58 view .LVU30
 102 005a F8EEE66A 		vcvt.f32.s32	s13, s13
 103              		.loc 1 1422 138 view .LVU31
 104 005e 76EE856A 		vadd.f32	s13, s13, s10
 105 0062 E7EE256A 		vfma.f32	s13, s14, s11
 106              		.loc 1 1422 16 view .LVU32
 107 0066 66EE266A 		vmul.f32	s13, s12, s13
 108              	.LVL6:
ARM GAS  C:\Users\MadeuxS\AppData\Local\Temp\ccJrku7c.s 			page 28


1423:Drivers/STM32H7xx_HAL_Driver/Src/stm32h7xx_hal_rcc.c ****         break;
 109              		.loc 1 1423 9 is_stmt 1 view .LVU33
 110              	.L7:
1424:Drivers/STM32H7xx_HAL_Driver/Src/stm32h7xx_hal_rcc.c ****       }
1425:Drivers/STM32H7xx_HAL_Driver/Src/stm32h7xx_hal_rcc.c ****       pllp = (((RCC->PLL1DIVR & RCC_PLL1DIVR_P1) >>9) + 1U ) ;
 111              		.loc 1 1425 7 view .LVU34
 112              		.loc 1 1425 20 is_stmt 0 view .LVU35
 113 006a 214B     		ldr	r3, .L15
 114 006c 1B6B     		ldr	r3, [r3, #48]
 115              	.LVL7:
1426:Drivers/STM32H7xx_HAL_Driver/Src/stm32h7xx_hal_rcc.c ****       sysclockfreq =  (uint32_t)(float_t)(pllvco/(float_t)pllp);
 116              		.loc 1 1426 7 is_stmt 1 view .LVU36
1425:Drivers/STM32H7xx_HAL_Driver/Src/stm32h7xx_hal_rcc.c ****       sysclockfreq =  (uint32_t)(float_t)(pllvco/(float_t)pllp);
 117              		.loc 1 1425 50 is_stmt 0 view .LVU37
 118 006e C3F34623 		ubfx	r3, r3, #9, #7
 119              	.LVL8:
1425:Drivers/STM32H7xx_HAL_Driver/Src/stm32h7xx_hal_rcc.c ****       sysclockfreq =  (uint32_t)(float_t)(pllvco/(float_t)pllp);
 120              		.loc 1 1425 12 view .LVU38
 121 0072 0133     		adds	r3, r3, #1
 122              		.loc 1 1426 50 view .LVU39
 123 0074 07EE903A 		vmov	s15, r3	@ int
 124 0078 B8EEE77A 		vcvt.f32.s32	s14, s15
 125              		.loc 1 1426 33 view .LVU40
 126 007c C6EE877A 		vdiv.f32	s15, s13, s14
 127              		.loc 1 1426 20 view .LVU41
 128 0080 FCEEE77A 		vcvt.u32.f32	s15, s15
 129 0084 17EE900A 		vmov	r0, s15	@ int
 130              	.LVL9:
1427:Drivers/STM32H7xx_HAL_Driver/Src/stm32h7xx_hal_rcc.c ****     }
1428:Drivers/STM32H7xx_HAL_Driver/Src/stm32h7xx_hal_rcc.c ****     else
1429:Drivers/STM32H7xx_HAL_Driver/Src/stm32h7xx_hal_rcc.c ****     {
1430:Drivers/STM32H7xx_HAL_Driver/Src/stm32h7xx_hal_rcc.c ****       sysclockfreq = 0U;
1431:Drivers/STM32H7xx_HAL_Driver/Src/stm32h7xx_hal_rcc.c ****     }
1432:Drivers/STM32H7xx_HAL_Driver/Src/stm32h7xx_hal_rcc.c ****     break;
1433:Drivers/STM32H7xx_HAL_Driver/Src/stm32h7xx_hal_rcc.c **** 
1434:Drivers/STM32H7xx_HAL_Driver/Src/stm32h7xx_hal_rcc.c ****   default:
1435:Drivers/STM32H7xx_HAL_Driver/Src/stm32h7xx_hal_rcc.c ****     sysclockfreq = CSI_VALUE;
1436:Drivers/STM32H7xx_HAL_Driver/Src/stm32h7xx_hal_rcc.c ****     break;
1437:Drivers/STM32H7xx_HAL_Driver/Src/stm32h7xx_hal_rcc.c ****   }
1438:Drivers/STM32H7xx_HAL_Driver/Src/stm32h7xx_hal_rcc.c **** 
1439:Drivers/STM32H7xx_HAL_Driver/Src/stm32h7xx_hal_rcc.c ****   return sysclockfreq;
 131              		.loc 1 1439 3 is_stmt 1 view .LVU42
 132              	.L1:
1440:Drivers/STM32H7xx_HAL_Driver/Src/stm32h7xx_hal_rcc.c **** }
 133              		.loc 1 1440 1 is_stmt 0 view .LVU43
 134 0088 30BC     		pop	{r4, r5}
 135              	.LCFI1:
 136              		.cfi_remember_state
 137              		.cfi_restore 5
 138              		.cfi_restore 4
 139              		.cfi_def_cfa_offset 0
 140              	.LVL10:
 141              		.loc 1 1440 1 view .LVU44
 142 008a 7047     		bx	lr
 143              	.LVL11:
 144              	.L14:
 145              	.LCFI2:
ARM GAS  C:\Users\MadeuxS\AppData\Local\Temp\ccJrku7c.s 			page 29


 146              		.cfi_restore_state
1402:Drivers/STM32H7xx_HAL_Driver/Src/stm32h7xx_hal_rcc.c ****         {
 147              		.loc 1 1402 8 is_stmt 1 view .LVU45
1402:Drivers/STM32H7xx_HAL_Driver/Src/stm32h7xx_hal_rcc.c ****         {
 148              		.loc 1 1402 12 is_stmt 0 view .LVU46
 149 008c 1A68     		ldr	r2, [r3]
 150              	.LVL12:
1402:Drivers/STM32H7xx_HAL_Driver/Src/stm32h7xx_hal_rcc.c ****         {
 151              		.loc 1 1402 11 view .LVU47
 152 008e 9206     		lsls	r2, r2, #26
 153 0090 27D5     		bpl	.L6
1404:Drivers/STM32H7xx_HAL_Driver/Src/stm32h7xx_hal_rcc.c ****           pllvco = ( (float_t)hsivalue / (float_t)pllm) * ((float_t)(uint32_t)(RCC->PLL1DIVR & RCC_
 154              		.loc 1 1404 11 is_stmt 1 view .LVU48
1404:Drivers/STM32H7xx_HAL_Driver/Src/stm32h7xx_hal_rcc.c ****           pllvco = ( (float_t)hsivalue / (float_t)pllm) * ((float_t)(uint32_t)(RCC->PLL1DIVR & RCC_
 155              		.loc 1 1404 36 is_stmt 0 view .LVU49
 156 0092 1968     		ldr	r1, [r3]
 157              	.LVL13:
1405:Drivers/STM32H7xx_HAL_Driver/Src/stm32h7xx_hal_rcc.c ****         }
 158              		.loc 1 1405 11 is_stmt 1 view .LVU50
1405:Drivers/STM32H7xx_HAL_Driver/Src/stm32h7xx_hal_rcc.c ****         }
 159              		.loc 1 1405 42 is_stmt 0 view .LVU51
 160 0094 07EE900A 		vmov	s15, r0	@ int
1404:Drivers/STM32H7xx_HAL_Driver/Src/stm32h7xx_hal_rcc.c ****           pllvco = ( (float_t)hsivalue / (float_t)pllm) * ((float_t)(uint32_t)(RCC->PLL1DIVR & RCC_
 161              		.loc 1 1404 19 view .LVU52
 162 0098 184A     		ldr	r2, .L15+12
1405:Drivers/STM32H7xx_HAL_Driver/Src/stm32h7xx_hal_rcc.c ****         }
 163              		.loc 1 1405 140 view .LVU53
 164 009a B7EE006A 		vmov.f32	s12, #1.0e+0
1405:Drivers/STM32H7xx_HAL_Driver/Src/stm32h7xx_hal_rcc.c ****         }
 165              		.loc 1 1405 83 view .LVU54
 166 009e 1B6B     		ldr	r3, [r3, #48]
1404:Drivers/STM32H7xx_HAL_Driver/Src/stm32h7xx_hal_rcc.c ****           pllvco = ( (float_t)hsivalue / (float_t)pllm) * ((float_t)(uint32_t)(RCC->PLL1DIVR & RCC_
 167              		.loc 1 1404 63 view .LVU55
 168 00a0 C1F3C101 		ubfx	r1, r1, #3, #2
 169              	.LVL14:
1405:Drivers/STM32H7xx_HAL_Driver/Src/stm32h7xx_hal_rcc.c ****         }
 170              		.loc 1 1405 42 view .LVU56
 171 00a4 F8EEE77A 		vcvt.f32.s32	s15, s15
1405:Drivers/STM32H7xx_HAL_Driver/Src/stm32h7xx_hal_rcc.c ****         }
 172              		.loc 1 1405 140 view .LVU57
 173 00a8 9FED135A 		vldr.32	s10, .L15+8
1405:Drivers/STM32H7xx_HAL_Driver/Src/stm32h7xx_hal_rcc.c ****         }
 174              		.loc 1 1405 69 view .LVU58
 175 00ac C3F30803 		ubfx	r3, r3, #0, #9
1404:Drivers/STM32H7xx_HAL_Driver/Src/stm32h7xx_hal_rcc.c ****           pllvco = ( (float_t)hsivalue / (float_t)pllm) * ((float_t)(uint32_t)(RCC->PLL1DIVR & RCC_
 176              		.loc 1 1404 19 view .LVU59
 177 00b0 CA40     		lsrs	r2, r2, r1
1405:Drivers/STM32H7xx_HAL_Driver/Src/stm32h7xx_hal_rcc.c ****         }
 178              		.loc 1 1405 69 view .LVU60
 179 00b2 06EE903A 		vmov	s13, r3	@ int
1405:Drivers/STM32H7xx_HAL_Driver/Src/stm32h7xx_hal_rcc.c ****         }
 180              		.loc 1 1405 22 view .LVU61
 181 00b6 05EE902A 		vmov	s11, r2	@ int
1405:Drivers/STM32H7xx_HAL_Driver/Src/stm32h7xx_hal_rcc.c ****         }
 182              		.loc 1 1405 60 view .LVU62
 183 00ba F8EEE66A 		vcvt.f32.s32	s13, s13
1405:Drivers/STM32H7xx_HAL_Driver/Src/stm32h7xx_hal_rcc.c ****         }
ARM GAS  C:\Users\MadeuxS\AppData\Local\Temp\ccJrku7c.s 			page 30


 184              		.loc 1 1405 22 view .LVU63
 185 00be F8EEE55A 		vcvt.f32.s32	s11, s11
1405:Drivers/STM32H7xx_HAL_Driver/Src/stm32h7xx_hal_rcc.c ****         }
 186              		.loc 1 1405 140 view .LVU64
 187 00c2 76EE866A 		vadd.f32	s13, s13, s12
1405:Drivers/STM32H7xx_HAL_Driver/Src/stm32h7xx_hal_rcc.c ****         }
 188              		.loc 1 1405 40 view .LVU65
 189 00c6 85EEA76A 		vdiv.f32	s12, s11, s15
1405:Drivers/STM32H7xx_HAL_Driver/Src/stm32h7xx_hal_rcc.c ****         }
 190              		.loc 1 1405 140 view .LVU66
 191 00ca E7EE056A 		vfma.f32	s13, s14, s10
1405:Drivers/STM32H7xx_HAL_Driver/Src/stm32h7xx_hal_rcc.c ****         }
 192              		.loc 1 1405 18 view .LVU67
 193 00ce 66EE266A 		vmul.f32	s13, s12, s13
 194              	.LVL15:
1405:Drivers/STM32H7xx_HAL_Driver/Src/stm32h7xx_hal_rcc.c ****         }
 195              		.loc 1 1405 18 view .LVU68
 196 00d2 CAE7     		b	.L7
 197              	.LVL16:
 198              	.L4:
1418:Drivers/STM32H7xx_HAL_Driver/Src/stm32h7xx_hal_rcc.c ****         break;
 199              		.loc 1 1418 9 is_stmt 1 view .LVU69
1418:Drivers/STM32H7xx_HAL_Driver/Src/stm32h7xx_hal_rcc.c ****         break;
 200              		.loc 1 1418 40 is_stmt 0 view .LVU70
 201 00d4 07EE900A 		vmov	s15, r0	@ int
1418:Drivers/STM32H7xx_HAL_Driver/Src/stm32h7xx_hal_rcc.c ****         break;
 202              		.loc 1 1418 38 view .LVU71
 203 00d8 DFED096A 		vldr.32	s13, .L15+16
1418:Drivers/STM32H7xx_HAL_Driver/Src/stm32h7xx_hal_rcc.c ****         break;
 204              		.loc 1 1418 40 view .LVU72
 205 00dc F8EEE77A 		vcvt.f32.s32	s15, s15
 206 00e0 B0E7     		b	.L12
 207              	.LVL17:
 208              	.L6:
1409:Drivers/STM32H7xx_HAL_Driver/Src/stm32h7xx_hal_rcc.c ****         }
 209              		.loc 1 1409 11 is_stmt 1 view .LVU73
1409:Drivers/STM32H7xx_HAL_Driver/Src/stm32h7xx_hal_rcc.c ****         }
 210              		.loc 1 1409 42 is_stmt 0 view .LVU74
 211 00e2 07EE900A 		vmov	s15, r0	@ int
1409:Drivers/STM32H7xx_HAL_Driver/Src/stm32h7xx_hal_rcc.c ****         }
 212              		.loc 1 1409 40 view .LVU75
 213 00e6 DFED076A 		vldr.32	s13, .L15+20
1409:Drivers/STM32H7xx_HAL_Driver/Src/stm32h7xx_hal_rcc.c ****         }
 214              		.loc 1 1409 42 view .LVU76
 215 00ea F8EEE77A 		vcvt.f32.s32	s15, s15
 216 00ee A9E7     		b	.L12
 217              	.L16:
 218              		.align	2
 219              	.L15:
 220 00f0 00440258 		.word	1476543488
 221 00f4 0024744A 		.word	1249125376
 222 00f8 00000039 		.word	956301312
 223 00fc 0090D003 		.word	64000000
 224 0100 20BCBE4B 		.word	1270791200
 225 0104 0024744C 		.word	1282679808
 226              		.cfi_endproc
 227              	.LFE158:
ARM GAS  C:\Users\MadeuxS\AppData\Local\Temp\ccJrku7c.s 			page 31


 229              		.section	.text.HAL_RCC_DeInit,"ax",%progbits
 230              		.align	1
 231              		.p2align 2,,3
 232              		.global	HAL_RCC_DeInit
 233              		.syntax unified
 234              		.thumb
 235              		.thumb_func
 236              		.fpu fpv5-d16
 238              	HAL_RCC_DeInit:
 239              	.LFB144:
 191:Drivers/STM32H7xx_HAL_Driver/Src/stm32h7xx_hal_rcc.c ****   uint32_t tickstart;
 240              		.loc 1 191 1 is_stmt 1 view -0
 241              		.cfi_startproc
 242              		@ args = 0, pretend = 0, frame = 0
 243              		@ frame_needed = 0, uses_anonymous_args = 0
 192:Drivers/STM32H7xx_HAL_Driver/Src/stm32h7xx_hal_rcc.c **** 
 244              		.loc 1 192 3 view .LVU78
 195:Drivers/STM32H7xx_HAL_Driver/Src/stm32h7xx_hal_rcc.c ****   {
 245              		.loc 1 195 3 view .LVU79
 195:Drivers/STM32H7xx_HAL_Driver/Src/stm32h7xx_hal_rcc.c ****   {
 246              		.loc 1 195 31 is_stmt 0 view .LVU80
 247 0000 5D4A     		ldr	r2, .L44
 191:Drivers/STM32H7xx_HAL_Driver/Src/stm32h7xx_hal_rcc.c ****   uint32_t tickstart;
 248              		.loc 1 191 1 view .LVU81
 249 0002 F8B5     		push	{r3, r4, r5, r6, r7, lr}
 250              	.LCFI3:
 251              		.cfi_def_cfa_offset 24
 252              		.cfi_offset 3, -24
 253              		.cfi_offset 4, -20
 254              		.cfi_offset 5, -16
 255              		.cfi_offset 6, -12
 256              		.cfi_offset 7, -8
 257              		.cfi_offset 14, -4
 195:Drivers/STM32H7xx_HAL_Driver/Src/stm32h7xx_hal_rcc.c ****   {
 258              		.loc 1 195 31 view .LVU82
 259 0004 1368     		ldr	r3, [r2]
 260 0006 03F00F03 		and	r3, r3, #15
 195:Drivers/STM32H7xx_HAL_Driver/Src/stm32h7xx_hal_rcc.c ****   {
 261              		.loc 1 195 5 view .LVU83
 262 000a 062B     		cmp	r3, #6
 263 000c 0AD8     		bhi	.L20
 198:Drivers/STM32H7xx_HAL_Driver/Src/stm32h7xx_hal_rcc.c **** 
 264              		.loc 1 198 5 is_stmt 1 view .LVU84
 265 000e 1368     		ldr	r3, [r2]
 266 0010 23F00F03 		bic	r3, r3, #15
 267 0014 43F00703 		orr	r3, r3, #7
 268 0018 1360     		str	r3, [r2]
 202:Drivers/STM32H7xx_HAL_Driver/Src/stm32h7xx_hal_rcc.c ****     {
 269              		.loc 1 202 5 view .LVU85
 202:Drivers/STM32H7xx_HAL_Driver/Src/stm32h7xx_hal_rcc.c ****     {
 270              		.loc 1 202 8 is_stmt 0 view .LVU86
 271 001a 1368     		ldr	r3, [r2]
 272 001c 03F00F03 		and	r3, r3, #15
 202:Drivers/STM32H7xx_HAL_Driver/Src/stm32h7xx_hal_rcc.c ****     {
 273              		.loc 1 202 7 view .LVU87
 274 0020 072B     		cmp	r3, #7
 275 0022 21D1     		bne	.L23
ARM GAS  C:\Users\MadeuxS\AppData\Local\Temp\ccJrku7c.s 			page 32


 276              	.L20:
 211:Drivers/STM32H7xx_HAL_Driver/Src/stm32h7xx_hal_rcc.c **** 
 277              		.loc 1 211 3 is_stmt 1 view .LVU88
 214:Drivers/STM32H7xx_HAL_Driver/Src/stm32h7xx_hal_rcc.c **** 
 278              		.loc 1 214 3 is_stmt 0 view .LVU89
 279 0024 554C     		ldr	r4, .L44+4
 211:Drivers/STM32H7xx_HAL_Driver/Src/stm32h7xx_hal_rcc.c **** 
 280              		.loc 1 211 15 view .LVU90
 281 0026 FFF7FEFF 		bl	HAL_GetTick
 282              	.LVL18:
 283 002a 0546     		mov	r5, r0
 284              	.LVL19:
 214:Drivers/STM32H7xx_HAL_Driver/Src/stm32h7xx_hal_rcc.c **** 
 285              		.loc 1 214 3 is_stmt 1 view .LVU91
 286 002c 2368     		ldr	r3, [r4]
 287 002e 43F00103 		orr	r3, r3, #1
 288 0032 2360     		str	r3, [r4]
 217:Drivers/STM32H7xx_HAL_Driver/Src/stm32h7xx_hal_rcc.c ****   {
 289              		.loc 1 217 3 view .LVU92
 217:Drivers/STM32H7xx_HAL_Driver/Src/stm32h7xx_hal_rcc.c ****   {
 290              		.loc 1 217 9 is_stmt 0 view .LVU93
 291 0034 04E0     		b	.L19
 292              	.LVL20:
 293              	.L22:
 219:Drivers/STM32H7xx_HAL_Driver/Src/stm32h7xx_hal_rcc.c ****     {
 294              		.loc 1 219 10 view .LVU94
 295 0036 FFF7FEFF 		bl	HAL_GetTick
 296              	.LVL21:
 219:Drivers/STM32H7xx_HAL_Driver/Src/stm32h7xx_hal_rcc.c ****     {
 297              		.loc 1 219 24 view .LVU95
 298 003a 401B     		subs	r0, r0, r5
 219:Drivers/STM32H7xx_HAL_Driver/Src/stm32h7xx_hal_rcc.c ****     {
 299              		.loc 1 219 8 view .LVU96
 300 003c 0228     		cmp	r0, #2
 301 003e 16D8     		bhi	.L25
 302              	.L19:
 219:Drivers/STM32H7xx_HAL_Driver/Src/stm32h7xx_hal_rcc.c ****     {
 303              		.loc 1 219 5 is_stmt 1 view .LVU97
 217:Drivers/STM32H7xx_HAL_Driver/Src/stm32h7xx_hal_rcc.c ****   {
 304              		.loc 1 217 9 view .LVU98
 217:Drivers/STM32H7xx_HAL_Driver/Src/stm32h7xx_hal_rcc.c ****   {
 305              		.loc 1 217 10 is_stmt 0 view .LVU99
 306 0040 2368     		ldr	r3, [r4]
 217:Drivers/STM32H7xx_HAL_Driver/Src/stm32h7xx_hal_rcc.c ****   {
 307              		.loc 1 217 9 view .LVU100
 308 0042 5E07     		lsls	r6, r3, #29
 309 0044 F7D5     		bpl	.L22
 226:Drivers/STM32H7xx_HAL_Driver/Src/stm32h7xx_hal_rcc.c **** 
 310              		.loc 1 226 3 is_stmt 1 view .LVU101
 311 0046 6368     		ldr	r3, [r4, #4]
 229:Drivers/STM32H7xx_HAL_Driver/Src/stm32h7xx_hal_rcc.c **** 
 312              		.loc 1 229 3 is_stmt 0 view .LVU102
 313 0048 0025     		movs	r5, #0
 314              	.LVL22:
 236:Drivers/STM32H7xx_HAL_Driver/Src/stm32h7xx_hal_rcc.c ****   {
 315              		.loc 1 236 6 view .LVU103
 316 004a 4D48     		ldr	r0, .L44+8
ARM GAS  C:\Users\MadeuxS\AppData\Local\Temp\ccJrku7c.s 			page 33


 226:Drivers/STM32H7xx_HAL_Driver/Src/stm32h7xx_hal_rcc.c **** 
 317              		.loc 1 226 3 view .LVU104
 318 004c 43F08043 		orr	r3, r3, #1073741824
 232:Drivers/STM32H7xx_HAL_Driver/Src/stm32h7xx_hal_rcc.c ****   SystemD2Clock = HSI_VALUE;
 319              		.loc 1 232 19 view .LVU105
 320 0050 4C4A     		ldr	r2, .L44+12
 321 0052 4D49     		ldr	r1, .L44+16
 226:Drivers/STM32H7xx_HAL_Driver/Src/stm32h7xx_hal_rcc.c **** 
 322              		.loc 1 226 3 view .LVU106
 323 0054 6360     		str	r3, [r4, #4]
 229:Drivers/STM32H7xx_HAL_Driver/Src/stm32h7xx_hal_rcc.c **** 
 324              		.loc 1 229 3 is_stmt 1 view .LVU107
 233:Drivers/STM32H7xx_HAL_Driver/Src/stm32h7xx_hal_rcc.c **** 
 325              		.loc 1 233 17 is_stmt 0 view .LVU108
 326 0056 4D4B     		ldr	r3, .L44+20
 229:Drivers/STM32H7xx_HAL_Driver/Src/stm32h7xx_hal_rcc.c **** 
 327              		.loc 1 229 3 view .LVU109
 328 0058 2561     		str	r5, [r4, #16]
 232:Drivers/STM32H7xx_HAL_Driver/Src/stm32h7xx_hal_rcc.c ****   SystemD2Clock = HSI_VALUE;
 329              		.loc 1 232 3 is_stmt 1 view .LVU110
 236:Drivers/STM32H7xx_HAL_Driver/Src/stm32h7xx_hal_rcc.c ****   {
 330              		.loc 1 236 6 is_stmt 0 view .LVU111
 331 005a 0068     		ldr	r0, [r0]
 232:Drivers/STM32H7xx_HAL_Driver/Src/stm32h7xx_hal_rcc.c ****   SystemD2Clock = HSI_VALUE;
 332              		.loc 1 232 19 view .LVU112
 333 005c 0A60     		str	r2, [r1]
 233:Drivers/STM32H7xx_HAL_Driver/Src/stm32h7xx_hal_rcc.c **** 
 334              		.loc 1 233 3 is_stmt 1 view .LVU113
 233:Drivers/STM32H7xx_HAL_Driver/Src/stm32h7xx_hal_rcc.c **** 
 335              		.loc 1 233 17 is_stmt 0 view .LVU114
 336 005e 1A60     		str	r2, [r3]
 236:Drivers/STM32H7xx_HAL_Driver/Src/stm32h7xx_hal_rcc.c ****   {
 337              		.loc 1 236 3 is_stmt 1 view .LVU115
 236:Drivers/STM32H7xx_HAL_Driver/Src/stm32h7xx_hal_rcc.c ****   {
 338              		.loc 1 236 6 is_stmt 0 view .LVU116
 339 0060 FFF7FEFF 		bl	HAL_InitTick
 340              	.LVL23:
 236:Drivers/STM32H7xx_HAL_Driver/Src/stm32h7xx_hal_rcc.c ****   {
 341              		.loc 1 236 5 view .LVU117
 342 0064 0446     		mov	r4, r0
 343 0066 28B1     		cbz	r0, .L43
 344              	.L23:
 204:Drivers/STM32H7xx_HAL_Driver/Src/stm32h7xx_hal_rcc.c ****     }
 345              		.loc 1 204 14 view .LVU118
 346 0068 0124     		movs	r4, #1
 347              	.L21:
 391:Drivers/STM32H7xx_HAL_Driver/Src/stm32h7xx_hal_rcc.c **** 
 348              		.loc 1 391 1 view .LVU119
 349 006a 2046     		mov	r0, r4
 350 006c F8BD     		pop	{r3, r4, r5, r6, r7, pc}
 351              	.L25:
 221:Drivers/STM32H7xx_HAL_Driver/Src/stm32h7xx_hal_rcc.c ****     }
 352              		.loc 1 221 14 view .LVU120
 353 006e 0324     		movs	r4, #3
 391:Drivers/STM32H7xx_HAL_Driver/Src/stm32h7xx_hal_rcc.c **** 
 354              		.loc 1 391 1 view .LVU121
 355 0070 2046     		mov	r0, r4
ARM GAS  C:\Users\MadeuxS\AppData\Local\Temp\ccJrku7c.s 			page 34


 356 0072 F8BD     		pop	{r3, r4, r5, r6, r7, pc}
 357              	.L43:
 242:Drivers/STM32H7xx_HAL_Driver/Src/stm32h7xx_hal_rcc.c **** 
 358              		.loc 1 242 3 is_stmt 1 view .LVU122
 242:Drivers/STM32H7xx_HAL_Driver/Src/stm32h7xx_hal_rcc.c **** 
 359              		.loc 1 242 15 is_stmt 0 view .LVU123
 360 0074 FFF7FEFF 		bl	HAL_GetTick
 361              	.LVL24:
 245:Drivers/STM32H7xx_HAL_Driver/Src/stm32h7xx_hal_rcc.c ****   {
 362              		.loc 1 245 10 view .LVU124
 363 0078 404E     		ldr	r6, .L44+4
 247:Drivers/STM32H7xx_HAL_Driver/Src/stm32h7xx_hal_rcc.c ****     {
 364              		.loc 1 247 8 view .LVU125
 365 007a 41F28837 		movw	r7, #5000
 242:Drivers/STM32H7xx_HAL_Driver/Src/stm32h7xx_hal_rcc.c **** 
 366              		.loc 1 242 15 view .LVU126
 367 007e 0546     		mov	r5, r0
 368              	.LVL25:
 245:Drivers/STM32H7xx_HAL_Driver/Src/stm32h7xx_hal_rcc.c ****   {
 369              		.loc 1 245 3 is_stmt 1 view .LVU127
 245:Drivers/STM32H7xx_HAL_Driver/Src/stm32h7xx_hal_rcc.c ****   {
 370              		.loc 1 245 9 is_stmt 0 view .LVU128
 371 0080 04E0     		b	.L24
 372              	.LVL26:
 373              	.L26:
 247:Drivers/STM32H7xx_HAL_Driver/Src/stm32h7xx_hal_rcc.c ****     {
 374              		.loc 1 247 10 view .LVU129
 375 0082 FFF7FEFF 		bl	HAL_GetTick
 376              	.LVL27:
 247:Drivers/STM32H7xx_HAL_Driver/Src/stm32h7xx_hal_rcc.c ****     {
 377              		.loc 1 247 24 view .LVU130
 378 0086 431B     		subs	r3, r0, r5
 247:Drivers/STM32H7xx_HAL_Driver/Src/stm32h7xx_hal_rcc.c ****     {
 379              		.loc 1 247 8 view .LVU131
 380 0088 BB42     		cmp	r3, r7
 381 008a F0D8     		bhi	.L25
 382              	.L24:
 247:Drivers/STM32H7xx_HAL_Driver/Src/stm32h7xx_hal_rcc.c ****     {
 383              		.loc 1 247 5 is_stmt 1 view .LVU132
 245:Drivers/STM32H7xx_HAL_Driver/Src/stm32h7xx_hal_rcc.c ****   {
 384              		.loc 1 245 9 view .LVU133
 245:Drivers/STM32H7xx_HAL_Driver/Src/stm32h7xx_hal_rcc.c ****   {
 385              		.loc 1 245 10 is_stmt 0 view .LVU134
 386 008c 3369     		ldr	r3, [r6, #16]
 245:Drivers/STM32H7xx_HAL_Driver/Src/stm32h7xx_hal_rcc.c ****   {
 387              		.loc 1 245 9 view .LVU135
 388 008e 13F0380F 		tst	r3, #56
 389 0092 F6D1     		bne	.L26
 254:Drivers/STM32H7xx_HAL_Driver/Src/stm32h7xx_hal_rcc.c **** 
 390              		.loc 1 254 3 is_stmt 1 view .LVU136
 254:Drivers/STM32H7xx_HAL_Driver/Src/stm32h7xx_hal_rcc.c **** 
 391              		.loc 1 254 15 is_stmt 0 view .LVU137
 392 0094 FFF7FEFF 		bl	HAL_GetTick
 393              	.LVL28:
 257:Drivers/STM32H7xx_HAL_Driver/Src/stm32h7xx_hal_rcc.c ****   | RCC_CR_HSI48ON | RCC_CR_CSSHSEON);
 394              		.loc 1 257 3 view .LVU138
 395 0098 3268     		ldr	r2, [r6]
ARM GAS  C:\Users\MadeuxS\AppData\Local\Temp\ccJrku7c.s 			page 35


 396 009a 3D4B     		ldr	r3, .L44+24
 254:Drivers/STM32H7xx_HAL_Driver/Src/stm32h7xx_hal_rcc.c **** 
 397              		.loc 1 254 15 view .LVU139
 398 009c 0546     		mov	r5, r0
 399              	.LVL29:
 257:Drivers/STM32H7xx_HAL_Driver/Src/stm32h7xx_hal_rcc.c ****   | RCC_CR_HSI48ON | RCC_CR_CSSHSEON);
 400              		.loc 1 257 3 is_stmt 1 view .LVU140
 261:Drivers/STM32H7xx_HAL_Driver/Src/stm32h7xx_hal_rcc.c ****   {
 401              		.loc 1 261 10 is_stmt 0 view .LVU141
 402 009e 374F     		ldr	r7, .L44+4
 257:Drivers/STM32H7xx_HAL_Driver/Src/stm32h7xx_hal_rcc.c ****   | RCC_CR_HSI48ON | RCC_CR_CSSHSEON);
 403              		.loc 1 257 3 view .LVU142
 404 00a0 1340     		ands	r3, r3, r2
 405 00a2 3360     		str	r3, [r6]
 261:Drivers/STM32H7xx_HAL_Driver/Src/stm32h7xx_hal_rcc.c ****   {
 406              		.loc 1 261 3 is_stmt 1 view .LVU143
 261:Drivers/STM32H7xx_HAL_Driver/Src/stm32h7xx_hal_rcc.c ****   {
 407              		.loc 1 261 9 is_stmt 0 view .LVU144
 408 00a4 04E0     		b	.L27
 409              	.LVL30:
 410              	.L28:
 263:Drivers/STM32H7xx_HAL_Driver/Src/stm32h7xx_hal_rcc.c ****     {
 411              		.loc 1 263 10 view .LVU145
 412 00a6 FFF7FEFF 		bl	HAL_GetTick
 413              	.LVL31:
 263:Drivers/STM32H7xx_HAL_Driver/Src/stm32h7xx_hal_rcc.c ****     {
 414              		.loc 1 263 24 view .LVU146
 415 00aa 401B     		subs	r0, r0, r5
 263:Drivers/STM32H7xx_HAL_Driver/Src/stm32h7xx_hal_rcc.c ****     {
 416              		.loc 1 263 8 view .LVU147
 417 00ac 6428     		cmp	r0, #100
 418 00ae DED8     		bhi	.L25
 419              	.L27:
 263:Drivers/STM32H7xx_HAL_Driver/Src/stm32h7xx_hal_rcc.c ****     {
 420              		.loc 1 263 5 is_stmt 1 view .LVU148
 261:Drivers/STM32H7xx_HAL_Driver/Src/stm32h7xx_hal_rcc.c ****   {
 421              		.loc 1 261 9 view .LVU149
 261:Drivers/STM32H7xx_HAL_Driver/Src/stm32h7xx_hal_rcc.c ****   {
 422              		.loc 1 261 10 is_stmt 0 view .LVU150
 423 00b0 3B68     		ldr	r3, [r7]
 261:Drivers/STM32H7xx_HAL_Driver/Src/stm32h7xx_hal_rcc.c ****   {
 424              		.loc 1 261 9 view .LVU151
 425 00b2 9803     		lsls	r0, r3, #14
 426 00b4 F7D4     		bmi	.L28
 270:Drivers/STM32H7xx_HAL_Driver/Src/stm32h7xx_hal_rcc.c **** 
 427              		.loc 1 270 3 is_stmt 1 view .LVU152
 270:Drivers/STM32H7xx_HAL_Driver/Src/stm32h7xx_hal_rcc.c **** 
 428              		.loc 1 270 15 is_stmt 0 view .LVU153
 429 00b6 FFF7FEFF 		bl	HAL_GetTick
 430              	.LVL32:
 273:Drivers/STM32H7xx_HAL_Driver/Src/stm32h7xx_hal_rcc.c **** 
 431              		.loc 1 273 3 view .LVU154
 432 00ba 3B68     		ldr	r3, [r7]
 276:Drivers/STM32H7xx_HAL_Driver/Src/stm32h7xx_hal_rcc.c ****   {
 433              		.loc 1 276 10 view .LVU155
 434 00bc 2F4E     		ldr	r6, .L44+4
 270:Drivers/STM32H7xx_HAL_Driver/Src/stm32h7xx_hal_rcc.c **** 
ARM GAS  C:\Users\MadeuxS\AppData\Local\Temp\ccJrku7c.s 			page 36


 435              		.loc 1 270 15 view .LVU156
 436 00be 0546     		mov	r5, r0
 437              	.LVL33:
 273:Drivers/STM32H7xx_HAL_Driver/Src/stm32h7xx_hal_rcc.c **** 
 438              		.loc 1 273 3 is_stmt 1 view .LVU157
 439 00c0 23F08073 		bic	r3, r3, #16777216
 440 00c4 3B60     		str	r3, [r7]
 276:Drivers/STM32H7xx_HAL_Driver/Src/stm32h7xx_hal_rcc.c ****   {
 441              		.loc 1 276 3 view .LVU158
 276:Drivers/STM32H7xx_HAL_Driver/Src/stm32h7xx_hal_rcc.c ****   {
 442              		.loc 1 276 9 is_stmt 0 view .LVU159
 443 00c6 04E0     		b	.L29
 444              	.LVL34:
 445              	.L30:
 278:Drivers/STM32H7xx_HAL_Driver/Src/stm32h7xx_hal_rcc.c ****     {
 446              		.loc 1 278 10 view .LVU160
 447 00c8 FFF7FEFF 		bl	HAL_GetTick
 448              	.LVL35:
 278:Drivers/STM32H7xx_HAL_Driver/Src/stm32h7xx_hal_rcc.c ****     {
 449              		.loc 1 278 24 view .LVU161
 450 00cc 401B     		subs	r0, r0, r5
 278:Drivers/STM32H7xx_HAL_Driver/Src/stm32h7xx_hal_rcc.c ****     {
 451              		.loc 1 278 8 view .LVU162
 452 00ce 0228     		cmp	r0, #2
 453 00d0 CDD8     		bhi	.L25
 454              	.L29:
 278:Drivers/STM32H7xx_HAL_Driver/Src/stm32h7xx_hal_rcc.c ****     {
 455              		.loc 1 278 5 is_stmt 1 view .LVU163
 276:Drivers/STM32H7xx_HAL_Driver/Src/stm32h7xx_hal_rcc.c ****   {
 456              		.loc 1 276 9 view .LVU164
 276:Drivers/STM32H7xx_HAL_Driver/Src/stm32h7xx_hal_rcc.c ****   {
 457              		.loc 1 276 10 is_stmt 0 view .LVU165
 458 00d2 3368     		ldr	r3, [r6]
 276:Drivers/STM32H7xx_HAL_Driver/Src/stm32h7xx_hal_rcc.c ****   {
 459              		.loc 1 276 9 view .LVU166
 460 00d4 9901     		lsls	r1, r3, #6
 461 00d6 F7D4     		bmi	.L30
 285:Drivers/STM32H7xx_HAL_Driver/Src/stm32h7xx_hal_rcc.c **** 
 462              		.loc 1 285 3 is_stmt 1 view .LVU167
 285:Drivers/STM32H7xx_HAL_Driver/Src/stm32h7xx_hal_rcc.c **** 
 463              		.loc 1 285 15 is_stmt 0 view .LVU168
 464 00d8 FFF7FEFF 		bl	HAL_GetTick
 465              	.LVL36:
 288:Drivers/STM32H7xx_HAL_Driver/Src/stm32h7xx_hal_rcc.c **** 
 466              		.loc 1 288 3 view .LVU169
 467 00dc 3368     		ldr	r3, [r6]
 291:Drivers/STM32H7xx_HAL_Driver/Src/stm32h7xx_hal_rcc.c ****   {
 468              		.loc 1 291 10 view .LVU170
 469 00de 274F     		ldr	r7, .L44+4
 285:Drivers/STM32H7xx_HAL_Driver/Src/stm32h7xx_hal_rcc.c **** 
 470              		.loc 1 285 15 view .LVU171
 471 00e0 0546     		mov	r5, r0
 472              	.LVL37:
 288:Drivers/STM32H7xx_HAL_Driver/Src/stm32h7xx_hal_rcc.c **** 
 473              		.loc 1 288 3 is_stmt 1 view .LVU172
 474 00e2 23F08063 		bic	r3, r3, #67108864
 475 00e6 3360     		str	r3, [r6]
ARM GAS  C:\Users\MadeuxS\AppData\Local\Temp\ccJrku7c.s 			page 37


 291:Drivers/STM32H7xx_HAL_Driver/Src/stm32h7xx_hal_rcc.c ****   {
 476              		.loc 1 291 3 view .LVU173
 291:Drivers/STM32H7xx_HAL_Driver/Src/stm32h7xx_hal_rcc.c ****   {
 477              		.loc 1 291 9 is_stmt 0 view .LVU174
 478 00e8 04E0     		b	.L31
 479              	.LVL38:
 480              	.L32:
 293:Drivers/STM32H7xx_HAL_Driver/Src/stm32h7xx_hal_rcc.c ****     {
 481              		.loc 1 293 10 view .LVU175
 482 00ea FFF7FEFF 		bl	HAL_GetTick
 483              	.LVL39:
 293:Drivers/STM32H7xx_HAL_Driver/Src/stm32h7xx_hal_rcc.c ****     {
 484              		.loc 1 293 24 view .LVU176
 485 00ee 401B     		subs	r0, r0, r5
 293:Drivers/STM32H7xx_HAL_Driver/Src/stm32h7xx_hal_rcc.c ****     {
 486              		.loc 1 293 8 view .LVU177
 487 00f0 0228     		cmp	r0, #2
 488 00f2 BCD8     		bhi	.L25
 489              	.L31:
 293:Drivers/STM32H7xx_HAL_Driver/Src/stm32h7xx_hal_rcc.c ****     {
 490              		.loc 1 293 5 is_stmt 1 view .LVU178
 291:Drivers/STM32H7xx_HAL_Driver/Src/stm32h7xx_hal_rcc.c ****   {
 491              		.loc 1 291 9 view .LVU179
 291:Drivers/STM32H7xx_HAL_Driver/Src/stm32h7xx_hal_rcc.c ****   {
 492              		.loc 1 291 10 is_stmt 0 view .LVU180
 493 00f4 3B68     		ldr	r3, [r7]
 291:Drivers/STM32H7xx_HAL_Driver/Src/stm32h7xx_hal_rcc.c ****   {
 494              		.loc 1 291 9 view .LVU181
 495 00f6 1A01     		lsls	r2, r3, #4
 496 00f8 F7D4     		bmi	.L32
 300:Drivers/STM32H7xx_HAL_Driver/Src/stm32h7xx_hal_rcc.c **** 
 497              		.loc 1 300 3 is_stmt 1 view .LVU182
 300:Drivers/STM32H7xx_HAL_Driver/Src/stm32h7xx_hal_rcc.c **** 
 498              		.loc 1 300 15 is_stmt 0 view .LVU183
 499 00fa FFF7FEFF 		bl	HAL_GetTick
 500              	.LVL40:
 303:Drivers/STM32H7xx_HAL_Driver/Src/stm32h7xx_hal_rcc.c **** 
 501              		.loc 1 303 3 view .LVU184
 502 00fe 3B68     		ldr	r3, [r7]
 306:Drivers/STM32H7xx_HAL_Driver/Src/stm32h7xx_hal_rcc.c ****   {
 503              		.loc 1 306 10 view .LVU185
 504 0100 1E4D     		ldr	r5, .L44+4
 505              	.LVL41:
 300:Drivers/STM32H7xx_HAL_Driver/Src/stm32h7xx_hal_rcc.c **** 
 506              		.loc 1 300 15 view .LVU186
 507 0102 0646     		mov	r6, r0
 508              	.LVL42:
 303:Drivers/STM32H7xx_HAL_Driver/Src/stm32h7xx_hal_rcc.c **** 
 509              		.loc 1 303 3 is_stmt 1 view .LVU187
 510 0104 23F08053 		bic	r3, r3, #268435456
 511 0108 3B60     		str	r3, [r7]
 306:Drivers/STM32H7xx_HAL_Driver/Src/stm32h7xx_hal_rcc.c ****   {
 512              		.loc 1 306 3 view .LVU188
 306:Drivers/STM32H7xx_HAL_Driver/Src/stm32h7xx_hal_rcc.c ****   {
 513              		.loc 1 306 9 is_stmt 0 view .LVU189
 514 010a 04E0     		b	.L33
 515              	.LVL43:
ARM GAS  C:\Users\MadeuxS\AppData\Local\Temp\ccJrku7c.s 			page 38


 516              	.L34:
 308:Drivers/STM32H7xx_HAL_Driver/Src/stm32h7xx_hal_rcc.c ****     {
 517              		.loc 1 308 10 view .LVU190
 518 010c FFF7FEFF 		bl	HAL_GetTick
 519              	.LVL44:
 308:Drivers/STM32H7xx_HAL_Driver/Src/stm32h7xx_hal_rcc.c ****     {
 520              		.loc 1 308 24 view .LVU191
 521 0110 801B     		subs	r0, r0, r6
 308:Drivers/STM32H7xx_HAL_Driver/Src/stm32h7xx_hal_rcc.c ****     {
 522              		.loc 1 308 8 view .LVU192
 523 0112 0228     		cmp	r0, #2
 524 0114 ABD8     		bhi	.L25
 525              	.L33:
 308:Drivers/STM32H7xx_HAL_Driver/Src/stm32h7xx_hal_rcc.c ****     {
 526              		.loc 1 308 5 is_stmt 1 view .LVU193
 306:Drivers/STM32H7xx_HAL_Driver/Src/stm32h7xx_hal_rcc.c ****   {
 527              		.loc 1 306 9 view .LVU194
 306:Drivers/STM32H7xx_HAL_Driver/Src/stm32h7xx_hal_rcc.c ****   {
 528              		.loc 1 306 10 is_stmt 0 view .LVU195
 529 0116 2B68     		ldr	r3, [r5]
 306:Drivers/STM32H7xx_HAL_Driver/Src/stm32h7xx_hal_rcc.c ****   {
 530              		.loc 1 306 9 view .LVU196
 531 0118 13F00053 		ands	r3, r3, #536870912
 532 011c F6D1     		bne	.L34
 316:Drivers/STM32H7xx_HAL_Driver/Src/stm32h7xx_hal_rcc.c **** 
 533              		.loc 1 316 3 is_stmt 1 view .LVU197
 335:Drivers/STM32H7xx_HAL_Driver/Src/stm32h7xx_hal_rcc.c **** 
 534              		.loc 1 335 17 is_stmt 0 view .LVU198
 535 011e 1D49     		ldr	r1, .L44+28
 316:Drivers/STM32H7xx_HAL_Driver/Src/stm32h7xx_hal_rcc.c **** 
 536              		.loc 1 316 3 view .LVU199
 537 0120 AB61     		str	r3, [r5, #24]
 319:Drivers/STM32H7xx_HAL_Driver/Src/stm32h7xx_hal_rcc.c **** 
 538              		.loc 1 319 3 is_stmt 1 view .LVU200
 341:Drivers/STM32H7xx_HAL_Driver/Src/stm32h7xx_hal_rcc.c **** 
 539              		.loc 1 341 3 is_stmt 0 view .LVU201
 540 0122 1D4A     		ldr	r2, .L44+32
 319:Drivers/STM32H7xx_HAL_Driver/Src/stm32h7xx_hal_rcc.c **** 
 541              		.loc 1 319 3 view .LVU202
 542 0124 EB61     		str	r3, [r5, #28]
 322:Drivers/STM32H7xx_HAL_Driver/Src/stm32h7xx_hal_rcc.c **** #else
 543              		.loc 1 322 3 is_stmt 1 view .LVU203
 544 0126 2B62     		str	r3, [r5, #32]
 335:Drivers/STM32H7xx_HAL_Driver/Src/stm32h7xx_hal_rcc.c **** 
 545              		.loc 1 335 3 view .LVU204
 335:Drivers/STM32H7xx_HAL_Driver/Src/stm32h7xx_hal_rcc.c **** 
 546              		.loc 1 335 17 is_stmt 0 view .LVU205
 547 0128 A962     		str	r1, [r5, #40]
 338:Drivers/STM32H7xx_HAL_Driver/Src/stm32h7xx_hal_rcc.c **** 
 548              		.loc 1 338 3 is_stmt 1 view .LVU206
 549 012a 1C49     		ldr	r1, .L44+36
 550 012c E962     		str	r1, [r5, #44]
 341:Drivers/STM32H7xx_HAL_Driver/Src/stm32h7xx_hal_rcc.c **** 
 551              		.loc 1 341 3 view .LVU207
 370:Drivers/STM32H7xx_HAL_Driver/Src/stm32h7xx_hal_rcc.c **** 
 552              		.loc 1 370 3 is_stmt 0 view .LVU208
 553 012e 4FF0FF31 		mov	r1, #-1
ARM GAS  C:\Users\MadeuxS\AppData\Local\Temp\ccJrku7c.s 			page 39


 341:Drivers/STM32H7xx_HAL_Driver/Src/stm32h7xx_hal_rcc.c **** 
 554              		.loc 1 341 3 view .LVU209
 555 0132 2A63     		str	r2, [r5, #48]
 344:Drivers/STM32H7xx_HAL_Driver/Src/stm32h7xx_hal_rcc.c **** 
 556              		.loc 1 344 3 is_stmt 1 view .LVU210
 557 0134 6B63     		str	r3, [r5, #52]
 347:Drivers/STM32H7xx_HAL_Driver/Src/stm32h7xx_hal_rcc.c **** 
 558              		.loc 1 347 3 view .LVU211
 559 0136 AA63     		str	r2, [r5, #56]
 350:Drivers/STM32H7xx_HAL_Driver/Src/stm32h7xx_hal_rcc.c **** 
 560              		.loc 1 350 3 view .LVU212
 561 0138 EB63     		str	r3, [r5, #60]
 353:Drivers/STM32H7xx_HAL_Driver/Src/stm32h7xx_hal_rcc.c **** 
 562              		.loc 1 353 3 view .LVU213
 563 013a 2A64     		str	r2, [r5, #64]
 356:Drivers/STM32H7xx_HAL_Driver/Src/stm32h7xx_hal_rcc.c **** 
 564              		.loc 1 356 3 view .LVU214
 565 013c 6B64     		str	r3, [r5, #68]
 364:Drivers/STM32H7xx_HAL_Driver/Src/stm32h7xx_hal_rcc.c **** 
 566              		.loc 1 364 3 view .LVU215
 567 013e 2A68     		ldr	r2, [r5]
 568 0140 22F48022 		bic	r2, r2, #262144
 569 0144 2A60     		str	r2, [r5]
 367:Drivers/STM32H7xx_HAL_Driver/Src/stm32h7xx_hal_rcc.c **** 
 570              		.loc 1 367 3 view .LVU216
 571 0146 2B66     		str	r3, [r5, #96]
 370:Drivers/STM32H7xx_HAL_Driver/Src/stm32h7xx_hal_rcc.c **** 
 572              		.loc 1 370 3 view .LVU217
 573 0148 A966     		str	r1, [r5, #104]
 373:Drivers/STM32H7xx_HAL_Driver/Src/stm32h7xx_hal_rcc.c **** 
 574              		.loc 1 373 3 view .LVU218
 575 014a D5F8D030 		ldr	r3, [r5, #208]
 376:Drivers/STM32H7xx_HAL_Driver/Src/stm32h7xx_hal_rcc.c ****   {
 576              		.loc 1 376 31 is_stmt 0 view .LVU219
 577 014e 0A4A     		ldr	r2, .L44
 373:Drivers/STM32H7xx_HAL_Driver/Src/stm32h7xx_hal_rcc.c **** 
 578              		.loc 1 373 3 view .LVU220
 579 0150 43F48033 		orr	r3, r3, #65536
 580 0154 C5F8D030 		str	r3, [r5, #208]
 376:Drivers/STM32H7xx_HAL_Driver/Src/stm32h7xx_hal_rcc.c ****   {
 581              		.loc 1 376 3 is_stmt 1 view .LVU221
 376:Drivers/STM32H7xx_HAL_Driver/Src/stm32h7xx_hal_rcc.c ****   {
 582              		.loc 1 376 31 is_stmt 0 view .LVU222
 583 0158 1368     		ldr	r3, [r2]
 376:Drivers/STM32H7xx_HAL_Driver/Src/stm32h7xx_hal_rcc.c ****   {
 584              		.loc 1 376 5 view .LVU223
 585 015a 1B07     		lsls	r3, r3, #28
 586 015c 85D5     		bpl	.L21
 379:Drivers/STM32H7xx_HAL_Driver/Src/stm32h7xx_hal_rcc.c **** 
 587              		.loc 1 379 5 is_stmt 1 view .LVU224
 588 015e 1368     		ldr	r3, [r2]
 589 0160 23F00F03 		bic	r3, r3, #15
 590 0164 43F00703 		orr	r3, r3, #7
 591 0168 1360     		str	r3, [r2]
 383:Drivers/STM32H7xx_HAL_Driver/Src/stm32h7xx_hal_rcc.c ****     {
 592              		.loc 1 383 5 view .LVU225
 383:Drivers/STM32H7xx_HAL_Driver/Src/stm32h7xx_hal_rcc.c ****     {
ARM GAS  C:\Users\MadeuxS\AppData\Local\Temp\ccJrku7c.s 			page 40


 593              		.loc 1 383 8 is_stmt 0 view .LVU226
 594 016a 1468     		ldr	r4, [r2]
 595 016c 04F00F04 		and	r4, r4, #15
 204:Drivers/STM32H7xx_HAL_Driver/Src/stm32h7xx_hal_rcc.c ****     }
 596              		.loc 1 204 14 view .LVU227
 597 0170 073C     		subs	r4, r4, #7
 598 0172 18BF     		it	ne
 599 0174 0124     		movne	r4, #1
 600 0176 78E7     		b	.L21
 601              	.L45:
 602              		.align	2
 603              	.L44:
 604 0178 00200052 		.word	1375739904
 605 017c 00440258 		.word	1476543488
 606 0180 00000000 		.word	uwTickPrio
 607 0184 0090D003 		.word	64000000
 608 0188 00000000 		.word	SystemCoreClock
 609 018c 00000000 		.word	SystemD2Clock
 610 0190 45EDF6FF 		.word	-594619
 611 0194 00020202 		.word	33686016
 612 0198 80020101 		.word	16843392
 613 019c 0000FF01 		.word	33488896
 614              		.cfi_endproc
 615              	.LFE144:
 617              		.section	.text.HAL_RCC_OscConfig,"ax",%progbits
 618              		.align	1
 619              		.p2align 2,,3
 620              		.weak	HAL_RCC_OscConfig
 621              		.syntax unified
 622              		.thumb
 623              		.thumb_func
 624              		.fpu fpv5-d16
 626              	HAL_RCC_OscConfig:
 627              	.LVL45:
 628              	.LFB145:
 408:Drivers/STM32H7xx_HAL_Driver/Src/stm32h7xx_hal_rcc.c ****   uint32_t tickstart;
 629              		.loc 1 408 1 is_stmt 1 view -0
 630              		.cfi_startproc
 631              		@ args = 0, pretend = 0, frame = 0
 632              		@ frame_needed = 0, uses_anonymous_args = 0
 409:Drivers/STM32H7xx_HAL_Driver/Src/stm32h7xx_hal_rcc.c ****   uint32_t temp1_pllckcfg, temp2_pllckcfg;
 633              		.loc 1 409 3 view .LVU229
 410:Drivers/STM32H7xx_HAL_Driver/Src/stm32h7xx_hal_rcc.c **** 
 634              		.loc 1 410 3 view .LVU230
 413:Drivers/STM32H7xx_HAL_Driver/Src/stm32h7xx_hal_rcc.c ****   {
 635              		.loc 1 413 3 view .LVU231
 413:Drivers/STM32H7xx_HAL_Driver/Src/stm32h7xx_hal_rcc.c ****   {
 636              		.loc 1 413 5 is_stmt 0 view .LVU232
 637 0000 0028     		cmp	r0, #0
 638 0002 00F0E781 		beq	.L176
 419:Drivers/STM32H7xx_HAL_Driver/Src/stm32h7xx_hal_rcc.c ****   /*------------------------------- HSE Configuration ------------------------*/
 639              		.loc 1 419 3 is_stmt 1 view .LVU233
 421:Drivers/STM32H7xx_HAL_Driver/Src/stm32h7xx_hal_rcc.c ****   {
 640              		.loc 1 421 3 view .LVU234
 408:Drivers/STM32H7xx_HAL_Driver/Src/stm32h7xx_hal_rcc.c ****   uint32_t tickstart;
 641              		.loc 1 408 1 is_stmt 0 view .LVU235
 642 0006 F8B5     		push	{r3, r4, r5, r6, r7, lr}
ARM GAS  C:\Users\MadeuxS\AppData\Local\Temp\ccJrku7c.s 			page 41


 643              	.LCFI4:
 644              		.cfi_def_cfa_offset 24
 645              		.cfi_offset 3, -24
 646              		.cfi_offset 4, -20
 647              		.cfi_offset 5, -16
 648              		.cfi_offset 6, -12
 649              		.cfi_offset 7, -8
 650              		.cfi_offset 14, -4
 421:Drivers/STM32H7xx_HAL_Driver/Src/stm32h7xx_hal_rcc.c ****   {
 651              		.loc 1 421 25 view .LVU236
 652 0008 0368     		ldr	r3, [r0]
 653 000a 0446     		mov	r4, r0
 421:Drivers/STM32H7xx_HAL_Driver/Src/stm32h7xx_hal_rcc.c ****   {
 654              		.loc 1 421 5 view .LVU237
 655 000c D907     		lsls	r1, r3, #31
 656 000e 2ED5     		bpl	.L49
 657              	.LBB2:
 424:Drivers/STM32H7xx_HAL_Driver/Src/stm32h7xx_hal_rcc.c **** 
 658              		.loc 1 424 5 is_stmt 1 view .LVU238
 426:Drivers/STM32H7xx_HAL_Driver/Src/stm32h7xx_hal_rcc.c ****     const uint32_t temp_pllckselr = RCC->PLLCKSELR;
 659              		.loc 1 426 5 view .LVU239
 426:Drivers/STM32H7xx_HAL_Driver/Src/stm32h7xx_hal_rcc.c ****     const uint32_t temp_pllckselr = RCC->PLLCKSELR;
 660              		.loc 1 426 37 is_stmt 0 view .LVU240
 661 0010 9F49     		ldr	r1, .L191
 662 0012 0A69     		ldr	r2, [r1, #16]
 427:Drivers/STM32H7xx_HAL_Driver/Src/stm32h7xx_hal_rcc.c ****     /* When the HSE is used as system clock or clock source for PLL in these cases HSE will not dis
 663              		.loc 1 427 20 view .LVU241
 664 0014 896A     		ldr	r1, [r1, #40]
 426:Drivers/STM32H7xx_HAL_Driver/Src/stm32h7xx_hal_rcc.c ****     const uint32_t temp_pllckselr = RCC->PLLCKSELR;
 665              		.loc 1 426 20 view .LVU242
 666 0016 02F03802 		and	r2, r2, #56
 667              	.LVL46:
 427:Drivers/STM32H7xx_HAL_Driver/Src/stm32h7xx_hal_rcc.c ****     /* When the HSE is used as system clock or clock source for PLL in these cases HSE will not dis
 668              		.loc 1 427 5 is_stmt 1 view .LVU243
 429:Drivers/STM32H7xx_HAL_Driver/Src/stm32h7xx_hal_rcc.c ****     {
 669              		.loc 1 429 5 view .LVU244
 429:Drivers/STM32H7xx_HAL_Driver/Src/stm32h7xx_hal_rcc.c ****     {
 670              		.loc 1 429 7 is_stmt 0 view .LVU245
 671 001a 102A     		cmp	r2, #16
 672 001c 00F02581 		beq	.L50
 429:Drivers/STM32H7xx_HAL_Driver/Src/stm32h7xx_hal_rcc.c ****     {
 673              		.loc 1 429 45 discriminator 1 view .LVU246
 674 0020 182A     		cmp	r2, #24
 675 0022 00F01D81 		beq	.L177
 676              	.LVL47:
 677              	.L51:
 439:Drivers/STM32H7xx_HAL_Driver/Src/stm32h7xx_hal_rcc.c **** 
 678              		.loc 1 439 7 is_stmt 1 view .LVU247
 439:Drivers/STM32H7xx_HAL_Driver/Src/stm32h7xx_hal_rcc.c **** 
 679              		.loc 1 439 7 view .LVU248
 680 0026 6368     		ldr	r3, [r4, #4]
 681 0028 B3F5803F 		cmp	r3, #65536
 682 002c 00F05F81 		beq	.L178
 439:Drivers/STM32H7xx_HAL_Driver/Src/stm32h7xx_hal_rcc.c **** 
 683              		.loc 1 439 7 discriminator 2 view .LVU249
 684 0030 002B     		cmp	r3, #0
 685 0032 00F07781 		beq	.L179
ARM GAS  C:\Users\MadeuxS\AppData\Local\Temp\ccJrku7c.s 			page 42


 439:Drivers/STM32H7xx_HAL_Driver/Src/stm32h7xx_hal_rcc.c **** 
 686              		.loc 1 439 7 discriminator 5 view .LVU250
 687 0036 B3F5A02F 		cmp	r3, #327680
 688 003a 954B     		ldr	r3, .L191
 689 003c 1A68     		ldr	r2, [r3]
 690              	.LVL48:
 439:Drivers/STM32H7xx_HAL_Driver/Src/stm32h7xx_hal_rcc.c **** 
 691              		.loc 1 439 7 is_stmt 0 discriminator 5 view .LVU251
 692 003e 00F06882 		beq	.L180
 439:Drivers/STM32H7xx_HAL_Driver/Src/stm32h7xx_hal_rcc.c **** 
 693              		.loc 1 439 7 is_stmt 1 discriminator 8 view .LVU252
 694 0042 22F48032 		bic	r2, r2, #65536
 695 0046 1A60     		str	r2, [r3]
 439:Drivers/STM32H7xx_HAL_Driver/Src/stm32h7xx_hal_rcc.c **** 
 696              		.loc 1 439 7 discriminator 8 view .LVU253
 697 0048 1A68     		ldr	r2, [r3]
 698 004a 22F48022 		bic	r2, r2, #262144
 699 004e 1A60     		str	r2, [r3]
 700              	.L54:
 445:Drivers/STM32H7xx_HAL_Driver/Src/stm32h7xx_hal_rcc.c **** 
 701              		.loc 1 445 9 view .LVU254
 445:Drivers/STM32H7xx_HAL_Driver/Src/stm32h7xx_hal_rcc.c **** 
 702              		.loc 1 445 21 is_stmt 0 view .LVU255
 703 0050 FFF7FEFF 		bl	HAL_GetTick
 704              	.LVL49:
 448:Drivers/STM32H7xx_HAL_Driver/Src/stm32h7xx_hal_rcc.c ****         {
 705              		.loc 1 448 15 view .LVU256
 706 0054 8E4E     		ldr	r6, .L191
 445:Drivers/STM32H7xx_HAL_Driver/Src/stm32h7xx_hal_rcc.c **** 
 707              		.loc 1 445 21 view .LVU257
 708 0056 0546     		mov	r5, r0
 709              	.LVL50:
 448:Drivers/STM32H7xx_HAL_Driver/Src/stm32h7xx_hal_rcc.c ****         {
 710              		.loc 1 448 9 is_stmt 1 view .LVU258
 448:Drivers/STM32H7xx_HAL_Driver/Src/stm32h7xx_hal_rcc.c ****         {
 711              		.loc 1 448 14 is_stmt 0 view .LVU259
 712 0058 05E0     		b	.L59
 713              	.LVL51:
 714              	.L60:
 450:Drivers/STM32H7xx_HAL_Driver/Src/stm32h7xx_hal_rcc.c ****           {
 715              		.loc 1 450 26 view .LVU260
 716 005a FFF7FEFF 		bl	HAL_GetTick
 717              	.LVL52:
 450:Drivers/STM32H7xx_HAL_Driver/Src/stm32h7xx_hal_rcc.c ****           {
 718              		.loc 1 450 40 view .LVU261
 719 005e 401B     		subs	r0, r0, r5
 450:Drivers/STM32H7xx_HAL_Driver/Src/stm32h7xx_hal_rcc.c ****           {
 720              		.loc 1 450 13 view .LVU262
 721 0060 6428     		cmp	r0, #100
 722 0062 00F25D81 		bhi	.L61
 723              	.L59:
 450:Drivers/STM32H7xx_HAL_Driver/Src/stm32h7xx_hal_rcc.c ****           {
 724              		.loc 1 450 11 is_stmt 1 view .LVU263
 448:Drivers/STM32H7xx_HAL_Driver/Src/stm32h7xx_hal_rcc.c ****         {
 725              		.loc 1 448 14 view .LVU264
 448:Drivers/STM32H7xx_HAL_Driver/Src/stm32h7xx_hal_rcc.c ****         {
 726              		.loc 1 448 15 is_stmt 0 view .LVU265
ARM GAS  C:\Users\MadeuxS\AppData\Local\Temp\ccJrku7c.s 			page 43


 727 0066 3368     		ldr	r3, [r6]
 448:Drivers/STM32H7xx_HAL_Driver/Src/stm32h7xx_hal_rcc.c ****         {
 728              		.loc 1 448 14 view .LVU266
 729 0068 9F03     		lsls	r7, r3, #14
 730 006a F6D5     		bpl	.L60
 731              	.LVL53:
 732              	.L173:
 448:Drivers/STM32H7xx_HAL_Driver/Src/stm32h7xx_hal_rcc.c ****         {
 733              		.loc 1 448 14 view .LVU267
 734              	.LBE2:
 473:Drivers/STM32H7xx_HAL_Driver/Src/stm32h7xx_hal_rcc.c ****   {
 735              		.loc 1 473 25 view .LVU268
 736 006c 2368     		ldr	r3, [r4]
 737              	.L49:
 473:Drivers/STM32H7xx_HAL_Driver/Src/stm32h7xx_hal_rcc.c ****   {
 738              		.loc 1 473 3 is_stmt 1 view .LVU269
 473:Drivers/STM32H7xx_HAL_Driver/Src/stm32h7xx_hal_rcc.c ****   {
 739              		.loc 1 473 5 is_stmt 0 view .LVU270
 740 006e 9907     		lsls	r1, r3, #30
 741 0070 21D5     		bpl	.L63
 742              	.LBB3:
 476:Drivers/STM32H7xx_HAL_Driver/Src/stm32h7xx_hal_rcc.c ****     assert_param(IS_RCC_HSICALIBRATION_VALUE(RCC_OscInitStruct->HSICalibrationValue));
 743              		.loc 1 476 5 is_stmt 1 view .LVU271
 477:Drivers/STM32H7xx_HAL_Driver/Src/stm32h7xx_hal_rcc.c **** 
 744              		.loc 1 477 5 view .LVU272
 480:Drivers/STM32H7xx_HAL_Driver/Src/stm32h7xx_hal_rcc.c ****     const uint32_t temp_pllckselr = RCC->PLLCKSELR;
 745              		.loc 1 480 5 view .LVU273
 480:Drivers/STM32H7xx_HAL_Driver/Src/stm32h7xx_hal_rcc.c ****     const uint32_t temp_pllckselr = RCC->PLLCKSELR;
 746              		.loc 1 480 37 is_stmt 0 view .LVU274
 747 0072 874A     		ldr	r2, .L191
 748 0074 1369     		ldr	r3, [r2, #16]
 749              	.LVL54:
 481:Drivers/STM32H7xx_HAL_Driver/Src/stm32h7xx_hal_rcc.c ****     if((temp_sysclksrc == RCC_CFGR_SWS_HSI) || ((temp_sysclksrc == RCC_CFGR_SWS_PLL1) && ((temp_pll
 750              		.loc 1 481 5 is_stmt 1 view .LVU275
 481:Drivers/STM32H7xx_HAL_Driver/Src/stm32h7xx_hal_rcc.c ****     if((temp_sysclksrc == RCC_CFGR_SWS_HSI) || ((temp_sysclksrc == RCC_CFGR_SWS_PLL1) && ((temp_pll
 751              		.loc 1 481 20 is_stmt 0 view .LVU276
 752 0076 926A     		ldr	r2, [r2, #40]
 753              	.LVL55:
 482:Drivers/STM32H7xx_HAL_Driver/Src/stm32h7xx_hal_rcc.c ****     {
 754              		.loc 1 482 5 is_stmt 1 view .LVU277
 482:Drivers/STM32H7xx_HAL_Driver/Src/stm32h7xx_hal_rcc.c ****     {
 755              		.loc 1 482 7 is_stmt 0 view .LVU278
 756 0078 13F03803 		ands	r3, r3, #56
 757              	.LVL56:
 482:Drivers/STM32H7xx_HAL_Driver/Src/stm32h7xx_hal_rcc.c ****     {
 758              		.loc 1 482 7 view .LVU279
 759 007c 40F0A480 		bne	.L181
 760              	.LVL57:
 761              	.L64:
 485:Drivers/STM32H7xx_HAL_Driver/Src/stm32h7xx_hal_rcc.c ****       {
 762              		.loc 1 485 7 is_stmt 1 view .LVU280
 485:Drivers/STM32H7xx_HAL_Driver/Src/stm32h7xx_hal_rcc.c ****       {
 763              		.loc 1 485 11 is_stmt 0 view .LVU281
 764 0080 834B     		ldr	r3, .L191
 765              	.LVL58:
 485:Drivers/STM32H7xx_HAL_Driver/Src/stm32h7xx_hal_rcc.c ****       {
 766              		.loc 1 485 11 view .LVU282
ARM GAS  C:\Users\MadeuxS\AppData\Local\Temp\ccJrku7c.s 			page 44


 767 0082 1B68     		ldr	r3, [r3]
 485:Drivers/STM32H7xx_HAL_Driver/Src/stm32h7xx_hal_rcc.c ****       {
 768              		.loc 1 485 9 view .LVU283
 769 0084 5B07     		lsls	r3, r3, #29
 770 0086 03D5     		bpl	.L66
 485:Drivers/STM32H7xx_HAL_Driver/Src/stm32h7xx_hal_rcc.c ****       {
 771              		.loc 1 485 54 discriminator 1 view .LVU284
 772 0088 E368     		ldr	r3, [r4, #12]
 773 008a 002B     		cmp	r3, #0
 774 008c 00F0E680 		beq	.L129
 775              	.L66:
 493:Drivers/STM32H7xx_HAL_Driver/Src/stm32h7xx_hal_rcc.c ****       }
 776              		.loc 1 493 9 is_stmt 1 view .LVU285
 493:Drivers/STM32H7xx_HAL_Driver/Src/stm32h7xx_hal_rcc.c ****       }
 777              		.loc 1 493 9 view .LVU286
 778 0090 FFF7FEFF 		bl	HAL_GetREVID
 779              	.LVL59:
 780 0094 41F20303 		movw	r3, #4099
 781 0098 9842     		cmp	r0, r3
 782 009a 00F27C81 		bhi	.L67
 493:Drivers/STM32H7xx_HAL_Driver/Src/stm32h7xx_hal_rcc.c ****       }
 783              		.loc 1 493 9 discriminator 1 view .LVU287
 784 009e 2269     		ldr	r2, [r4, #16]
 785 00a0 402A     		cmp	r2, #64
 786 00a2 00F03E82 		beq	.L182
 493:Drivers/STM32H7xx_HAL_Driver/Src/stm32h7xx_hal_rcc.c ****       }
 787              		.loc 1 493 9 discriminator 4 view .LVU288
 788 00a6 7A49     		ldr	r1, .L191
 789 00a8 4B68     		ldr	r3, [r1, #4]
 790 00aa 23F47C33 		bic	r3, r3, #258048
 791 00ae 43EA0233 		orr	r3, r3, r2, lsl #12
 792 00b2 4B60     		str	r3, [r1, #4]
 793              	.LBE3:
 540:Drivers/STM32H7xx_HAL_Driver/Src/stm32h7xx_hal_rcc.c ****   {
 794              		.loc 1 540 25 is_stmt 0 discriminator 4 view .LVU289
 795 00b4 2368     		ldr	r3, [r4]
 796              	.L63:
 540:Drivers/STM32H7xx_HAL_Driver/Src/stm32h7xx_hal_rcc.c ****   {
 797              		.loc 1 540 3 is_stmt 1 view .LVU290
 540:Drivers/STM32H7xx_HAL_Driver/Src/stm32h7xx_hal_rcc.c ****   {
 798              		.loc 1 540 5 is_stmt 0 view .LVU291
 799 00b6 D906     		lsls	r1, r3, #27
 800 00b8 53D4     		bmi	.L183
 801              	.L76:
 606:Drivers/STM32H7xx_HAL_Driver/Src/stm32h7xx_hal_rcc.c ****   {
 802              		.loc 1 606 3 is_stmt 1 view .LVU292
 606:Drivers/STM32H7xx_HAL_Driver/Src/stm32h7xx_hal_rcc.c ****   {
 803              		.loc 1 606 5 is_stmt 0 view .LVU293
 804 00ba 1D07     		lsls	r5, r3, #28
 805 00bc 16D5     		bpl	.L89
 609:Drivers/STM32H7xx_HAL_Driver/Src/stm32h7xx_hal_rcc.c **** 
 806              		.loc 1 609 5 is_stmt 1 view .LVU294
 612:Drivers/STM32H7xx_HAL_Driver/Src/stm32h7xx_hal_rcc.c ****     {
 807              		.loc 1 612 5 view .LVU295
 612:Drivers/STM32H7xx_HAL_Driver/Src/stm32h7xx_hal_rcc.c ****     {
 808              		.loc 1 612 7 is_stmt 0 view .LVU296
 809 00be 6369     		ldr	r3, [r4, #20]
ARM GAS  C:\Users\MadeuxS\AppData\Local\Temp\ccJrku7c.s 			page 45


 615:Drivers/STM32H7xx_HAL_Driver/Src/stm32h7xx_hal_rcc.c **** 
 810              		.loc 1 615 7 view .LVU297
 811 00c0 734D     		ldr	r5, .L191
 612:Drivers/STM32H7xx_HAL_Driver/Src/stm32h7xx_hal_rcc.c ****     {
 812              		.loc 1 612 7 view .LVU298
 813 00c2 002B     		cmp	r3, #0
 814 00c4 00F0AE80 		beq	.L90
 615:Drivers/STM32H7xx_HAL_Driver/Src/stm32h7xx_hal_rcc.c **** 
 815              		.loc 1 615 7 is_stmt 1 view .LVU299
 816 00c8 6B6F     		ldr	r3, [r5, #116]
 817 00ca 43F00103 		orr	r3, r3, #1
 818 00ce 6B67     		str	r3, [r5, #116]
 618:Drivers/STM32H7xx_HAL_Driver/Src/stm32h7xx_hal_rcc.c **** 
 819              		.loc 1 618 7 view .LVU300
 618:Drivers/STM32H7xx_HAL_Driver/Src/stm32h7xx_hal_rcc.c **** 
 820              		.loc 1 618 19 is_stmt 0 view .LVU301
 821 00d0 FFF7FEFF 		bl	HAL_GetTick
 822              	.LVL60:
 823 00d4 0646     		mov	r6, r0
 824              	.LVL61:
 621:Drivers/STM32H7xx_HAL_Driver/Src/stm32h7xx_hal_rcc.c ****       {
 825              		.loc 1 621 7 is_stmt 1 view .LVU302
 621:Drivers/STM32H7xx_HAL_Driver/Src/stm32h7xx_hal_rcc.c ****       {
 826              		.loc 1 621 12 is_stmt 0 view .LVU303
 827 00d6 05E0     		b	.L91
 828              	.LVL62:
 829              	.L92:
 623:Drivers/STM32H7xx_HAL_Driver/Src/stm32h7xx_hal_rcc.c ****         {
 830              		.loc 1 623 13 view .LVU304
 831 00d8 FFF7FEFF 		bl	HAL_GetTick
 832              	.LVL63:
 623:Drivers/STM32H7xx_HAL_Driver/Src/stm32h7xx_hal_rcc.c ****         {
 833              		.loc 1 623 27 view .LVU305
 834 00dc 801B     		subs	r0, r0, r6
 623:Drivers/STM32H7xx_HAL_Driver/Src/stm32h7xx_hal_rcc.c ****         {
 835              		.loc 1 623 11 view .LVU306
 836 00de 0228     		cmp	r0, #2
 837 00e0 00F21E81 		bhi	.L61
 838              	.L91:
 623:Drivers/STM32H7xx_HAL_Driver/Src/stm32h7xx_hal_rcc.c ****         {
 839              		.loc 1 623 9 is_stmt 1 view .LVU307
 621:Drivers/STM32H7xx_HAL_Driver/Src/stm32h7xx_hal_rcc.c ****       {
 840              		.loc 1 621 12 view .LVU308
 621:Drivers/STM32H7xx_HAL_Driver/Src/stm32h7xx_hal_rcc.c ****       {
 841              		.loc 1 621 13 is_stmt 0 view .LVU309
 842 00e4 6B6F     		ldr	r3, [r5, #116]
 621:Drivers/STM32H7xx_HAL_Driver/Src/stm32h7xx_hal_rcc.c ****       {
 843              		.loc 1 621 12 view .LVU310
 844 00e6 9807     		lsls	r0, r3, #30
 845 00e8 F6D5     		bpl	.L92
 846              	.L174:
 649:Drivers/STM32H7xx_HAL_Driver/Src/stm32h7xx_hal_rcc.c ****   {
 847              		.loc 1 649 25 view .LVU311
 848 00ea 2368     		ldr	r3, [r4]
 849              	.LVL64:
 850              	.L89:
 649:Drivers/STM32H7xx_HAL_Driver/Src/stm32h7xx_hal_rcc.c ****   {
ARM GAS  C:\Users\MadeuxS\AppData\Local\Temp\ccJrku7c.s 			page 46


 851              		.loc 1 649 3 is_stmt 1 view .LVU312
 649:Drivers/STM32H7xx_HAL_Driver/Src/stm32h7xx_hal_rcc.c ****   {
 852              		.loc 1 649 5 is_stmt 0 view .LVU313
 853 00ec 9A06     		lsls	r2, r3, #26
 854 00ee 16D5     		bpl	.L95
 652:Drivers/STM32H7xx_HAL_Driver/Src/stm32h7xx_hal_rcc.c **** 
 855              		.loc 1 652 5 is_stmt 1 view .LVU314
 655:Drivers/STM32H7xx_HAL_Driver/Src/stm32h7xx_hal_rcc.c ****     {
 856              		.loc 1 655 5 view .LVU315
 655:Drivers/STM32H7xx_HAL_Driver/Src/stm32h7xx_hal_rcc.c ****     {
 857              		.loc 1 655 7 is_stmt 0 view .LVU316
 858 00f0 A369     		ldr	r3, [r4, #24]
 658:Drivers/STM32H7xx_HAL_Driver/Src/stm32h7xx_hal_rcc.c **** 
 859              		.loc 1 658 7 view .LVU317
 860 00f2 674D     		ldr	r5, .L191
 655:Drivers/STM32H7xx_HAL_Driver/Src/stm32h7xx_hal_rcc.c ****     {
 861              		.loc 1 655 7 view .LVU318
 862 00f4 002B     		cmp	r3, #0
 863 00f6 00F02B81 		beq	.L96
 658:Drivers/STM32H7xx_HAL_Driver/Src/stm32h7xx_hal_rcc.c **** 
 864              		.loc 1 658 7 is_stmt 1 view .LVU319
 865 00fa 2B68     		ldr	r3, [r5]
 866 00fc 43F48053 		orr	r3, r3, #4096
 867 0100 2B60     		str	r3, [r5]
 658:Drivers/STM32H7xx_HAL_Driver/Src/stm32h7xx_hal_rcc.c **** 
 868              		.loc 1 658 31 view .LVU320
 661:Drivers/STM32H7xx_HAL_Driver/Src/stm32h7xx_hal_rcc.c **** 
 869              		.loc 1 661 7 view .LVU321
 661:Drivers/STM32H7xx_HAL_Driver/Src/stm32h7xx_hal_rcc.c **** 
 870              		.loc 1 661 19 is_stmt 0 view .LVU322
 871 0102 FFF7FEFF 		bl	HAL_GetTick
 872              	.LVL65:
 873 0106 0646     		mov	r6, r0
 874              	.LVL66:
 664:Drivers/STM32H7xx_HAL_Driver/Src/stm32h7xx_hal_rcc.c ****       {
 875              		.loc 1 664 7 is_stmt 1 view .LVU323
 664:Drivers/STM32H7xx_HAL_Driver/Src/stm32h7xx_hal_rcc.c ****       {
 876              		.loc 1 664 12 is_stmt 0 view .LVU324
 877 0108 05E0     		b	.L97
 878              	.LVL67:
 879              	.L98:
 666:Drivers/STM32H7xx_HAL_Driver/Src/stm32h7xx_hal_rcc.c ****         {
 880              		.loc 1 666 13 view .LVU325
 881 010a FFF7FEFF 		bl	HAL_GetTick
 882              	.LVL68:
 666:Drivers/STM32H7xx_HAL_Driver/Src/stm32h7xx_hal_rcc.c ****         {
 883              		.loc 1 666 27 view .LVU326
 884 010e 801B     		subs	r0, r0, r6
 666:Drivers/STM32H7xx_HAL_Driver/Src/stm32h7xx_hal_rcc.c ****         {
 885              		.loc 1 666 11 view .LVU327
 886 0110 0228     		cmp	r0, #2
 887 0112 00F20581 		bhi	.L61
 888              	.L97:
 666:Drivers/STM32H7xx_HAL_Driver/Src/stm32h7xx_hal_rcc.c ****         {
 889              		.loc 1 666 9 is_stmt 1 view .LVU328
 664:Drivers/STM32H7xx_HAL_Driver/Src/stm32h7xx_hal_rcc.c ****       {
 890              		.loc 1 664 12 view .LVU329
ARM GAS  C:\Users\MadeuxS\AppData\Local\Temp\ccJrku7c.s 			page 47


 664:Drivers/STM32H7xx_HAL_Driver/Src/stm32h7xx_hal_rcc.c ****       {
 891              		.loc 1 664 13 is_stmt 0 view .LVU330
 892 0116 2B68     		ldr	r3, [r5]
 664:Drivers/STM32H7xx_HAL_Driver/Src/stm32h7xx_hal_rcc.c ****       {
 893              		.loc 1 664 12 view .LVU331
 894 0118 9F04     		lsls	r7, r3, #18
 895 011a F6D5     		bpl	.L98
 896              	.L175:
 691:Drivers/STM32H7xx_HAL_Driver/Src/stm32h7xx_hal_rcc.c ****   {
 897              		.loc 1 691 25 view .LVU332
 898 011c 2368     		ldr	r3, [r4]
 899              	.LVL69:
 900              	.L95:
 691:Drivers/STM32H7xx_HAL_Driver/Src/stm32h7xx_hal_rcc.c ****   {
 901              		.loc 1 691 3 is_stmt 1 view .LVU333
 691:Drivers/STM32H7xx_HAL_Driver/Src/stm32h7xx_hal_rcc.c ****   {
 902              		.loc 1 691 5 is_stmt 0 view .LVU334
 903 011e 5907     		lsls	r1, r3, #29
 904 0120 00F1AD80 		bmi	.L101
 905              	.L114:
 744:Drivers/STM32H7xx_HAL_Driver/Src/stm32h7xx_hal_rcc.c ****   if ((RCC_OscInitStruct->PLL.PLLState) != RCC_PLL_NONE)
 906              		.loc 1 744 3 is_stmt 1 view .LVU335
 745:Drivers/STM32H7xx_HAL_Driver/Src/stm32h7xx_hal_rcc.c ****   {
 907              		.loc 1 745 3 view .LVU336
 745:Drivers/STM32H7xx_HAL_Driver/Src/stm32h7xx_hal_rcc.c ****   {
 908              		.loc 1 745 30 is_stmt 0 view .LVU337
 909 0124 606A     		ldr	r0, [r4, #36]
 745:Drivers/STM32H7xx_HAL_Driver/Src/stm32h7xx_hal_rcc.c ****   {
 910              		.loc 1 745 6 view .LVU338
 911 0126 D0B1     		cbz	r0, .L103
 748:Drivers/STM32H7xx_HAL_Driver/Src/stm32h7xx_hal_rcc.c ****     {
 912              		.loc 1 748 5 is_stmt 1 view .LVU339
 748:Drivers/STM32H7xx_HAL_Driver/Src/stm32h7xx_hal_rcc.c ****     {
 913              		.loc 1 748 8 is_stmt 0 view .LVU340
 914 0128 594D     		ldr	r5, .L191
 915 012a 2B69     		ldr	r3, [r5, #16]
 916 012c 03F03803 		and	r3, r3, #56
 748:Drivers/STM32H7xx_HAL_Driver/Src/stm32h7xx_hal_rcc.c ****     {
 917              		.loc 1 748 7 view .LVU341
 918 0130 182B     		cmp	r3, #24
 919 0132 00F0C081 		beq	.L116
 750:Drivers/STM32H7xx_HAL_Driver/Src/stm32h7xx_hal_rcc.c ****       {
 920              		.loc 1 750 7 is_stmt 1 view .LVU342
 764:Drivers/STM32H7xx_HAL_Driver/Src/stm32h7xx_hal_rcc.c **** 
 921              		.loc 1 764 9 is_stmt 0 view .LVU343
 922 0136 2B68     		ldr	r3, [r5]
 750:Drivers/STM32H7xx_HAL_Driver/Src/stm32h7xx_hal_rcc.c ****       {
 923              		.loc 1 750 9 view .LVU344
 924 0138 0228     		cmp	r0, #2
 764:Drivers/STM32H7xx_HAL_Driver/Src/stm32h7xx_hal_rcc.c **** 
 925              		.loc 1 764 9 view .LVU345
 926 013a 23F08073 		bic	r3, r3, #16777216
 927 013e 2B60     		str	r3, [r5]
 750:Drivers/STM32H7xx_HAL_Driver/Src/stm32h7xx_hal_rcc.c ****       {
 928              		.loc 1 750 9 view .LVU346
 929 0140 00F05481 		beq	.L184
 828:Drivers/STM32H7xx_HAL_Driver/Src/stm32h7xx_hal_rcc.c **** 
ARM GAS  C:\Users\MadeuxS\AppData\Local\Temp\ccJrku7c.s 			page 48


 930              		.loc 1 828 9 is_stmt 1 view .LVU347
 831:Drivers/STM32H7xx_HAL_Driver/Src/stm32h7xx_hal_rcc.c **** 
 931              		.loc 1 831 9 view .LVU348
 831:Drivers/STM32H7xx_HAL_Driver/Src/stm32h7xx_hal_rcc.c **** 
 932              		.loc 1 831 21 is_stmt 0 view .LVU349
 933 0144 FFF7FEFF 		bl	HAL_GetTick
 934              	.LVL70:
 935 0148 0446     		mov	r4, r0
 936              	.LVL71:
 834:Drivers/STM32H7xx_HAL_Driver/Src/stm32h7xx_hal_rcc.c ****         {
 937              		.loc 1 834 9 is_stmt 1 view .LVU350
 834:Drivers/STM32H7xx_HAL_Driver/Src/stm32h7xx_hal_rcc.c ****         {
 938              		.loc 1 834 14 is_stmt 0 view .LVU351
 939 014a 05E0     		b	.L122
 940              	.LVL72:
 941              	.L123:
 836:Drivers/STM32H7xx_HAL_Driver/Src/stm32h7xx_hal_rcc.c ****           {
 942              		.loc 1 836 15 view .LVU352
 943 014c FFF7FEFF 		bl	HAL_GetTick
 944              	.LVL73:
 836:Drivers/STM32H7xx_HAL_Driver/Src/stm32h7xx_hal_rcc.c ****           {
 945              		.loc 1 836 29 view .LVU353
 946 0150 001B     		subs	r0, r0, r4
 836:Drivers/STM32H7xx_HAL_Driver/Src/stm32h7xx_hal_rcc.c ****           {
 947              		.loc 1 836 13 view .LVU354
 948 0152 0228     		cmp	r0, #2
 949 0154 00F2E480 		bhi	.L61
 950              	.L122:
 836:Drivers/STM32H7xx_HAL_Driver/Src/stm32h7xx_hal_rcc.c ****           {
 951              		.loc 1 836 11 is_stmt 1 view .LVU355
 834:Drivers/STM32H7xx_HAL_Driver/Src/stm32h7xx_hal_rcc.c ****         {
 952              		.loc 1 834 14 view .LVU356
 834:Drivers/STM32H7xx_HAL_Driver/Src/stm32h7xx_hal_rcc.c ****         {
 953              		.loc 1 834 15 is_stmt 0 view .LVU357
 954 0158 2B68     		ldr	r3, [r5]
 834:Drivers/STM32H7xx_HAL_Driver/Src/stm32h7xx_hal_rcc.c ****         {
 955              		.loc 1 834 14 view .LVU358
 956 015a 9B01     		lsls	r3, r3, #6
 957 015c F6D4     		bmi	.L123
 958              	.LVL74:
 959              	.L103:
 860:Drivers/STM32H7xx_HAL_Driver/Src/stm32h7xx_hal_rcc.c **** }
 960              		.loc 1 860 10 view .LVU359
 961 015e 0020     		movs	r0, #0
 962              	.L48:
 861:Drivers/STM32H7xx_HAL_Driver/Src/stm32h7xx_hal_rcc.c **** 
 963              		.loc 1 861 1 view .LVU360
 964 0160 F8BD     		pop	{r3, r4, r5, r6, r7, pc}
 965              	.LVL75:
 966              	.L183:
 967              	.LBB4:
 543:Drivers/STM32H7xx_HAL_Driver/Src/stm32h7xx_hal_rcc.c ****     assert_param(IS_RCC_CSICALIBRATION_VALUE(RCC_OscInitStruct->CSICalibrationValue));
 968              		.loc 1 543 5 is_stmt 1 view .LVU361
 544:Drivers/STM32H7xx_HAL_Driver/Src/stm32h7xx_hal_rcc.c **** 
 969              		.loc 1 544 5 view .LVU362
 547:Drivers/STM32H7xx_HAL_Driver/Src/stm32h7xx_hal_rcc.c ****     const uint32_t temp_pllckselr = RCC->PLLCKSELR;
 970              		.loc 1 547 5 view .LVU363
ARM GAS  C:\Users\MadeuxS\AppData\Local\Temp\ccJrku7c.s 			page 49


 547:Drivers/STM32H7xx_HAL_Driver/Src/stm32h7xx_hal_rcc.c ****     const uint32_t temp_pllckselr = RCC->PLLCKSELR;
 971              		.loc 1 547 37 is_stmt 0 view .LVU364
 972 0162 4B4A     		ldr	r2, .L191
 973 0164 1369     		ldr	r3, [r2, #16]
 548:Drivers/STM32H7xx_HAL_Driver/Src/stm32h7xx_hal_rcc.c ****     if((temp_sysclksrc == RCC_CFGR_SWS_CSI) || ((temp_sysclksrc == RCC_CFGR_SWS_PLL1) && ((temp_pll
 974              		.loc 1 548 20 view .LVU365
 975 0166 926A     		ldr	r2, [r2, #40]
 547:Drivers/STM32H7xx_HAL_Driver/Src/stm32h7xx_hal_rcc.c ****     const uint32_t temp_pllckselr = RCC->PLLCKSELR;
 976              		.loc 1 547 20 view .LVU366
 977 0168 03F03803 		and	r3, r3, #56
 978              	.LVL76:
 548:Drivers/STM32H7xx_HAL_Driver/Src/stm32h7xx_hal_rcc.c ****     if((temp_sysclksrc == RCC_CFGR_SWS_CSI) || ((temp_sysclksrc == RCC_CFGR_SWS_PLL1) && ((temp_pll
 979              		.loc 1 548 5 is_stmt 1 view .LVU367
 549:Drivers/STM32H7xx_HAL_Driver/Src/stm32h7xx_hal_rcc.c ****     {
 980              		.loc 1 549 5 view .LVU368
 549:Drivers/STM32H7xx_HAL_Driver/Src/stm32h7xx_hal_rcc.c ****     {
 981              		.loc 1 549 7 is_stmt 0 view .LVU369
 982 016c 082B     		cmp	r3, #8
 983 016e 6ED0     		beq	.L77
 549:Drivers/STM32H7xx_HAL_Driver/Src/stm32h7xx_hal_rcc.c ****     {
 984              		.loc 1 549 45 discriminator 1 view .LVU370
 985 0170 182B     		cmp	r3, #24
 986 0172 68D0     		beq	.L185
 987              	.LVL77:
 988              	.L78:
 566:Drivers/STM32H7xx_HAL_Driver/Src/stm32h7xx_hal_rcc.c ****       {
 989              		.loc 1 566 7 is_stmt 1 view .LVU371
 566:Drivers/STM32H7xx_HAL_Driver/Src/stm32h7xx_hal_rcc.c ****       {
 990              		.loc 1 566 9 is_stmt 0 view .LVU372
 991 0174 E369     		ldr	r3, [r4, #28]
 992              	.LVL78:
 569:Drivers/STM32H7xx_HAL_Driver/Src/stm32h7xx_hal_rcc.c **** 
 993              		.loc 1 569 9 view .LVU373
 994 0176 464D     		ldr	r5, .L191
 566:Drivers/STM32H7xx_HAL_Driver/Src/stm32h7xx_hal_rcc.c ****       {
 995              		.loc 1 566 9 view .LVU374
 996 0178 002B     		cmp	r3, #0
 997 017a 00F0FA80 		beq	.L82
 569:Drivers/STM32H7xx_HAL_Driver/Src/stm32h7xx_hal_rcc.c **** 
 998              		.loc 1 569 9 is_stmt 1 view .LVU375
 999 017e 2B68     		ldr	r3, [r5]
 1000 0180 43F08003 		orr	r3, r3, #128
 1001 0184 2B60     		str	r3, [r5]
 572:Drivers/STM32H7xx_HAL_Driver/Src/stm32h7xx_hal_rcc.c **** 
 1002              		.loc 1 572 9 view .LVU376
 572:Drivers/STM32H7xx_HAL_Driver/Src/stm32h7xx_hal_rcc.c **** 
 1003              		.loc 1 572 21 is_stmt 0 view .LVU377
 1004 0186 FFF7FEFF 		bl	HAL_GetTick
 1005              	.LVL79:
 1006 018a 0646     		mov	r6, r0
 1007              	.LVL80:
 575:Drivers/STM32H7xx_HAL_Driver/Src/stm32h7xx_hal_rcc.c ****         {
 1008              		.loc 1 575 9 is_stmt 1 view .LVU378
 575:Drivers/STM32H7xx_HAL_Driver/Src/stm32h7xx_hal_rcc.c ****         {
 1009              		.loc 1 575 14 is_stmt 0 view .LVU379
 1010 018c 05E0     		b	.L83
 1011              	.LVL81:
ARM GAS  C:\Users\MadeuxS\AppData\Local\Temp\ccJrku7c.s 			page 50


 1012              	.L84:
 577:Drivers/STM32H7xx_HAL_Driver/Src/stm32h7xx_hal_rcc.c ****           {
 1013              		.loc 1 577 15 view .LVU380
 1014 018e FFF7FEFF 		bl	HAL_GetTick
 1015              	.LVL82:
 577:Drivers/STM32H7xx_HAL_Driver/Src/stm32h7xx_hal_rcc.c ****           {
 1016              		.loc 1 577 29 view .LVU381
 1017 0192 801B     		subs	r0, r0, r6
 577:Drivers/STM32H7xx_HAL_Driver/Src/stm32h7xx_hal_rcc.c ****           {
 1018              		.loc 1 577 13 view .LVU382
 1019 0194 0228     		cmp	r0, #2
 1020 0196 00F2C380 		bhi	.L61
 1021              	.L83:
 577:Drivers/STM32H7xx_HAL_Driver/Src/stm32h7xx_hal_rcc.c ****           {
 1022              		.loc 1 577 11 is_stmt 1 view .LVU383
 575:Drivers/STM32H7xx_HAL_Driver/Src/stm32h7xx_hal_rcc.c ****         {
 1023              		.loc 1 575 14 view .LVU384
 575:Drivers/STM32H7xx_HAL_Driver/Src/stm32h7xx_hal_rcc.c ****         {
 1024              		.loc 1 575 15 is_stmt 0 view .LVU385
 1025 019a 2B68     		ldr	r3, [r5]
 575:Drivers/STM32H7xx_HAL_Driver/Src/stm32h7xx_hal_rcc.c ****         {
 1026              		.loc 1 575 14 view .LVU386
 1027 019c DB05     		lsls	r3, r3, #23
 1028 019e F6D5     		bpl	.L84
 584:Drivers/STM32H7xx_HAL_Driver/Src/stm32h7xx_hal_rcc.c ****       }
 1029              		.loc 1 584 9 is_stmt 1 view .LVU387
 584:Drivers/STM32H7xx_HAL_Driver/Src/stm32h7xx_hal_rcc.c ****       }
 1030              		.loc 1 584 9 view .LVU388
 1031 01a0 FFF7FEFF 		bl	HAL_GetREVID
 1032              	.LVL83:
 1033 01a4 41F20303 		movw	r3, #4099
 1034 01a8 9842     		cmp	r0, r3
 1035 01aa 00F2E381 		bhi	.L85
 584:Drivers/STM32H7xx_HAL_Driver/Src/stm32h7xx_hal_rcc.c ****       }
 1036              		.loc 1 584 9 discriminator 1 view .LVU389
 1037 01ae 226A     		ldr	r2, [r4, #32]
 1038 01b0 6B68     		ldr	r3, [r5, #4]
 1039 01b2 202A     		cmp	r2, #32
 584:Drivers/STM32H7xx_HAL_Driver/Src/stm32h7xx_hal_rcc.c ****       }
 1040              		.loc 1 584 9 discriminator 1 view .LVU390
 584:Drivers/STM32H7xx_HAL_Driver/Src/stm32h7xx_hal_rcc.c ****       }
 1041              		.loc 1 584 9 discriminator 1 view .LVU391
 1042 01b4 23F0F843 		bic	r3, r3, #2080374784
 1043 01b8 0CBF     		ite	eq
 1044 01ba 43F08043 		orreq	r3, r3, #1073741824
 1045 01be 43EA8263 		orrne	r3, r3, r2, lsl #26
 1046 01c2 6B60     		str	r3, [r5, #4]
 1047              	.LBE4:
 606:Drivers/STM32H7xx_HAL_Driver/Src/stm32h7xx_hal_rcc.c ****   {
 1048              		.loc 1 606 25 is_stmt 0 discriminator 1 view .LVU392
 1049 01c4 2368     		ldr	r3, [r4]
 1050 01c6 78E7     		b	.L76
 1051              	.LVL84:
 1052              	.L181:
 1053              	.LBB5:
 482:Drivers/STM32H7xx_HAL_Driver/Src/stm32h7xx_hal_rcc.c ****     {
 1054              		.loc 1 482 45 discriminator 1 view .LVU393
ARM GAS  C:\Users\MadeuxS\AppData\Local\Temp\ccJrku7c.s 			page 51


 1055 01c8 182B     		cmp	r3, #24
 1056 01ca 00F0FF80 		beq	.L186
 1057              	.LVL85:
 1058              	.L65:
 500:Drivers/STM32H7xx_HAL_Driver/Src/stm32h7xx_hal_rcc.c ****       {
 1059              		.loc 1 500 7 is_stmt 1 view .LVU394
 503:Drivers/STM32H7xx_HAL_Driver/Src/stm32h7xx_hal_rcc.c **** 
 1060              		.loc 1 503 9 is_stmt 0 view .LVU395
 1061 01ce 304D     		ldr	r5, .L191
 500:Drivers/STM32H7xx_HAL_Driver/Src/stm32h7xx_hal_rcc.c ****       {
 1062              		.loc 1 500 28 view .LVU396
 1063 01d0 E268     		ldr	r2, [r4, #12]
 503:Drivers/STM32H7xx_HAL_Driver/Src/stm32h7xx_hal_rcc.c **** 
 1064              		.loc 1 503 9 view .LVU397
 1065 01d2 2B68     		ldr	r3, [r5]
 1066              	.LVL86:
 500:Drivers/STM32H7xx_HAL_Driver/Src/stm32h7xx_hal_rcc.c ****       {
 1067              		.loc 1 500 9 view .LVU398
 1068 01d4 002A     		cmp	r2, #0
 1069 01d6 00F0E880 		beq	.L69
 503:Drivers/STM32H7xx_HAL_Driver/Src/stm32h7xx_hal_rcc.c **** 
 1070              		.loc 1 503 9 is_stmt 1 view .LVU399
 1071 01da 23F01903 		bic	r3, r3, #25
 1072 01de 1343     		orrs	r3, r3, r2
 1073 01e0 2B60     		str	r3, [r5]
 506:Drivers/STM32H7xx_HAL_Driver/Src/stm32h7xx_hal_rcc.c **** 
 1074              		.loc 1 506 9 view .LVU400
 506:Drivers/STM32H7xx_HAL_Driver/Src/stm32h7xx_hal_rcc.c **** 
 1075              		.loc 1 506 21 is_stmt 0 view .LVU401
 1076 01e2 FFF7FEFF 		bl	HAL_GetTick
 1077              	.LVL87:
 1078 01e6 0646     		mov	r6, r0
 1079              	.LVL88:
 509:Drivers/STM32H7xx_HAL_Driver/Src/stm32h7xx_hal_rcc.c ****         {
 1080              		.loc 1 509 9 is_stmt 1 view .LVU402
 509:Drivers/STM32H7xx_HAL_Driver/Src/stm32h7xx_hal_rcc.c ****         {
 1081              		.loc 1 509 14 is_stmt 0 view .LVU403
 1082 01e8 05E0     		b	.L70
 1083              	.LVL89:
 1084              	.L71:
 511:Drivers/STM32H7xx_HAL_Driver/Src/stm32h7xx_hal_rcc.c ****           {
 1085              		.loc 1 511 15 view .LVU404
 1086 01ea FFF7FEFF 		bl	HAL_GetTick
 1087              	.LVL90:
 511:Drivers/STM32H7xx_HAL_Driver/Src/stm32h7xx_hal_rcc.c ****           {
 1088              		.loc 1 511 29 view .LVU405
 1089 01ee 801B     		subs	r0, r0, r6
 511:Drivers/STM32H7xx_HAL_Driver/Src/stm32h7xx_hal_rcc.c ****           {
 1090              		.loc 1 511 13 view .LVU406
 1091 01f0 0228     		cmp	r0, #2
 1092 01f2 00F29580 		bhi	.L61
 1093              	.L70:
 511:Drivers/STM32H7xx_HAL_Driver/Src/stm32h7xx_hal_rcc.c ****           {
 1094              		.loc 1 511 11 is_stmt 1 view .LVU407
 509:Drivers/STM32H7xx_HAL_Driver/Src/stm32h7xx_hal_rcc.c ****         {
 1095              		.loc 1 509 14 view .LVU408
 509:Drivers/STM32H7xx_HAL_Driver/Src/stm32h7xx_hal_rcc.c ****         {
ARM GAS  C:\Users\MadeuxS\AppData\Local\Temp\ccJrku7c.s 			page 52


 1096              		.loc 1 509 15 is_stmt 0 view .LVU409
 1097 01f6 2B68     		ldr	r3, [r5]
 509:Drivers/STM32H7xx_HAL_Driver/Src/stm32h7xx_hal_rcc.c ****         {
 1098              		.loc 1 509 14 view .LVU410
 1099 01f8 5F07     		lsls	r7, r3, #29
 1100 01fa F6D5     		bpl	.L71
 518:Drivers/STM32H7xx_HAL_Driver/Src/stm32h7xx_hal_rcc.c ****       }
 1101              		.loc 1 518 9 is_stmt 1 view .LVU411
 518:Drivers/STM32H7xx_HAL_Driver/Src/stm32h7xx_hal_rcc.c ****       }
 1102              		.loc 1 518 9 view .LVU412
 1103 01fc FFF7FEFF 		bl	HAL_GetREVID
 1104              	.LVL91:
 1105 0200 41F20303 		movw	r3, #4099
 1106 0204 9842     		cmp	r0, r3
 1107 0206 00F2BE81 		bhi	.L72
 518:Drivers/STM32H7xx_HAL_Driver/Src/stm32h7xx_hal_rcc.c ****       }
 1108              		.loc 1 518 9 discriminator 1 view .LVU413
 1109 020a 2269     		ldr	r2, [r4, #16]
 1110 020c 6B68     		ldr	r3, [r5, #4]
 1111 020e 402A     		cmp	r2, #64
 518:Drivers/STM32H7xx_HAL_Driver/Src/stm32h7xx_hal_rcc.c ****       }
 1112              		.loc 1 518 9 discriminator 1 view .LVU414
 518:Drivers/STM32H7xx_HAL_Driver/Src/stm32h7xx_hal_rcc.c ****       }
 1113              		.loc 1 518 9 discriminator 1 view .LVU415
 1114 0210 23F47C33 		bic	r3, r3, #258048
 1115 0214 0CBF     		ite	eq
 1116 0216 43F40033 		orreq	r3, r3, #131072
 1117 021a 43EA0233 		orrne	r3, r3, r2, lsl #12
 1118 021e 6B60     		str	r3, [r5, #4]
 1119              	.LBE5:
 540:Drivers/STM32H7xx_HAL_Driver/Src/stm32h7xx_hal_rcc.c ****   {
 1120              		.loc 1 540 25 is_stmt 0 discriminator 1 view .LVU416
 1121 0220 2368     		ldr	r3, [r4]
 1122 0222 48E7     		b	.L63
 1123              	.LVL92:
 1124              	.L90:
 632:Drivers/STM32H7xx_HAL_Driver/Src/stm32h7xx_hal_rcc.c **** 
 1125              		.loc 1 632 7 is_stmt 1 view .LVU417
 1126 0224 6B6F     		ldr	r3, [r5, #116]
 1127 0226 23F00103 		bic	r3, r3, #1
 1128 022a 6B67     		str	r3, [r5, #116]
 635:Drivers/STM32H7xx_HAL_Driver/Src/stm32h7xx_hal_rcc.c **** 
 1129              		.loc 1 635 7 view .LVU418
 635:Drivers/STM32H7xx_HAL_Driver/Src/stm32h7xx_hal_rcc.c **** 
 1130              		.loc 1 635 19 is_stmt 0 view .LVU419
 1131 022c FFF7FEFF 		bl	HAL_GetTick
 1132              	.LVL93:
 1133 0230 0646     		mov	r6, r0
 1134              	.LVL94:
 638:Drivers/STM32H7xx_HAL_Driver/Src/stm32h7xx_hal_rcc.c ****       {
 1135              		.loc 1 638 7 is_stmt 1 view .LVU420
 638:Drivers/STM32H7xx_HAL_Driver/Src/stm32h7xx_hal_rcc.c ****       {
 1136              		.loc 1 638 12 is_stmt 0 view .LVU421
 1137 0232 04E0     		b	.L93
 1138              	.LVL95:
 1139              	.L94:
 640:Drivers/STM32H7xx_HAL_Driver/Src/stm32h7xx_hal_rcc.c ****         {
ARM GAS  C:\Users\MadeuxS\AppData\Local\Temp\ccJrku7c.s 			page 53


 1140              		.loc 1 640 13 view .LVU422
 1141 0234 FFF7FEFF 		bl	HAL_GetTick
 1142              	.LVL96:
 640:Drivers/STM32H7xx_HAL_Driver/Src/stm32h7xx_hal_rcc.c ****         {
 1143              		.loc 1 640 27 view .LVU423
 1144 0238 801B     		subs	r0, r0, r6
 640:Drivers/STM32H7xx_HAL_Driver/Src/stm32h7xx_hal_rcc.c ****         {
 1145              		.loc 1 640 11 view .LVU424
 1146 023a 0228     		cmp	r0, #2
 1147 023c 70D8     		bhi	.L61
 1148              	.L93:
 640:Drivers/STM32H7xx_HAL_Driver/Src/stm32h7xx_hal_rcc.c ****         {
 1149              		.loc 1 640 9 is_stmt 1 view .LVU425
 638:Drivers/STM32H7xx_HAL_Driver/Src/stm32h7xx_hal_rcc.c ****       {
 1150              		.loc 1 638 12 view .LVU426
 638:Drivers/STM32H7xx_HAL_Driver/Src/stm32h7xx_hal_rcc.c ****       {
 1151              		.loc 1 638 13 is_stmt 0 view .LVU427
 1152 023e 6B6F     		ldr	r3, [r5, #116]
 638:Drivers/STM32H7xx_HAL_Driver/Src/stm32h7xx_hal_rcc.c ****       {
 1153              		.loc 1 638 12 view .LVU428
 1154 0240 9907     		lsls	r1, r3, #30
 1155 0242 F7D4     		bmi	.L94
 1156 0244 51E7     		b	.L174
 1157              	.LVL97:
 1158              	.L185:
 1159              	.LBB6:
 549:Drivers/STM32H7xx_HAL_Driver/Src/stm32h7xx_hal_rcc.c ****     {
 1160              		.loc 1 549 107 discriminator 2 view .LVU429
 1161 0246 02F00302 		and	r2, r2, #3
 1162              	.LVL98:
 549:Drivers/STM32H7xx_HAL_Driver/Src/stm32h7xx_hal_rcc.c ****     {
 1163              		.loc 1 549 87 discriminator 2 view .LVU430
 1164 024a 012A     		cmp	r2, #1
 1165 024c 92D1     		bne	.L78
 1166              	.L77:
 552:Drivers/STM32H7xx_HAL_Driver/Src/stm32h7xx_hal_rcc.c ****       {
 1167              		.loc 1 552 7 is_stmt 1 view .LVU431
 552:Drivers/STM32H7xx_HAL_Driver/Src/stm32h7xx_hal_rcc.c ****       {
 1168              		.loc 1 552 11 is_stmt 0 view .LVU432
 1169 024e 104B     		ldr	r3, .L191
 1170              	.LVL99:
 552:Drivers/STM32H7xx_HAL_Driver/Src/stm32h7xx_hal_rcc.c ****       {
 1171              		.loc 1 552 11 view .LVU433
 1172 0250 1B68     		ldr	r3, [r3]
 552:Drivers/STM32H7xx_HAL_Driver/Src/stm32h7xx_hal_rcc.c ****       {
 1173              		.loc 1 552 9 view .LVU434
 1174 0252 DA05     		lsls	r2, r3, #23
 1175 0254 51D5     		bpl	.L79
 552:Drivers/STM32H7xx_HAL_Driver/Src/stm32h7xx_hal_rcc.c ****       {
 1176              		.loc 1 552 54 discriminator 1 view .LVU435
 1177 0256 E369     		ldr	r3, [r4, #28]
 1178 0258 802B     		cmp	r3, #128
 1179 025a 4ED0     		beq	.L79
 1180              	.L129:
 552:Drivers/STM32H7xx_HAL_Driver/Src/stm32h7xx_hal_rcc.c ****       {
 1181              		.loc 1 552 54 discriminator 1 view .LVU436
 1182              	.LBE6:
ARM GAS  C:\Users\MadeuxS\AppData\Local\Temp\ccJrku7c.s 			page 54


 856:Drivers/STM32H7xx_HAL_Driver/Src/stm32h7xx_hal_rcc.c ****       }
 1183              		.loc 1 856 16 view .LVU437
 1184 025c 0120     		movs	r0, #1
 861:Drivers/STM32H7xx_HAL_Driver/Src/stm32h7xx_hal_rcc.c **** 
 1185              		.loc 1 861 1 view .LVU438
 1186 025e F8BD     		pop	{r3, r4, r5, r6, r7, pc}
 1187              	.LVL100:
 1188              	.L177:
 1189              	.LBB7:
 429:Drivers/STM32H7xx_HAL_Driver/Src/stm32h7xx_hal_rcc.c ****     {
 1190              		.loc 1 429 107 discriminator 2 view .LVU439
 1191 0260 01F00301 		and	r1, r1, #3
 1192              	.LVL101:
 429:Drivers/STM32H7xx_HAL_Driver/Src/stm32h7xx_hal_rcc.c ****     {
 1193              		.loc 1 429 87 discriminator 2 view .LVU440
 1194 0264 0229     		cmp	r1, #2
 1195 0266 7FF4DEAE 		bne	.L51
 1196              	.L50:
 431:Drivers/STM32H7xx_HAL_Driver/Src/stm32h7xx_hal_rcc.c ****       {
 1197              		.loc 1 431 7 is_stmt 1 view .LVU441
 431:Drivers/STM32H7xx_HAL_Driver/Src/stm32h7xx_hal_rcc.c ****       {
 1198              		.loc 1 431 11 is_stmt 0 view .LVU442
 1199 026a 094A     		ldr	r2, .L191
 1200              	.LVL102:
 431:Drivers/STM32H7xx_HAL_Driver/Src/stm32h7xx_hal_rcc.c ****       {
 1201              		.loc 1 431 11 view .LVU443
 1202 026c 1268     		ldr	r2, [r2]
 431:Drivers/STM32H7xx_HAL_Driver/Src/stm32h7xx_hal_rcc.c ****       {
 1203              		.loc 1 431 9 view .LVU444
 1204 026e 9203     		lsls	r2, r2, #14
 1205 0270 7FF5FDAE 		bpl	.L49
 431:Drivers/STM32H7xx_HAL_Driver/Src/stm32h7xx_hal_rcc.c ****       {
 1206              		.loc 1 431 54 discriminator 1 view .LVU445
 1207 0274 6268     		ldr	r2, [r4, #4]
 1208 0276 002A     		cmp	r2, #0
 1209 0278 7FF4F9AE 		bne	.L49
 1210 027c EEE7     		b	.L129
 1211              	.LVL103:
 1212              	.L101:
 431:Drivers/STM32H7xx_HAL_Driver/Src/stm32h7xx_hal_rcc.c ****       {
 1213              		.loc 1 431 54 discriminator 1 view .LVU446
 1214              	.LBE7:
 694:Drivers/STM32H7xx_HAL_Driver/Src/stm32h7xx_hal_rcc.c **** 
 1215              		.loc 1 694 5 is_stmt 1 view .LVU447
 697:Drivers/STM32H7xx_HAL_Driver/Src/stm32h7xx_hal_rcc.c **** 
 1216              		.loc 1 697 5 view .LVU448
 697:Drivers/STM32H7xx_HAL_Driver/Src/stm32h7xx_hal_rcc.c **** 
 1217              		.loc 1 697 14 is_stmt 0 view .LVU449
 1218 027e 054D     		ldr	r5, .L191+4
 1219 0280 2B68     		ldr	r3, [r5]
 1220 0282 43F48073 		orr	r3, r3, #256
 1221 0286 2B60     		str	r3, [r5]
 700:Drivers/STM32H7xx_HAL_Driver/Src/stm32h7xx_hal_rcc.c **** 
 1222              		.loc 1 700 5 is_stmt 1 view .LVU450
 700:Drivers/STM32H7xx_HAL_Driver/Src/stm32h7xx_hal_rcc.c **** 
 1223              		.loc 1 700 17 is_stmt 0 view .LVU451
 1224 0288 FFF7FEFF 		bl	HAL_GetTick
ARM GAS  C:\Users\MadeuxS\AppData\Local\Temp\ccJrku7c.s 			page 55


 1225              	.LVL104:
 1226 028c 0646     		mov	r6, r0
 1227              	.LVL105:
 702:Drivers/STM32H7xx_HAL_Driver/Src/stm32h7xx_hal_rcc.c ****     {
 1228              		.loc 1 702 5 is_stmt 1 view .LVU452
 702:Drivers/STM32H7xx_HAL_Driver/Src/stm32h7xx_hal_rcc.c ****     {
 1229              		.loc 1 702 10 is_stmt 0 view .LVU453
 1230 028e 08E0     		b	.L104
 1231              	.L192:
 1232              		.align	2
 1233              	.L191:
 1234 0290 00440258 		.word	1476543488
 1235 0294 00480258 		.word	1476544512
 1236              	.LVL106:
 1237              	.L105:
 704:Drivers/STM32H7xx_HAL_Driver/Src/stm32h7xx_hal_rcc.c ****       {
 1238              		.loc 1 704 11 view .LVU454
 1239 0298 FFF7FEFF 		bl	HAL_GetTick
 1240              	.LVL107:
 704:Drivers/STM32H7xx_HAL_Driver/Src/stm32h7xx_hal_rcc.c ****       {
 1241              		.loc 1 704 25 view .LVU455
 1242 029c 801B     		subs	r0, r0, r6
 704:Drivers/STM32H7xx_HAL_Driver/Src/stm32h7xx_hal_rcc.c ****       {
 1243              		.loc 1 704 9 view .LVU456
 1244 029e 6428     		cmp	r0, #100
 1245 02a0 3ED8     		bhi	.L61
 1246              	.L104:
 704:Drivers/STM32H7xx_HAL_Driver/Src/stm32h7xx_hal_rcc.c ****       {
 1247              		.loc 1 704 7 is_stmt 1 view .LVU457
 702:Drivers/STM32H7xx_HAL_Driver/Src/stm32h7xx_hal_rcc.c ****     {
 1248              		.loc 1 702 10 view .LVU458
 702:Drivers/STM32H7xx_HAL_Driver/Src/stm32h7xx_hal_rcc.c ****     {
 1249              		.loc 1 702 15 is_stmt 0 view .LVU459
 1250 02a2 2B68     		ldr	r3, [r5]
 702:Drivers/STM32H7xx_HAL_Driver/Src/stm32h7xx_hal_rcc.c ****     {
 1251              		.loc 1 702 10 view .LVU460
 1252 02a4 DA05     		lsls	r2, r3, #23
 1253 02a6 F7D5     		bpl	.L105
 711:Drivers/STM32H7xx_HAL_Driver/Src/stm32h7xx_hal_rcc.c ****     /* Check the LSE State */
 1254              		.loc 1 711 5 is_stmt 1 view .LVU461
 711:Drivers/STM32H7xx_HAL_Driver/Src/stm32h7xx_hal_rcc.c ****     /* Check the LSE State */
 1255              		.loc 1 711 5 view .LVU462
 1256 02a8 A368     		ldr	r3, [r4, #8]
 1257 02aa 012B     		cmp	r3, #1
 1258 02ac 00F07481 		beq	.L187
 711:Drivers/STM32H7xx_HAL_Driver/Src/stm32h7xx_hal_rcc.c ****     /* Check the LSE State */
 1259              		.loc 1 711 5 discriminator 2 view .LVU463
 1260 02b0 002B     		cmp	r3, #0
 1261 02b2 00F03F81 		beq	.L188
 711:Drivers/STM32H7xx_HAL_Driver/Src/stm32h7xx_hal_rcc.c ****     /* Check the LSE State */
 1262              		.loc 1 711 5 discriminator 5 view .LVU464
 1263 02b6 052B     		cmp	r3, #5
 1264 02b8 A64B     		ldr	r3, .L193
 1265 02ba 1A6F     		ldr	r2, [r3, #112]
 1266 02bc 00F07B81 		beq	.L189
 711:Drivers/STM32H7xx_HAL_Driver/Src/stm32h7xx_hal_rcc.c ****     /* Check the LSE State */
 1267              		.loc 1 711 5 discriminator 8 view .LVU465
ARM GAS  C:\Users\MadeuxS\AppData\Local\Temp\ccJrku7c.s 			page 56


 1268 02c0 22F00102 		bic	r2, r2, #1
 1269 02c4 1A67     		str	r2, [r3, #112]
 711:Drivers/STM32H7xx_HAL_Driver/Src/stm32h7xx_hal_rcc.c ****     /* Check the LSE State */
 1270              		.loc 1 711 5 discriminator 8 view .LVU466
 1271 02c6 1A6F     		ldr	r2, [r3, #112]
 1272 02c8 22F00402 		bic	r2, r2, #4
 1273 02cc 1A67     		str	r2, [r3, #112]
 1274              	.L107:
 716:Drivers/STM32H7xx_HAL_Driver/Src/stm32h7xx_hal_rcc.c **** 
 1275              		.loc 1 716 7 view .LVU467
 716:Drivers/STM32H7xx_HAL_Driver/Src/stm32h7xx_hal_rcc.c **** 
 1276              		.loc 1 716 19 is_stmt 0 view .LVU468
 1277 02ce FFF7FEFF 		bl	HAL_GetTick
 1278              	.LVL108:
 719:Drivers/STM32H7xx_HAL_Driver/Src/stm32h7xx_hal_rcc.c ****       {
 1279              		.loc 1 719 13 view .LVU469
 1280 02d2 A04E     		ldr	r6, .L193
 1281              	.LVL109:
 721:Drivers/STM32H7xx_HAL_Driver/Src/stm32h7xx_hal_rcc.c ****         {
 1282              		.loc 1 721 11 view .LVU470
 1283 02d4 41F28837 		movw	r7, #5000
 716:Drivers/STM32H7xx_HAL_Driver/Src/stm32h7xx_hal_rcc.c **** 
 1284              		.loc 1 716 19 view .LVU471
 1285 02d8 0546     		mov	r5, r0
 1286              	.LVL110:
 719:Drivers/STM32H7xx_HAL_Driver/Src/stm32h7xx_hal_rcc.c ****       {
 1287              		.loc 1 719 7 is_stmt 1 view .LVU472
 719:Drivers/STM32H7xx_HAL_Driver/Src/stm32h7xx_hal_rcc.c ****       {
 1288              		.loc 1 719 12 is_stmt 0 view .LVU473
 1289 02da 04E0     		b	.L112
 1290              	.LVL111:
 1291              	.L113:
 721:Drivers/STM32H7xx_HAL_Driver/Src/stm32h7xx_hal_rcc.c ****         {
 1292              		.loc 1 721 13 view .LVU474
 1293 02dc FFF7FEFF 		bl	HAL_GetTick
 1294              	.LVL112:
 721:Drivers/STM32H7xx_HAL_Driver/Src/stm32h7xx_hal_rcc.c ****         {
 1295              		.loc 1 721 27 view .LVU475
 1296 02e0 401B     		subs	r0, r0, r5
 721:Drivers/STM32H7xx_HAL_Driver/Src/stm32h7xx_hal_rcc.c ****         {
 1297              		.loc 1 721 11 view .LVU476
 1298 02e2 B842     		cmp	r0, r7
 1299 02e4 1CD8     		bhi	.L61
 1300              	.L112:
 721:Drivers/STM32H7xx_HAL_Driver/Src/stm32h7xx_hal_rcc.c ****         {
 1301              		.loc 1 721 9 is_stmt 1 view .LVU477
 719:Drivers/STM32H7xx_HAL_Driver/Src/stm32h7xx_hal_rcc.c ****       {
 1302              		.loc 1 719 12 view .LVU478
 719:Drivers/STM32H7xx_HAL_Driver/Src/stm32h7xx_hal_rcc.c ****       {
 1303              		.loc 1 719 13 is_stmt 0 view .LVU479
 1304 02e6 336F     		ldr	r3, [r6, #112]
 719:Drivers/STM32H7xx_HAL_Driver/Src/stm32h7xx_hal_rcc.c ****       {
 1305              		.loc 1 719 12 view .LVU480
 1306 02e8 9B07     		lsls	r3, r3, #30
 1307 02ea F7D5     		bpl	.L113
 1308 02ec 1AE7     		b	.L114
 1309              	.LVL113:
ARM GAS  C:\Users\MadeuxS\AppData\Local\Temp\ccJrku7c.s 			page 57


 1310              	.L178:
 1311              	.LBB8:
 439:Drivers/STM32H7xx_HAL_Driver/Src/stm32h7xx_hal_rcc.c **** 
 1312              		.loc 1 439 7 is_stmt 1 discriminator 1 view .LVU481
 1313 02ee 994A     		ldr	r2, .L193
 1314              	.LVL114:
 439:Drivers/STM32H7xx_HAL_Driver/Src/stm32h7xx_hal_rcc.c **** 
 1315              		.loc 1 439 7 is_stmt 0 discriminator 1 view .LVU482
 1316 02f0 1368     		ldr	r3, [r2]
 1317 02f2 43F48033 		orr	r3, r3, #65536
 1318 02f6 1360     		str	r3, [r2]
 439:Drivers/STM32H7xx_HAL_Driver/Src/stm32h7xx_hal_rcc.c **** 
 1319              		.loc 1 439 7 is_stmt 1 discriminator 1 view .LVU483
 442:Drivers/STM32H7xx_HAL_Driver/Src/stm32h7xx_hal_rcc.c ****       {
 1320              		.loc 1 442 7 discriminator 1 view .LVU484
 1321 02f8 AAE6     		b	.L54
 1322              	.LVL115:
 1323              	.L79:
 442:Drivers/STM32H7xx_HAL_Driver/Src/stm32h7xx_hal_rcc.c ****       {
 1324              		.loc 1 442 7 is_stmt 0 discriminator 1 view .LVU485
 1325              	.LBE8:
 1326              	.LBB9:
 560:Drivers/STM32H7xx_HAL_Driver/Src/stm32h7xx_hal_rcc.c ****       }
 1327              		.loc 1 560 9 is_stmt 1 view .LVU486
 560:Drivers/STM32H7xx_HAL_Driver/Src/stm32h7xx_hal_rcc.c ****       }
 1328              		.loc 1 560 9 view .LVU487
 1329 02fa FFF7FEFF 		bl	HAL_GetREVID
 1330              	.LVL116:
 1331 02fe 41F20303 		movw	r3, #4099
 1332 0302 9842     		cmp	r0, r3
 1333 0304 68D8     		bhi	.L80
 560:Drivers/STM32H7xx_HAL_Driver/Src/stm32h7xx_hal_rcc.c ****       }
 1334              		.loc 1 560 9 discriminator 1 view .LVU488
 1335 0306 226A     		ldr	r2, [r4, #32]
 1336 0308 202A     		cmp	r2, #32
 1337 030a 00F04B81 		beq	.L190
 560:Drivers/STM32H7xx_HAL_Driver/Src/stm32h7xx_hal_rcc.c ****       }
 1338              		.loc 1 560 9 discriminator 4 view .LVU489
 1339 030e 9149     		ldr	r1, .L193
 1340 0310 4B68     		ldr	r3, [r1, #4]
 1341 0312 23F0F843 		bic	r3, r3, #2080374784
 1342 0316 43EA8263 		orr	r3, r3, r2, lsl #26
 1343 031a 4B60     		str	r3, [r1, #4]
 1344              	.LBE9:
 606:Drivers/STM32H7xx_HAL_Driver/Src/stm32h7xx_hal_rcc.c ****   {
 1345              		.loc 1 606 25 is_stmt 0 discriminator 4 view .LVU490
 1346 031c 2368     		ldr	r3, [r4]
 1347 031e CCE6     		b	.L76
 1348              	.LVL117:
 1349              	.L61:
 1350              	.LBB10:
 452:Drivers/STM32H7xx_HAL_Driver/Src/stm32h7xx_hal_rcc.c ****           }
 1351              		.loc 1 452 20 view .LVU491
 1352 0320 0320     		movs	r0, #3
 1353              	.LBE10:
 861:Drivers/STM32H7xx_HAL_Driver/Src/stm32h7xx_hal_rcc.c **** 
 1354              		.loc 1 861 1 view .LVU492
ARM GAS  C:\Users\MadeuxS\AppData\Local\Temp\ccJrku7c.s 			page 58


 1355 0322 F8BD     		pop	{r3, r4, r5, r6, r7, pc}
 1356              	.LVL118:
 1357              	.L179:
 1358              	.LBB11:
 439:Drivers/STM32H7xx_HAL_Driver/Src/stm32h7xx_hal_rcc.c **** 
 1359              		.loc 1 439 7 is_stmt 1 discriminator 4 view .LVU493
 1360 0324 8B4D     		ldr	r5, .L193
 1361 0326 2B68     		ldr	r3, [r5]
 1362 0328 23F48033 		bic	r3, r3, #65536
 1363 032c 2B60     		str	r3, [r5]
 439:Drivers/STM32H7xx_HAL_Driver/Src/stm32h7xx_hal_rcc.c **** 
 1364              		.loc 1 439 7 discriminator 4 view .LVU494
 1365 032e 2B68     		ldr	r3, [r5]
 1366 0330 23F48023 		bic	r3, r3, #262144
 1367 0334 2B60     		str	r3, [r5]
 439:Drivers/STM32H7xx_HAL_Driver/Src/stm32h7xx_hal_rcc.c **** 
 1368              		.loc 1 439 7 discriminator 4 view .LVU495
 442:Drivers/STM32H7xx_HAL_Driver/Src/stm32h7xx_hal_rcc.c ****       {
 1369              		.loc 1 442 7 discriminator 4 view .LVU496
 459:Drivers/STM32H7xx_HAL_Driver/Src/stm32h7xx_hal_rcc.c **** 
 1370              		.loc 1 459 9 discriminator 4 view .LVU497
 459:Drivers/STM32H7xx_HAL_Driver/Src/stm32h7xx_hal_rcc.c **** 
 1371              		.loc 1 459 21 is_stmt 0 discriminator 4 view .LVU498
 1372 0336 FFF7FEFF 		bl	HAL_GetTick
 1373              	.LVL119:
 459:Drivers/STM32H7xx_HAL_Driver/Src/stm32h7xx_hal_rcc.c **** 
 1374              		.loc 1 459 21 discriminator 4 view .LVU499
 1375 033a 0646     		mov	r6, r0
 1376              	.LVL120:
 462:Drivers/STM32H7xx_HAL_Driver/Src/stm32h7xx_hal_rcc.c ****         {
 1377              		.loc 1 462 9 is_stmt 1 discriminator 4 view .LVU500
 462:Drivers/STM32H7xx_HAL_Driver/Src/stm32h7xx_hal_rcc.c ****         {
 1378              		.loc 1 462 14 is_stmt 0 discriminator 4 view .LVU501
 1379 033c 04E0     		b	.L56
 1380              	.LVL121:
 1381              	.L62:
 464:Drivers/STM32H7xx_HAL_Driver/Src/stm32h7xx_hal_rcc.c ****           {
 1382              		.loc 1 464 26 view .LVU502
 1383 033e FFF7FEFF 		bl	HAL_GetTick
 1384              	.LVL122:
 464:Drivers/STM32H7xx_HAL_Driver/Src/stm32h7xx_hal_rcc.c ****           {
 1385              		.loc 1 464 40 view .LVU503
 1386 0342 801B     		subs	r0, r0, r6
 464:Drivers/STM32H7xx_HAL_Driver/Src/stm32h7xx_hal_rcc.c ****           {
 1387              		.loc 1 464 13 view .LVU504
 1388 0344 6428     		cmp	r0, #100
 1389 0346 EBD8     		bhi	.L61
 1390              	.L56:
 464:Drivers/STM32H7xx_HAL_Driver/Src/stm32h7xx_hal_rcc.c ****           {
 1391              		.loc 1 464 11 is_stmt 1 view .LVU505
 462:Drivers/STM32H7xx_HAL_Driver/Src/stm32h7xx_hal_rcc.c ****         {
 1392              		.loc 1 462 14 view .LVU506
 462:Drivers/STM32H7xx_HAL_Driver/Src/stm32h7xx_hal_rcc.c ****         {
 1393              		.loc 1 462 15 is_stmt 0 view .LVU507
 1394 0348 2B68     		ldr	r3, [r5]
 462:Drivers/STM32H7xx_HAL_Driver/Src/stm32h7xx_hal_rcc.c ****         {
 1395              		.loc 1 462 14 view .LVU508
ARM GAS  C:\Users\MadeuxS\AppData\Local\Temp\ccJrku7c.s 			page 59


 1396 034a 9803     		lsls	r0, r3, #14
 1397 034c F7D4     		bmi	.L62
 1398 034e 8DE6     		b	.L173
 1399              	.LVL123:
 1400              	.L96:
 462:Drivers/STM32H7xx_HAL_Driver/Src/stm32h7xx_hal_rcc.c ****         {
 1401              		.loc 1 462 14 view .LVU509
 1402              	.LBE11:
 675:Drivers/STM32H7xx_HAL_Driver/Src/stm32h7xx_hal_rcc.c **** 
 1403              		.loc 1 675 7 is_stmt 1 view .LVU510
 1404 0350 2B68     		ldr	r3, [r5]
 1405 0352 23F48053 		bic	r3, r3, #4096
 1406 0356 2B60     		str	r3, [r5]
 675:Drivers/STM32H7xx_HAL_Driver/Src/stm32h7xx_hal_rcc.c **** 
 1407              		.loc 1 675 32 view .LVU511
 678:Drivers/STM32H7xx_HAL_Driver/Src/stm32h7xx_hal_rcc.c **** 
 1408              		.loc 1 678 7 view .LVU512
 678:Drivers/STM32H7xx_HAL_Driver/Src/stm32h7xx_hal_rcc.c **** 
 1409              		.loc 1 678 19 is_stmt 0 view .LVU513
 1410 0358 FFF7FEFF 		bl	HAL_GetTick
 1411              	.LVL124:
 1412 035c 0646     		mov	r6, r0
 1413              	.LVL125:
 681:Drivers/STM32H7xx_HAL_Driver/Src/stm32h7xx_hal_rcc.c ****       {
 1414              		.loc 1 681 7 is_stmt 1 view .LVU514
 681:Drivers/STM32H7xx_HAL_Driver/Src/stm32h7xx_hal_rcc.c ****       {
 1415              		.loc 1 681 12 is_stmt 0 view .LVU515
 1416 035e 04E0     		b	.L99
 1417              	.LVL126:
 1418              	.L100:
 683:Drivers/STM32H7xx_HAL_Driver/Src/stm32h7xx_hal_rcc.c ****         {
 1419              		.loc 1 683 13 view .LVU516
 1420 0360 FFF7FEFF 		bl	HAL_GetTick
 1421              	.LVL127:
 683:Drivers/STM32H7xx_HAL_Driver/Src/stm32h7xx_hal_rcc.c ****         {
 1422              		.loc 1 683 27 view .LVU517
 1423 0364 801B     		subs	r0, r0, r6
 683:Drivers/STM32H7xx_HAL_Driver/Src/stm32h7xx_hal_rcc.c ****         {
 1424              		.loc 1 683 11 view .LVU518
 1425 0366 0228     		cmp	r0, #2
 1426 0368 DAD8     		bhi	.L61
 1427              	.L99:
 683:Drivers/STM32H7xx_HAL_Driver/Src/stm32h7xx_hal_rcc.c ****         {
 1428              		.loc 1 683 9 is_stmt 1 view .LVU519
 681:Drivers/STM32H7xx_HAL_Driver/Src/stm32h7xx_hal_rcc.c ****       {
 1429              		.loc 1 681 12 view .LVU520
 681:Drivers/STM32H7xx_HAL_Driver/Src/stm32h7xx_hal_rcc.c ****       {
 1430              		.loc 1 681 13 is_stmt 0 view .LVU521
 1431 036a 2B68     		ldr	r3, [r5]
 681:Drivers/STM32H7xx_HAL_Driver/Src/stm32h7xx_hal_rcc.c ****       {
 1432              		.loc 1 681 12 view .LVU522
 1433 036c 9804     		lsls	r0, r3, #18
 1434 036e F7D4     		bmi	.L100
 1435 0370 D4E6     		b	.L175
 1436              	.LVL128:
 1437              	.L82:
 1438              	.LBB12:
ARM GAS  C:\Users\MadeuxS\AppData\Local\Temp\ccJrku7c.s 			page 60


 589:Drivers/STM32H7xx_HAL_Driver/Src/stm32h7xx_hal_rcc.c **** 
 1439              		.loc 1 589 9 is_stmt 1 view .LVU523
 1440 0372 2B68     		ldr	r3, [r5]
 1441 0374 23F08003 		bic	r3, r3, #128
 1442 0378 2B60     		str	r3, [r5]
 592:Drivers/STM32H7xx_HAL_Driver/Src/stm32h7xx_hal_rcc.c **** 
 1443              		.loc 1 592 9 view .LVU524
 592:Drivers/STM32H7xx_HAL_Driver/Src/stm32h7xx_hal_rcc.c **** 
 1444              		.loc 1 592 21 is_stmt 0 view .LVU525
 1445 037a FFF7FEFF 		bl	HAL_GetTick
 1446              	.LVL129:
 1447 037e 0646     		mov	r6, r0
 1448              	.LVL130:
 595:Drivers/STM32H7xx_HAL_Driver/Src/stm32h7xx_hal_rcc.c ****         {
 1449              		.loc 1 595 9 is_stmt 1 view .LVU526
 595:Drivers/STM32H7xx_HAL_Driver/Src/stm32h7xx_hal_rcc.c ****         {
 1450              		.loc 1 595 14 is_stmt 0 view .LVU527
 1451 0380 04E0     		b	.L87
 1452              	.LVL131:
 1453              	.L88:
 597:Drivers/STM32H7xx_HAL_Driver/Src/stm32h7xx_hal_rcc.c ****           {
 1454              		.loc 1 597 15 view .LVU528
 1455 0382 FFF7FEFF 		bl	HAL_GetTick
 1456              	.LVL132:
 597:Drivers/STM32H7xx_HAL_Driver/Src/stm32h7xx_hal_rcc.c ****           {
 1457              		.loc 1 597 29 view .LVU529
 1458 0386 801B     		subs	r0, r0, r6
 597:Drivers/STM32H7xx_HAL_Driver/Src/stm32h7xx_hal_rcc.c ****           {
 1459              		.loc 1 597 13 view .LVU530
 1460 0388 0228     		cmp	r0, #2
 1461 038a C9D8     		bhi	.L61
 1462              	.L87:
 597:Drivers/STM32H7xx_HAL_Driver/Src/stm32h7xx_hal_rcc.c ****           {
 1463              		.loc 1 597 11 is_stmt 1 view .LVU531
 595:Drivers/STM32H7xx_HAL_Driver/Src/stm32h7xx_hal_rcc.c ****         {
 1464              		.loc 1 595 14 view .LVU532
 595:Drivers/STM32H7xx_HAL_Driver/Src/stm32h7xx_hal_rcc.c ****         {
 1465              		.loc 1 595 15 is_stmt 0 view .LVU533
 1466 038c 2B68     		ldr	r3, [r5]
 595:Drivers/STM32H7xx_HAL_Driver/Src/stm32h7xx_hal_rcc.c ****         {
 1467              		.loc 1 595 14 view .LVU534
 1468 038e DF05     		lsls	r7, r3, #23
 1469 0390 F7D4     		bmi	.L88
 1470              	.LBE12:
 606:Drivers/STM32H7xx_HAL_Driver/Src/stm32h7xx_hal_rcc.c ****   {
 1471              		.loc 1 606 25 view .LVU535
 1472 0392 2368     		ldr	r3, [r4]
 1473 0394 91E6     		b	.L76
 1474              	.LVL133:
 1475              	.L67:
 1476              	.LBB13:
 493:Drivers/STM32H7xx_HAL_Driver/Src/stm32h7xx_hal_rcc.c ****       }
 1477              		.loc 1 493 9 is_stmt 1 discriminator 2 view .LVU536
 1478 0396 6F4A     		ldr	r2, .L193
 1479 0398 2169     		ldr	r1, [r4, #16]
 1480 039a 5368     		ldr	r3, [r2, #4]
 1481 039c 23F0FE43 		bic	r3, r3, #2130706432
ARM GAS  C:\Users\MadeuxS\AppData\Local\Temp\ccJrku7c.s 			page 61


 1482 03a0 43EA0163 		orr	r3, r3, r1, lsl #24
 1483 03a4 5360     		str	r3, [r2, #4]
 1484              	.LBE13:
 540:Drivers/STM32H7xx_HAL_Driver/Src/stm32h7xx_hal_rcc.c ****   {
 1485              		.loc 1 540 25 is_stmt 0 discriminator 2 view .LVU537
 1486 03a6 2368     		ldr	r3, [r4]
 1487 03a8 85E6     		b	.L63
 1488              	.L69:
 1489              	.LBB14:
 523:Drivers/STM32H7xx_HAL_Driver/Src/stm32h7xx_hal_rcc.c **** 
 1490              		.loc 1 523 9 is_stmt 1 view .LVU538
 1491 03aa 23F00103 		bic	r3, r3, #1
 1492 03ae 2B60     		str	r3, [r5]
 526:Drivers/STM32H7xx_HAL_Driver/Src/stm32h7xx_hal_rcc.c **** 
 1493              		.loc 1 526 9 view .LVU539
 526:Drivers/STM32H7xx_HAL_Driver/Src/stm32h7xx_hal_rcc.c **** 
 1494              		.loc 1 526 21 is_stmt 0 view .LVU540
 1495 03b0 FFF7FEFF 		bl	HAL_GetTick
 1496              	.LVL134:
 1497 03b4 0646     		mov	r6, r0
 1498              	.LVL135:
 529:Drivers/STM32H7xx_HAL_Driver/Src/stm32h7xx_hal_rcc.c ****         {
 1499              		.loc 1 529 9 is_stmt 1 view .LVU541
 529:Drivers/STM32H7xx_HAL_Driver/Src/stm32h7xx_hal_rcc.c ****         {
 1500              		.loc 1 529 14 is_stmt 0 view .LVU542
 1501 03b6 04E0     		b	.L74
 1502              	.LVL136:
 1503              	.L75:
 531:Drivers/STM32H7xx_HAL_Driver/Src/stm32h7xx_hal_rcc.c ****           {
 1504              		.loc 1 531 15 view .LVU543
 1505 03b8 FFF7FEFF 		bl	HAL_GetTick
 1506              	.LVL137:
 531:Drivers/STM32H7xx_HAL_Driver/Src/stm32h7xx_hal_rcc.c ****           {
 1507              		.loc 1 531 29 view .LVU544
 1508 03bc 801B     		subs	r0, r0, r6
 531:Drivers/STM32H7xx_HAL_Driver/Src/stm32h7xx_hal_rcc.c ****           {
 1509              		.loc 1 531 13 view .LVU545
 1510 03be 0228     		cmp	r0, #2
 1511 03c0 AED8     		bhi	.L61
 1512              	.L74:
 531:Drivers/STM32H7xx_HAL_Driver/Src/stm32h7xx_hal_rcc.c ****           {
 1513              		.loc 1 531 11 is_stmt 1 view .LVU546
 529:Drivers/STM32H7xx_HAL_Driver/Src/stm32h7xx_hal_rcc.c ****         {
 1514              		.loc 1 529 14 view .LVU547
 529:Drivers/STM32H7xx_HAL_Driver/Src/stm32h7xx_hal_rcc.c ****         {
 1515              		.loc 1 529 15 is_stmt 0 view .LVU548
 1516 03c2 2B68     		ldr	r3, [r5]
 529:Drivers/STM32H7xx_HAL_Driver/Src/stm32h7xx_hal_rcc.c ****         {
 1517              		.loc 1 529 14 view .LVU549
 1518 03c4 5807     		lsls	r0, r3, #29
 1519 03c6 F7D4     		bmi	.L75
 1520              	.LBE14:
 540:Drivers/STM32H7xx_HAL_Driver/Src/stm32h7xx_hal_rcc.c ****   {
 1521              		.loc 1 540 25 view .LVU550
 1522 03c8 2368     		ldr	r3, [r4]
 1523 03ca 74E6     		b	.L63
 1524              	.LVL138:
ARM GAS  C:\Users\MadeuxS\AppData\Local\Temp\ccJrku7c.s 			page 62


 1525              	.L186:
 1526              	.LBB15:
 482:Drivers/STM32H7xx_HAL_Driver/Src/stm32h7xx_hal_rcc.c ****     {
 1527              		.loc 1 482 87 discriminator 2 view .LVU551
 1528 03cc 9207     		lsls	r2, r2, #30
 1529              	.LVL139:
 482:Drivers/STM32H7xx_HAL_Driver/Src/stm32h7xx_hal_rcc.c ****     {
 1530              		.loc 1 482 87 discriminator 2 view .LVU552
 1531 03ce 7FF4FEAE 		bne	.L65
 1532 03d2 55E6     		b	.L64
 1533              	.LVL140:
 1534              	.L176:
 1535              	.LCFI5:
 1536              		.cfi_def_cfa_offset 0
 1537              		.cfi_restore 3
 1538              		.cfi_restore 4
 1539              		.cfi_restore 5
 1540              		.cfi_restore 6
 1541              		.cfi_restore 7
 1542              		.cfi_restore 14
 482:Drivers/STM32H7xx_HAL_Driver/Src/stm32h7xx_hal_rcc.c ****     {
 1543              		.loc 1 482 87 discriminator 2 view .LVU553
 1544              	.LBE15:
 415:Drivers/STM32H7xx_HAL_Driver/Src/stm32h7xx_hal_rcc.c ****   }
 1545              		.loc 1 415 12 view .LVU554
 1546 03d4 0120     		movs	r0, #1
 1547              	.LVL141:
 861:Drivers/STM32H7xx_HAL_Driver/Src/stm32h7xx_hal_rcc.c **** 
 1548              		.loc 1 861 1 view .LVU555
 1549 03d6 7047     		bx	lr
 1550              	.LVL142:
 1551              	.L80:
 1552              	.LCFI6:
 1553              		.cfi_def_cfa_offset 24
 1554              		.cfi_offset 3, -24
 1555              		.cfi_offset 4, -20
 1556              		.cfi_offset 5, -16
 1557              		.cfi_offset 6, -12
 1558              		.cfi_offset 7, -8
 1559              		.cfi_offset 14, -4
 1560              	.LBB16:
 560:Drivers/STM32H7xx_HAL_Driver/Src/stm32h7xx_hal_rcc.c ****       }
 1561              		.loc 1 560 9 is_stmt 1 discriminator 2 view .LVU556
 1562 03d8 5E4A     		ldr	r2, .L193
 1563 03da 216A     		ldr	r1, [r4, #32]
 1564 03dc D368     		ldr	r3, [r2, #12]
 1565 03de 23F07C53 		bic	r3, r3, #1056964608
 1566 03e2 43EA0163 		orr	r3, r3, r1, lsl #24
 1567 03e6 D360     		str	r3, [r2, #12]
 1568              	.LBE16:
 606:Drivers/STM32H7xx_HAL_Driver/Src/stm32h7xx_hal_rcc.c ****   {
 1569              		.loc 1 606 25 is_stmt 0 discriminator 2 view .LVU557
 1570 03e8 2368     		ldr	r3, [r4]
 1571 03ea 66E6     		b	.L76
 1572              	.L184:
 753:Drivers/STM32H7xx_HAL_Driver/Src/stm32h7xx_hal_rcc.c ****         assert_param(IS_RCC_PLLRGE_VALUE(RCC_OscInitStruct->PLL.PLLRGE));
 1573              		.loc 1 753 9 is_stmt 1 view .LVU558
ARM GAS  C:\Users\MadeuxS\AppData\Local\Temp\ccJrku7c.s 			page 63


 754:Drivers/STM32H7xx_HAL_Driver/Src/stm32h7xx_hal_rcc.c ****         assert_param(IS_RCC_PLLVCO_VALUE(RCC_OscInitStruct->PLL.PLLVCOSEL));
 1574              		.loc 1 754 9 view .LVU559
 755:Drivers/STM32H7xx_HAL_Driver/Src/stm32h7xx_hal_rcc.c ****         assert_param(IS_RCC_PLLM_VALUE(RCC_OscInitStruct->PLL.PLLM));
 1575              		.loc 1 755 9 view .LVU560
 756:Drivers/STM32H7xx_HAL_Driver/Src/stm32h7xx_hal_rcc.c ****         assert_param(IS_RCC_PLLN_VALUE(RCC_OscInitStruct->PLL.PLLN));
 1576              		.loc 1 756 9 view .LVU561
 757:Drivers/STM32H7xx_HAL_Driver/Src/stm32h7xx_hal_rcc.c ****         assert_param(IS_RCC_PLLP_VALUE(RCC_OscInitStruct->PLL.PLLP));
 1577              		.loc 1 757 9 view .LVU562
 758:Drivers/STM32H7xx_HAL_Driver/Src/stm32h7xx_hal_rcc.c ****         assert_param(IS_RCC_PLLQ_VALUE(RCC_OscInitStruct->PLL.PLLQ));
 1578              		.loc 1 758 9 view .LVU563
 759:Drivers/STM32H7xx_HAL_Driver/Src/stm32h7xx_hal_rcc.c ****         assert_param(IS_RCC_PLLR_VALUE(RCC_OscInitStruct->PLL.PLLR));
 1579              		.loc 1 759 9 view .LVU564
 760:Drivers/STM32H7xx_HAL_Driver/Src/stm32h7xx_hal_rcc.c ****         assert_param(IS_RCC_PLLFRACN_VALUE(RCC_OscInitStruct->PLL.PLLFRACN));
 1580              		.loc 1 760 9 view .LVU565
 761:Drivers/STM32H7xx_HAL_Driver/Src/stm32h7xx_hal_rcc.c **** 
 1581              		.loc 1 761 9 view .LVU566
 764:Drivers/STM32H7xx_HAL_Driver/Src/stm32h7xx_hal_rcc.c **** 
 1582              		.loc 1 764 9 view .LVU567
 767:Drivers/STM32H7xx_HAL_Driver/Src/stm32h7xx_hal_rcc.c **** 
 1583              		.loc 1 767 9 view .LVU568
 767:Drivers/STM32H7xx_HAL_Driver/Src/stm32h7xx_hal_rcc.c **** 
 1584              		.loc 1 767 21 is_stmt 0 view .LVU569
 1585 03ec FFF7FEFF 		bl	HAL_GetTick
 1586              	.LVL143:
 1587 03f0 0646     		mov	r6, r0
 1588              	.LVL144:
 770:Drivers/STM32H7xx_HAL_Driver/Src/stm32h7xx_hal_rcc.c ****         {
 1589              		.loc 1 770 9 is_stmt 1 view .LVU570
 770:Drivers/STM32H7xx_HAL_Driver/Src/stm32h7xx_hal_rcc.c ****         {
 1590              		.loc 1 770 14 is_stmt 0 view .LVU571
 1591 03f2 04E0     		b	.L118
 1592              	.LVL145:
 1593              	.L119:
 772:Drivers/STM32H7xx_HAL_Driver/Src/stm32h7xx_hal_rcc.c ****           {
 1594              		.loc 1 772 15 view .LVU572
 1595 03f4 FFF7FEFF 		bl	HAL_GetTick
 1596              	.LVL146:
 772:Drivers/STM32H7xx_HAL_Driver/Src/stm32h7xx_hal_rcc.c ****           {
 1597              		.loc 1 772 29 view .LVU573
 1598 03f8 801B     		subs	r0, r0, r6
 772:Drivers/STM32H7xx_HAL_Driver/Src/stm32h7xx_hal_rcc.c ****           {
 1599              		.loc 1 772 13 view .LVU574
 1600 03fa 0228     		cmp	r0, #2
 1601 03fc 90D8     		bhi	.L61
 1602              	.L118:
 772:Drivers/STM32H7xx_HAL_Driver/Src/stm32h7xx_hal_rcc.c ****           {
 1603              		.loc 1 772 11 is_stmt 1 view .LVU575
 770:Drivers/STM32H7xx_HAL_Driver/Src/stm32h7xx_hal_rcc.c ****         {
 1604              		.loc 1 770 14 view .LVU576
 770:Drivers/STM32H7xx_HAL_Driver/Src/stm32h7xx_hal_rcc.c ****         {
 1605              		.loc 1 770 15 is_stmt 0 view .LVU577
 1606 03fe 2B68     		ldr	r3, [r5]
 770:Drivers/STM32H7xx_HAL_Driver/Src/stm32h7xx_hal_rcc.c ****         {
 1607              		.loc 1 770 14 view .LVU578
 1608 0400 9901     		lsls	r1, r3, #6
 1609 0402 F7D4     		bmi	.L119
 779:Drivers/STM32H7xx_HAL_Driver/Src/stm32h7xx_hal_rcc.c ****                              RCC_OscInitStruct->PLL.PLLM,
ARM GAS  C:\Users\MadeuxS\AppData\Local\Temp\ccJrku7c.s 			page 64


 1610              		.loc 1 779 9 is_stmt 1 view .LVU579
 779:Drivers/STM32H7xx_HAL_Driver/Src/stm32h7xx_hal_rcc.c ****                              RCC_OscInitStruct->PLL.PLLM,
 1611              		.loc 1 779 9 view .LVU580
 1612 0404 A96A     		ldr	r1, [r5, #40]
 1613 0406 544B     		ldr	r3, .L193+4
 1614 0408 A26A     		ldr	r2, [r4, #40]
 1615 040a 0B40     		ands	r3, r3, r1
 790:Drivers/STM32H7xx_HAL_Driver/Src/stm32h7xx_hal_rcc.c **** 
 1616              		.loc 1 790 10 is_stmt 0 view .LVU581
 1617 040c 5349     		ldr	r1, .L193+8
 817:Drivers/STM32H7xx_HAL_Driver/Src/stm32h7xx_hal_rcc.c ****         {
 1618              		.loc 1 817 15 view .LVU582
 1619 040e 514E     		ldr	r6, .L193
 1620              	.LVL147:
 779:Drivers/STM32H7xx_HAL_Driver/Src/stm32h7xx_hal_rcc.c ****                              RCC_OscInitStruct->PLL.PLLM,
 1621              		.loc 1 779 9 view .LVU583
 1622 0410 1343     		orrs	r3, r3, r2
 1623 0412 E26A     		ldr	r2, [r4, #44]
 1624 0414 43EA0213 		orr	r3, r3, r2, lsl #4
 1625 0418 AB62     		str	r3, [r5, #40]
 779:Drivers/STM32H7xx_HAL_Driver/Src/stm32h7xx_hal_rcc.c ****                              RCC_OscInitStruct->PLL.PLLM,
 1626              		.loc 1 779 9 is_stmt 1 view .LVU584
 1627 041a D4E90D32 		ldrd	r3, r2, [r4, #52]
 1628 041e 013B     		subs	r3, r3, #1
 1629 0420 013A     		subs	r2, r2, #1
 1630 0422 5B02     		lsls	r3, r3, #9
 1631 0424 1204     		lsls	r2, r2, #16
 1632 0426 9BB2     		uxth	r3, r3
 1633 0428 02F4FE02 		and	r2, r2, #8323072
 1634 042c 1343     		orrs	r3, r3, r2
 1635 042e 226B     		ldr	r2, [r4, #48]
 1636 0430 013A     		subs	r2, r2, #1
 1637 0432 C2F30802 		ubfx	r2, r2, #0, #9
 1638 0436 1343     		orrs	r3, r3, r2
 1639 0438 E26B     		ldr	r2, [r4, #60]
 1640 043a 013A     		subs	r2, r2, #1
 1641 043c 1206     		lsls	r2, r2, #24
 1642 043e 02F0FE42 		and	r2, r2, #2130706432
 1643 0442 1343     		orrs	r3, r3, r2
 1644 0444 2B63     		str	r3, [r5, #48]
 779:Drivers/STM32H7xx_HAL_Driver/Src/stm32h7xx_hal_rcc.c ****                              RCC_OscInitStruct->PLL.PLLM,
 1645              		.loc 1 779 9 view .LVU585
 787:Drivers/STM32H7xx_HAL_Driver/Src/stm32h7xx_hal_rcc.c **** 
 1646              		.loc 1 787 10 view .LVU586
 1647 0446 EB6A     		ldr	r3, [r5, #44]
 1648 0448 23F00103 		bic	r3, r3, #1
 1649 044c EB62     		str	r3, [r5, #44]
 790:Drivers/STM32H7xx_HAL_Driver/Src/stm32h7xx_hal_rcc.c **** 
 1650              		.loc 1 790 10 view .LVU587
 1651 044e 6A6B     		ldr	r2, [r5, #52]
 1652 0450 A36C     		ldr	r3, [r4, #72]
 1653 0452 1140     		ands	r1, r1, r2
 1654 0454 41EAC301 		orr	r1, r1, r3, lsl #3
 1655 0458 6963     		str	r1, [r5, #52]
 793:Drivers/STM32H7xx_HAL_Driver/Src/stm32h7xx_hal_rcc.c **** 
 1656              		.loc 1 793 9 view .LVU588
 1657 045a EB6A     		ldr	r3, [r5, #44]
ARM GAS  C:\Users\MadeuxS\AppData\Local\Temp\ccJrku7c.s 			page 65


 1658 045c 226C     		ldr	r2, [r4, #64]
 1659 045e 23F00C03 		bic	r3, r3, #12
 1660 0462 1343     		orrs	r3, r3, r2
 1661 0464 EB62     		str	r3, [r5, #44]
 796:Drivers/STM32H7xx_HAL_Driver/Src/stm32h7xx_hal_rcc.c **** 
 1662              		.loc 1 796 9 view .LVU589
 1663 0466 EB6A     		ldr	r3, [r5, #44]
 1664 0468 626C     		ldr	r2, [r4, #68]
 1665 046a 23F00203 		bic	r3, r3, #2
 1666 046e 1343     		orrs	r3, r3, r2
 1667 0470 EB62     		str	r3, [r5, #44]
 799:Drivers/STM32H7xx_HAL_Driver/Src/stm32h7xx_hal_rcc.c **** 
 1668              		.loc 1 799 10 view .LVU590
 1669 0472 EB6A     		ldr	r3, [r5, #44]
 1670 0474 43F48033 		orr	r3, r3, #65536
 1671 0478 EB62     		str	r3, [r5, #44]
 802:Drivers/STM32H7xx_HAL_Driver/Src/stm32h7xx_hal_rcc.c **** 
 1672              		.loc 1 802 10 view .LVU591
 1673 047a EB6A     		ldr	r3, [r5, #44]
 1674 047c 43F40033 		orr	r3, r3, #131072
 1675 0480 EB62     		str	r3, [r5, #44]
 805:Drivers/STM32H7xx_HAL_Driver/Src/stm32h7xx_hal_rcc.c **** 
 1676              		.loc 1 805 10 view .LVU592
 1677 0482 EB6A     		ldr	r3, [r5, #44]
 1678 0484 43F48023 		orr	r3, r3, #262144
 1679 0488 EB62     		str	r3, [r5, #44]
 808:Drivers/STM32H7xx_HAL_Driver/Src/stm32h7xx_hal_rcc.c **** 
 1680              		.loc 1 808 10 view .LVU593
 1681 048a EB6A     		ldr	r3, [r5, #44]
 1682 048c 43F00103 		orr	r3, r3, #1
 1683 0490 EB62     		str	r3, [r5, #44]
 811:Drivers/STM32H7xx_HAL_Driver/Src/stm32h7xx_hal_rcc.c **** 
 1684              		.loc 1 811 9 view .LVU594
 1685 0492 2B68     		ldr	r3, [r5]
 1686 0494 43F08073 		orr	r3, r3, #16777216
 1687 0498 2B60     		str	r3, [r5]
 814:Drivers/STM32H7xx_HAL_Driver/Src/stm32h7xx_hal_rcc.c **** 
 1688              		.loc 1 814 9 view .LVU595
 814:Drivers/STM32H7xx_HAL_Driver/Src/stm32h7xx_hal_rcc.c **** 
 1689              		.loc 1 814 21 is_stmt 0 view .LVU596
 1690 049a FFF7FEFF 		bl	HAL_GetTick
 1691              	.LVL148:
 1692 049e 0446     		mov	r4, r0
 1693              	.LVL149:
 817:Drivers/STM32H7xx_HAL_Driver/Src/stm32h7xx_hal_rcc.c ****         {
 1694              		.loc 1 817 9 is_stmt 1 view .LVU597
 817:Drivers/STM32H7xx_HAL_Driver/Src/stm32h7xx_hal_rcc.c ****         {
 1695              		.loc 1 817 14 is_stmt 0 view .LVU598
 1696 04a0 05E0     		b	.L120
 1697              	.LVL150:
 1698              	.L121:
 819:Drivers/STM32H7xx_HAL_Driver/Src/stm32h7xx_hal_rcc.c ****           {
 1699              		.loc 1 819 15 view .LVU599
 1700 04a2 FFF7FEFF 		bl	HAL_GetTick
 1701              	.LVL151:
 819:Drivers/STM32H7xx_HAL_Driver/Src/stm32h7xx_hal_rcc.c ****           {
 1702              		.loc 1 819 29 view .LVU600
ARM GAS  C:\Users\MadeuxS\AppData\Local\Temp\ccJrku7c.s 			page 66


 1703 04a6 001B     		subs	r0, r0, r4
 819:Drivers/STM32H7xx_HAL_Driver/Src/stm32h7xx_hal_rcc.c ****           {
 1704              		.loc 1 819 13 view .LVU601
 1705 04a8 0228     		cmp	r0, #2
 1706 04aa 3FF639AF 		bhi	.L61
 1707              	.L120:
 819:Drivers/STM32H7xx_HAL_Driver/Src/stm32h7xx_hal_rcc.c ****           {
 1708              		.loc 1 819 11 is_stmt 1 view .LVU602
 817:Drivers/STM32H7xx_HAL_Driver/Src/stm32h7xx_hal_rcc.c ****         {
 1709              		.loc 1 817 14 view .LVU603
 817:Drivers/STM32H7xx_HAL_Driver/Src/stm32h7xx_hal_rcc.c ****         {
 1710              		.loc 1 817 15 is_stmt 0 view .LVU604
 1711 04ae 3368     		ldr	r3, [r6]
 817:Drivers/STM32H7xx_HAL_Driver/Src/stm32h7xx_hal_rcc.c ****         {
 1712              		.loc 1 817 14 view .LVU605
 1713 04b0 9A01     		lsls	r2, r3, #6
 1714 04b2 F6D5     		bpl	.L121
 1715 04b4 53E6     		b	.L103
 1716              	.LVL152:
 1717              	.L116:
 846:Drivers/STM32H7xx_HAL_Driver/Src/stm32h7xx_hal_rcc.c ****       temp2_pllckcfg = RCC->PLL1DIVR;
 1718              		.loc 1 846 7 is_stmt 1 view .LVU606
 848:Drivers/STM32H7xx_HAL_Driver/Src/stm32h7xx_hal_rcc.c **** 	 (READ_BIT(temp1_pllckcfg, RCC_PLLCKSELR_PLLSRC) != RCC_OscInitStruct->PLL.PLLSource) ||
 1719              		.loc 1 848 9 is_stmt 0 view .LVU607
 1720 04b6 0128     		cmp	r0, #1
 846:Drivers/STM32H7xx_HAL_Driver/Src/stm32h7xx_hal_rcc.c ****       temp2_pllckcfg = RCC->PLL1DIVR;
 1721              		.loc 1 846 22 view .LVU608
 1722 04b8 AA6A     		ldr	r2, [r5, #40]
 1723              	.LVL153:
 847:Drivers/STM32H7xx_HAL_Driver/Src/stm32h7xx_hal_rcc.c ****       if(((RCC_OscInitStruct->PLL.PLLState) == RCC_PLL_OFF) ||
 1724              		.loc 1 847 7 is_stmt 1 view .LVU609
 847:Drivers/STM32H7xx_HAL_Driver/Src/stm32h7xx_hal_rcc.c ****       if(((RCC_OscInitStruct->PLL.PLLState) == RCC_PLL_OFF) ||
 1725              		.loc 1 847 22 is_stmt 0 view .LVU610
 1726 04ba 2D6B     		ldr	r5, [r5, #48]
 1727              	.LVL154:
 848:Drivers/STM32H7xx_HAL_Driver/Src/stm32h7xx_hal_rcc.c **** 	 (READ_BIT(temp1_pllckcfg, RCC_PLLCKSELR_PLLSRC) != RCC_OscInitStruct->PLL.PLLSource) ||
 1728              		.loc 1 848 7 is_stmt 1 view .LVU611
 848:Drivers/STM32H7xx_HAL_Driver/Src/stm32h7xx_hal_rcc.c **** 	 (READ_BIT(temp1_pllckcfg, RCC_PLLCKSELR_PLLSRC) != RCC_OscInitStruct->PLL.PLLSource) ||
 1729              		.loc 1 848 9 is_stmt 0 view .LVU612
 1730 04bc 3FF450AE 		beq	.L48
 849:Drivers/STM32H7xx_HAL_Driver/Src/stm32h7xx_hal_rcc.c ****          ((READ_BIT(temp1_pllckcfg, RCC_PLLCKSELR_DIVM1) >> RCC_PLLCKSELR_DIVM1_Pos) != RCC_OscInit
 1731              		.loc 1 849 4 discriminator 1 view .LVU613
 1732 04c0 02F00303 		and	r3, r2, #3
 848:Drivers/STM32H7xx_HAL_Driver/Src/stm32h7xx_hal_rcc.c **** 	 (READ_BIT(temp1_pllckcfg, RCC_PLLCKSELR_PLLSRC) != RCC_OscInitStruct->PLL.PLLSource) ||
 1733              		.loc 1 848 61 discriminator 1 view .LVU614
 1734 04c4 A16A     		ldr	r1, [r4, #40]
 1735 04c6 8B42     		cmp	r3, r1
 1736 04c8 7FF4C8AE 		bne	.L129
 850:Drivers/STM32H7xx_HAL_Driver/Src/stm32h7xx_hal_rcc.c ****          (READ_BIT(temp2_pllckcfg, RCC_PLL1DIVR_N1) != (RCC_OscInitStruct->PLL.PLLN - 1U)) ||
 1737              		.loc 1 850 58 view .LVU615
 1738 04cc C2F30512 		ubfx	r2, r2, #4, #6
 1739              	.LVL155:
 849:Drivers/STM32H7xx_HAL_Driver/Src/stm32h7xx_hal_rcc.c ****          ((READ_BIT(temp1_pllckcfg, RCC_PLLCKSELR_DIVM1) >> RCC_PLLCKSELR_DIVM1_Pos) != RCC_OscInit
 1740              		.loc 1 849 88 view .LVU616
 1741 04d0 E36A     		ldr	r3, [r4, #44]
 1742 04d2 9A42     		cmp	r2, r3
 1743 04d4 7FF4C2AE 		bne	.L129
ARM GAS  C:\Users\MadeuxS\AppData\Local\Temp\ccJrku7c.s 			page 67


 851:Drivers/STM32H7xx_HAL_Driver/Src/stm32h7xx_hal_rcc.c ****          ((READ_BIT(temp2_pllckcfg, RCC_PLL1DIVR_P1) >> RCC_PLL1DIVR_P1_Pos) != (RCC_OscInitStruct-
 1744              		.loc 1 851 85 view .LVU617
 1745 04d8 236B     		ldr	r3, [r4, #48]
 851:Drivers/STM32H7xx_HAL_Driver/Src/stm32h7xx_hal_rcc.c ****          ((READ_BIT(temp2_pllckcfg, RCC_PLL1DIVR_P1) >> RCC_PLL1DIVR_P1_Pos) != (RCC_OscInitStruct-
 1746              		.loc 1 851 11 view .LVU618
 1747 04da C5F30802 		ubfx	r2, r5, #0, #9
 851:Drivers/STM32H7xx_HAL_Driver/Src/stm32h7xx_hal_rcc.c ****          ((READ_BIT(temp2_pllckcfg, RCC_PLL1DIVR_P1) >> RCC_PLL1DIVR_P1_Pos) != (RCC_OscInitStruct-
 1748              		.loc 1 851 85 view .LVU619
 1749 04de 013B     		subs	r3, r3, #1
 850:Drivers/STM32H7xx_HAL_Driver/Src/stm32h7xx_hal_rcc.c ****          (READ_BIT(temp2_pllckcfg, RCC_PLL1DIVR_N1) != (RCC_OscInitStruct->PLL.PLLN - 1U)) ||
 1750              		.loc 1 850 118 view .LVU620
 1751 04e0 9A42     		cmp	r2, r3
 1752 04e2 7FF4BBAE 		bne	.L129
 852:Drivers/STM32H7xx_HAL_Driver/Src/stm32h7xx_hal_rcc.c ****          ((READ_BIT(temp2_pllckcfg, RCC_PLL1DIVR_Q1) >> RCC_PLL1DIVR_Q1_Pos) != (RCC_OscInitStruct-
 1753              		.loc 1 852 110 view .LVU621
 1754 04e6 636B     		ldr	r3, [r4, #52]
 852:Drivers/STM32H7xx_HAL_Driver/Src/stm32h7xx_hal_rcc.c ****          ((READ_BIT(temp2_pllckcfg, RCC_PLL1DIVR_Q1) >> RCC_PLL1DIVR_Q1_Pos) != (RCC_OscInitStruct-
 1755              		.loc 1 852 54 view .LVU622
 1756 04e8 C5F34622 		ubfx	r2, r5, #9, #7
 852:Drivers/STM32H7xx_HAL_Driver/Src/stm32h7xx_hal_rcc.c ****          ((READ_BIT(temp2_pllckcfg, RCC_PLL1DIVR_Q1) >> RCC_PLL1DIVR_Q1_Pos) != (RCC_OscInitStruct-
 1757              		.loc 1 852 110 view .LVU623
 1758 04ec 013B     		subs	r3, r3, #1
 851:Drivers/STM32H7xx_HAL_Driver/Src/stm32h7xx_hal_rcc.c ****          ((READ_BIT(temp2_pllckcfg, RCC_PLL1DIVR_P1) >> RCC_PLL1DIVR_P1_Pos) != (RCC_OscInitStruct-
 1759              		.loc 1 851 92 view .LVU624
 1760 04ee 9A42     		cmp	r2, r3
 1761 04f0 7FF4B4AE 		bne	.L129
 853:Drivers/STM32H7xx_HAL_Driver/Src/stm32h7xx_hal_rcc.c ****          ((READ_BIT(temp2_pllckcfg, RCC_PLL1DIVR_R1) >> RCC_PLL1DIVR_R1_Pos) != (RCC_OscInitStruct-
 1762              		.loc 1 853 110 view .LVU625
 1763 04f4 A36B     		ldr	r3, [r4, #56]
 853:Drivers/STM32H7xx_HAL_Driver/Src/stm32h7xx_hal_rcc.c ****          ((READ_BIT(temp2_pllckcfg, RCC_PLL1DIVR_R1) >> RCC_PLL1DIVR_R1_Pos) != (RCC_OscInitStruct-
 1764              		.loc 1 853 54 view .LVU626
 1765 04f6 C5F30642 		ubfx	r2, r5, #16, #7
 853:Drivers/STM32H7xx_HAL_Driver/Src/stm32h7xx_hal_rcc.c ****          ((READ_BIT(temp2_pllckcfg, RCC_PLL1DIVR_R1) >> RCC_PLL1DIVR_R1_Pos) != (RCC_OscInitStruct-
 1766              		.loc 1 853 110 view .LVU627
 1767 04fa 013B     		subs	r3, r3, #1
 852:Drivers/STM32H7xx_HAL_Driver/Src/stm32h7xx_hal_rcc.c ****          ((READ_BIT(temp2_pllckcfg, RCC_PLL1DIVR_Q1) >> RCC_PLL1DIVR_Q1_Pos) != (RCC_OscInitStruct-
 1768              		.loc 1 852 117 view .LVU628
 1769 04fc 9A42     		cmp	r2, r3
 1770 04fe 7FF4ADAE 		bne	.L129
 854:Drivers/STM32H7xx_HAL_Driver/Src/stm32h7xx_hal_rcc.c ****       {
 1771              		.loc 1 854 110 view .LVU629
 1772 0502 E06B     		ldr	r0, [r4, #60]
 854:Drivers/STM32H7xx_HAL_Driver/Src/stm32h7xx_hal_rcc.c ****       {
 1773              		.loc 1 854 54 view .LVU630
 1774 0504 C5F30665 		ubfx	r5, r5, #24, #7
 1775              	.LVL156:
 854:Drivers/STM32H7xx_HAL_Driver/Src/stm32h7xx_hal_rcc.c ****       {
 1776              		.loc 1 854 110 view .LVU631
 1777 0508 0138     		subs	r0, r0, #1
 860:Drivers/STM32H7xx_HAL_Driver/Src/stm32h7xx_hal_rcc.c **** }
 1778              		.loc 1 860 10 view .LVU632
 1779 050a 281A     		subs	r0, r5, r0
 1780 050c 18BF     		it	ne
 1781 050e 0120     		movne	r0, #1
 861:Drivers/STM32H7xx_HAL_Driver/Src/stm32h7xx_hal_rcc.c **** 
 1782              		.loc 1 861 1 view .LVU633
 1783 0510 F8BD     		pop	{r3, r4, r5, r6, r7, pc}
ARM GAS  C:\Users\MadeuxS\AppData\Local\Temp\ccJrku7c.s 			page 68


 1784              	.LVL157:
 1785              	.L180:
 1786              	.LBB17:
 439:Drivers/STM32H7xx_HAL_Driver/Src/stm32h7xx_hal_rcc.c **** 
 1787              		.loc 1 439 7 is_stmt 1 discriminator 7 view .LVU634
 1788 0512 42F48022 		orr	r2, r2, #262144
 1789 0516 1A60     		str	r2, [r3]
 439:Drivers/STM32H7xx_HAL_Driver/Src/stm32h7xx_hal_rcc.c **** 
 1790              		.loc 1 439 7 discriminator 7 view .LVU635
 1791 0518 1A68     		ldr	r2, [r3]
 1792 051a 42F48032 		orr	r2, r2, #65536
 1793 051e 1A60     		str	r2, [r3]
 1794 0520 96E5     		b	.L54
 1795              	.LVL158:
 1796              	.L182:
 439:Drivers/STM32H7xx_HAL_Driver/Src/stm32h7xx_hal_rcc.c **** 
 1797              		.loc 1 439 7 is_stmt 0 discriminator 7 view .LVU636
 1798              	.LBE17:
 1799              	.LBB18:
 493:Drivers/STM32H7xx_HAL_Driver/Src/stm32h7xx_hal_rcc.c ****       }
 1800              		.loc 1 493 9 is_stmt 1 discriminator 3 view .LVU637
 1801 0522 0C4A     		ldr	r2, .L193
 1802 0524 5368     		ldr	r3, [r2, #4]
 1803 0526 23F47C33 		bic	r3, r3, #258048
 1804 052a 43F40033 		orr	r3, r3, #131072
 1805 052e 5360     		str	r3, [r2, #4]
 1806              	.LBE18:
 540:Drivers/STM32H7xx_HAL_Driver/Src/stm32h7xx_hal_rcc.c ****   {
 1807              		.loc 1 540 25 is_stmt 0 discriminator 3 view .LVU638
 1808 0530 2368     		ldr	r3, [r4]
 1809              	.LBB19:
 1810 0532 C0E5     		b	.L63
 1811              	.LVL159:
 1812              	.L188:
 540:Drivers/STM32H7xx_HAL_Driver/Src/stm32h7xx_hal_rcc.c ****   {
 1813              		.loc 1 540 25 discriminator 3 view .LVU639
 1814              	.LBE19:
 711:Drivers/STM32H7xx_HAL_Driver/Src/stm32h7xx_hal_rcc.c ****     /* Check the LSE State */
 1815              		.loc 1 711 5 is_stmt 1 discriminator 4 view .LVU640
 1816 0534 074D     		ldr	r5, .L193
 735:Drivers/STM32H7xx_HAL_Driver/Src/stm32h7xx_hal_rcc.c ****         {
 1817              		.loc 1 735 11 is_stmt 0 discriminator 4 view .LVU641
 1818 0536 41F28837 		movw	r7, #5000
 711:Drivers/STM32H7xx_HAL_Driver/Src/stm32h7xx_hal_rcc.c ****     /* Check the LSE State */
 1819              		.loc 1 711 5 discriminator 4 view .LVU642
 1820 053a 2B6F     		ldr	r3, [r5, #112]
 1821 053c 23F00103 		bic	r3, r3, #1
 1822 0540 2B67     		str	r3, [r5, #112]
 711:Drivers/STM32H7xx_HAL_Driver/Src/stm32h7xx_hal_rcc.c ****     /* Check the LSE State */
 1823              		.loc 1 711 5 is_stmt 1 discriminator 4 view .LVU643
 1824 0542 2B6F     		ldr	r3, [r5, #112]
 1825 0544 23F00403 		bic	r3, r3, #4
 1826 0548 2B67     		str	r3, [r5, #112]
 711:Drivers/STM32H7xx_HAL_Driver/Src/stm32h7xx_hal_rcc.c ****     /* Check the LSE State */
 1827              		.loc 1 711 5 discriminator 4 view .LVU644
 713:Drivers/STM32H7xx_HAL_Driver/Src/stm32h7xx_hal_rcc.c ****     {
 1828              		.loc 1 713 5 discriminator 4 view .LVU645
ARM GAS  C:\Users\MadeuxS\AppData\Local\Temp\ccJrku7c.s 			page 69


 730:Drivers/STM32H7xx_HAL_Driver/Src/stm32h7xx_hal_rcc.c **** 
 1829              		.loc 1 730 7 discriminator 4 view .LVU646
 730:Drivers/STM32H7xx_HAL_Driver/Src/stm32h7xx_hal_rcc.c **** 
 1830              		.loc 1 730 19 is_stmt 0 discriminator 4 view .LVU647
 1831 054a FFF7FEFF 		bl	HAL_GetTick
 1832              	.LVL160:
 1833 054e 0646     		mov	r6, r0
 1834              	.LVL161:
 733:Drivers/STM32H7xx_HAL_Driver/Src/stm32h7xx_hal_rcc.c ****       {
 1835              		.loc 1 733 7 is_stmt 1 discriminator 4 view .LVU648
 733:Drivers/STM32H7xx_HAL_Driver/Src/stm32h7xx_hal_rcc.c ****       {
 1836              		.loc 1 733 12 is_stmt 0 discriminator 4 view .LVU649
 1837 0550 0CE0     		b	.L109
 1838              	.L194:
 1839 0552 00BF     		.align	2
 1840              	.L193:
 1841 0554 00440258 		.word	1476543488
 1842 0558 0CFCFFFF 		.word	-1012
 1843 055c 0700FFFF 		.word	-65529
 1844              	.LVL162:
 1845              	.L115:
 735:Drivers/STM32H7xx_HAL_Driver/Src/stm32h7xx_hal_rcc.c ****         {
 1846              		.loc 1 735 13 view .LVU650
 1847 0560 FFF7FEFF 		bl	HAL_GetTick
 1848              	.LVL163:
 735:Drivers/STM32H7xx_HAL_Driver/Src/stm32h7xx_hal_rcc.c ****         {
 1849              		.loc 1 735 27 view .LVU651
 1850 0564 801B     		subs	r0, r0, r6
 735:Drivers/STM32H7xx_HAL_Driver/Src/stm32h7xx_hal_rcc.c ****         {
 1851              		.loc 1 735 11 view .LVU652
 1852 0566 B842     		cmp	r0, r7
 1853 0568 3FF6DAAE 		bhi	.L61
 1854              	.L109:
 735:Drivers/STM32H7xx_HAL_Driver/Src/stm32h7xx_hal_rcc.c ****         {
 1855              		.loc 1 735 9 is_stmt 1 view .LVU653
 733:Drivers/STM32H7xx_HAL_Driver/Src/stm32h7xx_hal_rcc.c ****       {
 1856              		.loc 1 733 12 view .LVU654
 733:Drivers/STM32H7xx_HAL_Driver/Src/stm32h7xx_hal_rcc.c ****       {
 1857              		.loc 1 733 13 is_stmt 0 view .LVU655
 1858 056c 2B6F     		ldr	r3, [r5, #112]
 733:Drivers/STM32H7xx_HAL_Driver/Src/stm32h7xx_hal_rcc.c ****       {
 1859              		.loc 1 733 12 view .LVU656
 1860 056e 9807     		lsls	r0, r3, #30
 1861 0570 F6D4     		bmi	.L115
 1862 0572 D7E5     		b	.L114
 1863              	.L85:
 1864              	.LBB20:
 584:Drivers/STM32H7xx_HAL_Driver/Src/stm32h7xx_hal_rcc.c ****       }
 1865              		.loc 1 584 9 is_stmt 1 discriminator 2 view .LVU657
 1866 0574 EB68     		ldr	r3, [r5, #12]
 1867 0576 226A     		ldr	r2, [r4, #32]
 1868 0578 23F07C53 		bic	r3, r3, #1056964608
 1869 057c 43EA0263 		orr	r3, r3, r2, lsl #24
 1870 0580 EB60     		str	r3, [r5, #12]
 1871              	.LBE20:
 606:Drivers/STM32H7xx_HAL_Driver/Src/stm32h7xx_hal_rcc.c ****   {
 1872              		.loc 1 606 25 is_stmt 0 discriminator 2 view .LVU658
ARM GAS  C:\Users\MadeuxS\AppData\Local\Temp\ccJrku7c.s 			page 70


 1873 0582 2368     		ldr	r3, [r4]
 1874 0584 99E5     		b	.L76
 1875              	.L72:
 1876              	.LBB21:
 518:Drivers/STM32H7xx_HAL_Driver/Src/stm32h7xx_hal_rcc.c ****       }
 1877              		.loc 1 518 9 is_stmt 1 discriminator 2 view .LVU659
 1878 0586 6B68     		ldr	r3, [r5, #4]
 1879 0588 2269     		ldr	r2, [r4, #16]
 1880 058a 23F0FE43 		bic	r3, r3, #2130706432
 1881 058e 43EA0263 		orr	r3, r3, r2, lsl #24
 1882 0592 6B60     		str	r3, [r5, #4]
 1883              	.LBE21:
 540:Drivers/STM32H7xx_HAL_Driver/Src/stm32h7xx_hal_rcc.c ****   {
 1884              		.loc 1 540 25 is_stmt 0 discriminator 2 view .LVU660
 1885 0594 2368     		ldr	r3, [r4]
 1886 0596 8EE5     		b	.L63
 1887              	.L187:
 711:Drivers/STM32H7xx_HAL_Driver/Src/stm32h7xx_hal_rcc.c ****     /* Check the LSE State */
 1888              		.loc 1 711 5 is_stmt 1 discriminator 1 view .LVU661
 1889 0598 0B4A     		ldr	r2, .L195
 1890 059a 136F     		ldr	r3, [r2, #112]
 1891 059c 43F00103 		orr	r3, r3, #1
 1892 05a0 1367     		str	r3, [r2, #112]
 711:Drivers/STM32H7xx_HAL_Driver/Src/stm32h7xx_hal_rcc.c ****     /* Check the LSE State */
 1893              		.loc 1 711 5 discriminator 1 view .LVU662
 713:Drivers/STM32H7xx_HAL_Driver/Src/stm32h7xx_hal_rcc.c ****     {
 1894              		.loc 1 713 5 discriminator 1 view .LVU663
 1895 05a2 94E6     		b	.L107
 1896              	.LVL164:
 1897              	.L190:
 1898              	.LBB22:
 560:Drivers/STM32H7xx_HAL_Driver/Src/stm32h7xx_hal_rcc.c ****       }
 1899              		.loc 1 560 9 discriminator 3 view .LVU664
 1900 05a4 084A     		ldr	r2, .L195
 1901 05a6 5368     		ldr	r3, [r2, #4]
 1902 05a8 23F0F843 		bic	r3, r3, #2080374784
 1903 05ac 43F08043 		orr	r3, r3, #1073741824
 1904 05b0 5360     		str	r3, [r2, #4]
 1905              	.LBE22:
 606:Drivers/STM32H7xx_HAL_Driver/Src/stm32h7xx_hal_rcc.c ****   {
 1906              		.loc 1 606 25 is_stmt 0 discriminator 3 view .LVU665
 1907 05b2 2368     		ldr	r3, [r4]
 1908              	.LBB23:
 1909 05b4 81E5     		b	.L76
 1910              	.LVL165:
 1911              	.L189:
 606:Drivers/STM32H7xx_HAL_Driver/Src/stm32h7xx_hal_rcc.c ****   {
 1912              		.loc 1 606 25 discriminator 3 view .LVU666
 1913              	.LBE23:
 711:Drivers/STM32H7xx_HAL_Driver/Src/stm32h7xx_hal_rcc.c ****     /* Check the LSE State */
 1914              		.loc 1 711 5 is_stmt 1 discriminator 7 view .LVU667
 1915 05b6 42F00402 		orr	r2, r2, #4
 1916 05ba 1A67     		str	r2, [r3, #112]
 711:Drivers/STM32H7xx_HAL_Driver/Src/stm32h7xx_hal_rcc.c ****     /* Check the LSE State */
 1917              		.loc 1 711 5 discriminator 7 view .LVU668
 1918 05bc 1A6F     		ldr	r2, [r3, #112]
 1919 05be 42F00102 		orr	r2, r2, #1
ARM GAS  C:\Users\MadeuxS\AppData\Local\Temp\ccJrku7c.s 			page 71


 1920 05c2 1A67     		str	r2, [r3, #112]
 1921 05c4 83E6     		b	.L107
 1922              	.L196:
 1923 05c6 00BF     		.align	2
 1924              	.L195:
 1925 05c8 00440258 		.word	1476543488
 1926              		.cfi_endproc
 1927              	.LFE145:
 1929              		.section	.text.HAL_RCC_MCOConfig,"ax",%progbits
 1930              		.align	1
 1931              		.p2align 2,,3
 1932              		.global	HAL_RCC_MCOConfig
 1933              		.syntax unified
 1934              		.thumb
 1935              		.thumb_func
 1936              		.fpu fpv5-d16
 1938              	HAL_RCC_MCOConfig:
 1939              	.LVL166:
 1940              	.LFB147:
1254:Drivers/STM32H7xx_HAL_Driver/Src/stm32h7xx_hal_rcc.c ****   GPIO_InitTypeDef GPIO_InitStruct;
 1941              		.loc 1 1254 1 view -0
 1942              		.cfi_startproc
 1943              		@ args = 0, pretend = 0, frame = 32
 1944              		@ frame_needed = 0, uses_anonymous_args = 0
1255:Drivers/STM32H7xx_HAL_Driver/Src/stm32h7xx_hal_rcc.c ****   /* Check the parameters */
 1945              		.loc 1 1255 3 view .LVU670
1257:Drivers/STM32H7xx_HAL_Driver/Src/stm32h7xx_hal_rcc.c ****   assert_param(IS_RCC_MCODIV(RCC_MCODiv));
 1946              		.loc 1 1257 3 view .LVU671
1258:Drivers/STM32H7xx_HAL_Driver/Src/stm32h7xx_hal_rcc.c ****   /* RCC_MCO1 */
 1947              		.loc 1 1258 3 view .LVU672
1260:Drivers/STM32H7xx_HAL_Driver/Src/stm32h7xx_hal_rcc.c ****   {
 1948              		.loc 1 1260 3 view .LVU673
1254:Drivers/STM32H7xx_HAL_Driver/Src/stm32h7xx_hal_rcc.c ****   GPIO_InitTypeDef GPIO_InitStruct;
 1949              		.loc 1 1254 1 is_stmt 0 view .LVU674
 1950 0000 70B5     		push	{r4, r5, r6, lr}
 1951              	.LCFI7:
 1952              		.cfi_def_cfa_offset 16
 1953              		.cfi_offset 4, -16
 1954              		.cfi_offset 5, -12
 1955              		.cfi_offset 6, -8
 1956              		.cfi_offset 14, -4
 1957              	.LBB24:
1265:Drivers/STM32H7xx_HAL_Driver/Src/stm32h7xx_hal_rcc.c **** 
 1958              		.loc 1 1265 5 view .LVU675
 1959 0002 254E     		ldr	r6, .L201
 1960              	.LBE24:
1254:Drivers/STM32H7xx_HAL_Driver/Src/stm32h7xx_hal_rcc.c ****   GPIO_InitTypeDef GPIO_InitStruct;
 1961              		.loc 1 1254 1 view .LVU676
 1962 0004 88B0     		sub	sp, sp, #32
 1963              	.LCFI8:
 1964              		.cfi_def_cfa_offset 48
1254:Drivers/STM32H7xx_HAL_Driver/Src/stm32h7xx_hal_rcc.c ****   GPIO_InitTypeDef GPIO_InitStruct;
 1965              		.loc 1 1254 1 view .LVU677
 1966 0006 0D46     		mov	r5, r1
 1967 0008 1446     		mov	r4, r2
 1968              	.LBB25:
1265:Drivers/STM32H7xx_HAL_Driver/Src/stm32h7xx_hal_rcc.c **** 
ARM GAS  C:\Users\MadeuxS\AppData\Local\Temp\ccJrku7c.s 			page 72


 1969              		.loc 1 1265 5 view .LVU678
 1970 000a D6F8E030 		ldr	r3, [r6, #224]
 1971              	.LBE25:
1260:Drivers/STM32H7xx_HAL_Driver/Src/stm32h7xx_hal_rcc.c ****   {
 1972              		.loc 1 1260 5 view .LVU679
 1973 000e F8B9     		cbnz	r0, .L198
1262:Drivers/STM32H7xx_HAL_Driver/Src/stm32h7xx_hal_rcc.c **** 
 1974              		.loc 1 1262 5 is_stmt 1 view .LVU680
1265:Drivers/STM32H7xx_HAL_Driver/Src/stm32h7xx_hal_rcc.c **** 
 1975              		.loc 1 1265 5 view .LVU681
 1976              	.LBB26:
1265:Drivers/STM32H7xx_HAL_Driver/Src/stm32h7xx_hal_rcc.c **** 
 1977              		.loc 1 1265 5 view .LVU682
1265:Drivers/STM32H7xx_HAL_Driver/Src/stm32h7xx_hal_rcc.c **** 
 1978              		.loc 1 1265 5 view .LVU683
 1979 0010 43F00103 		orr	r3, r3, #1
 1980              	.LBE26:
1268:Drivers/STM32H7xx_HAL_Driver/Src/stm32h7xx_hal_rcc.c ****     GPIO_InitStruct.Mode = GPIO_MODE_AF_PP;
 1981              		.loc 1 1268 25 is_stmt 0 view .LVU684
 1982 0014 4FF48072 		mov	r2, #256
 1983              	.LVL167:
1273:Drivers/STM32H7xx_HAL_Driver/Src/stm32h7xx_hal_rcc.c **** 
 1984              		.loc 1 1273 5 view .LVU685
 1985 0018 02A9     		add	r1, sp, #8
 1986              	.LVL168:
 1987              	.LBB27:
1265:Drivers/STM32H7xx_HAL_Driver/Src/stm32h7xx_hal_rcc.c **** 
 1988              		.loc 1 1265 5 view .LVU686
 1989 001a C6F8E030 		str	r3, [r6, #224]
1265:Drivers/STM32H7xx_HAL_Driver/Src/stm32h7xx_hal_rcc.c **** 
 1990              		.loc 1 1265 5 is_stmt 1 view .LVU687
 1991 001e D6F8E030 		ldr	r3, [r6, #224]
 1992              	.LBE27:
1272:Drivers/STM32H7xx_HAL_Driver/Src/stm32h7xx_hal_rcc.c ****     HAL_GPIO_Init(MCO1_GPIO_PORT, &GPIO_InitStruct);
 1993              		.loc 1 1272 31 is_stmt 0 view .LVU688
 1994 0022 0690     		str	r0, [sp, #24]
 1995              	.LBB28:
1265:Drivers/STM32H7xx_HAL_Driver/Src/stm32h7xx_hal_rcc.c **** 
 1996              		.loc 1 1265 5 view .LVU689
 1997 0024 03F00103 		and	r3, r3, #1
 1998              	.LBE28:
1273:Drivers/STM32H7xx_HAL_Driver/Src/stm32h7xx_hal_rcc.c **** 
 1999              		.loc 1 1273 5 view .LVU690
 2000 0028 1C48     		ldr	r0, .L201+4
 2001              	.LVL169:
 2002              	.LBB29:
1265:Drivers/STM32H7xx_HAL_Driver/Src/stm32h7xx_hal_rcc.c **** 
 2003              		.loc 1 1265 5 view .LVU691
 2004 002a 0093     		str	r3, [sp]
1265:Drivers/STM32H7xx_HAL_Driver/Src/stm32h7xx_hal_rcc.c **** 
 2005              		.loc 1 1265 5 is_stmt 1 view .LVU692
 2006 002c 009B     		ldr	r3, [sp]
 2007              	.LBE29:
1265:Drivers/STM32H7xx_HAL_Driver/Src/stm32h7xx_hal_rcc.c **** 
 2008              		.loc 1 1265 5 view .LVU693
1268:Drivers/STM32H7xx_HAL_Driver/Src/stm32h7xx_hal_rcc.c ****     GPIO_InitStruct.Mode = GPIO_MODE_AF_PP;
 2009              		.loc 1 1268 5 view .LVU694
ARM GAS  C:\Users\MadeuxS\AppData\Local\Temp\ccJrku7c.s 			page 73


1269:Drivers/STM32H7xx_HAL_Driver/Src/stm32h7xx_hal_rcc.c ****     GPIO_InitStruct.Speed = GPIO_SPEED_FREQ_VERY_HIGH;
 2010              		.loc 1 1269 5 view .LVU695
1270:Drivers/STM32H7xx_HAL_Driver/Src/stm32h7xx_hal_rcc.c ****     GPIO_InitStruct.Pull = GPIO_NOPULL;
 2011              		.loc 1 1270 5 view .LVU696
1271:Drivers/STM32H7xx_HAL_Driver/Src/stm32h7xx_hal_rcc.c ****     GPIO_InitStruct.Alternate = GPIO_AF0_MCO;
 2012              		.loc 1 1271 5 view .LVU697
1268:Drivers/STM32H7xx_HAL_Driver/Src/stm32h7xx_hal_rcc.c ****     GPIO_InitStruct.Mode = GPIO_MODE_AF_PP;
 2013              		.loc 1 1268 25 is_stmt 0 view .LVU698
 2014 002e 0223     		movs	r3, #2
 2015 0030 CDE90223 		strd	r2, [sp, #8]
 2016 0034 0022     		movs	r2, #0
 2017 0036 0323     		movs	r3, #3
 2018 0038 CDE90423 		strd	r2, [sp, #16]
1272:Drivers/STM32H7xx_HAL_Driver/Src/stm32h7xx_hal_rcc.c ****     HAL_GPIO_Init(MCO1_GPIO_PORT, &GPIO_InitStruct);
 2019              		.loc 1 1272 5 is_stmt 1 view .LVU699
1273:Drivers/STM32H7xx_HAL_Driver/Src/stm32h7xx_hal_rcc.c **** 
 2020              		.loc 1 1273 5 view .LVU700
 2021 003c FFF7FEFF 		bl	HAL_GPIO_Init
 2022              	.LVL170:
1276:Drivers/STM32H7xx_HAL_Driver/Src/stm32h7xx_hal_rcc.c ****   }
 2023              		.loc 1 1276 5 view .LVU701
 2024 0040 3269     		ldr	r2, [r6, #16]
 2025 0042 22F0FE72 		bic	r2, r2, #33292288
 2026 0046 2A43     		orrs	r2, r2, r5
 2027 0048 2243     		orrs	r2, r2, r4
 2028 004a 3261     		str	r2, [r6, #16]
1296:Drivers/STM32H7xx_HAL_Driver/Src/stm32h7xx_hal_rcc.c **** 
 2029              		.loc 1 1296 1 is_stmt 0 view .LVU702
 2030 004c 08B0     		add	sp, sp, #32
 2031              	.LCFI9:
 2032              		.cfi_remember_state
 2033              		.cfi_def_cfa_offset 16
 2034              		@ sp needed
 2035 004e 70BD     		pop	{r4, r5, r6, pc}
 2036              	.LVL171:
 2037              	.L198:
 2038              	.LCFI10:
 2039              		.cfi_restore_state
1280:Drivers/STM32H7xx_HAL_Driver/Src/stm32h7xx_hal_rcc.c **** 
 2040              		.loc 1 1280 5 is_stmt 1 view .LVU703
1283:Drivers/STM32H7xx_HAL_Driver/Src/stm32h7xx_hal_rcc.c **** 
 2041              		.loc 1 1283 5 view .LVU704
 2042              	.LBB30:
1283:Drivers/STM32H7xx_HAL_Driver/Src/stm32h7xx_hal_rcc.c **** 
 2043              		.loc 1 1283 5 view .LVU705
1283:Drivers/STM32H7xx_HAL_Driver/Src/stm32h7xx_hal_rcc.c **** 
 2044              		.loc 1 1283 5 view .LVU706
 2045 0050 43F00403 		orr	r3, r3, #4
 2046              	.LBE30:
1286:Drivers/STM32H7xx_HAL_Driver/Src/stm32h7xx_hal_rcc.c ****     GPIO_InitStruct.Mode = GPIO_MODE_AF_PP;
 2047              		.loc 1 1286 25 is_stmt 0 view .LVU707
 2048 0054 4FF40072 		mov	r2, #512
 2049              	.LVL172:
1291:Drivers/STM32H7xx_HAL_Driver/Src/stm32h7xx_hal_rcc.c **** 
 2050              		.loc 1 1291 5 view .LVU708
 2051 0058 1148     		ldr	r0, .L201+8
 2052              	.LVL173:
ARM GAS  C:\Users\MadeuxS\AppData\Local\Temp\ccJrku7c.s 			page 74


 2053              	.LBB31:
1283:Drivers/STM32H7xx_HAL_Driver/Src/stm32h7xx_hal_rcc.c **** 
 2054              		.loc 1 1283 5 view .LVU709
 2055 005a C6F8E030 		str	r3, [r6, #224]
1283:Drivers/STM32H7xx_HAL_Driver/Src/stm32h7xx_hal_rcc.c **** 
 2056              		.loc 1 1283 5 is_stmt 1 view .LVU710
 2057 005e D6F8E030 		ldr	r3, [r6, #224]
 2058 0062 03F00403 		and	r3, r3, #4
 2059 0066 0193     		str	r3, [sp, #4]
1283:Drivers/STM32H7xx_HAL_Driver/Src/stm32h7xx_hal_rcc.c **** 
 2060              		.loc 1 1283 5 view .LVU711
 2061              	.LBE31:
1286:Drivers/STM32H7xx_HAL_Driver/Src/stm32h7xx_hal_rcc.c ****     GPIO_InitStruct.Mode = GPIO_MODE_AF_PP;
 2062              		.loc 1 1286 25 is_stmt 0 view .LVU712
 2063 0068 0223     		movs	r3, #2
 2064              	.LBB32:
1283:Drivers/STM32H7xx_HAL_Driver/Src/stm32h7xx_hal_rcc.c **** 
 2065              		.loc 1 1283 5 view .LVU713
 2066 006a 0199     		ldr	r1, [sp, #4]
 2067              	.LVL174:
1283:Drivers/STM32H7xx_HAL_Driver/Src/stm32h7xx_hal_rcc.c **** 
 2068              		.loc 1 1283 5 view .LVU714
 2069              	.LBE32:
1283:Drivers/STM32H7xx_HAL_Driver/Src/stm32h7xx_hal_rcc.c **** 
 2070              		.loc 1 1283 5 is_stmt 1 view .LVU715
1286:Drivers/STM32H7xx_HAL_Driver/Src/stm32h7xx_hal_rcc.c ****     GPIO_InitStruct.Mode = GPIO_MODE_AF_PP;
 2071              		.loc 1 1286 5 view .LVU716
1287:Drivers/STM32H7xx_HAL_Driver/Src/stm32h7xx_hal_rcc.c ****     GPIO_InitStruct.Speed = GPIO_SPEED_FREQ_VERY_HIGH;
 2072              		.loc 1 1287 5 view .LVU717
1288:Drivers/STM32H7xx_HAL_Driver/Src/stm32h7xx_hal_rcc.c ****     GPIO_InitStruct.Pull = GPIO_NOPULL;
 2073              		.loc 1 1288 5 view .LVU718
1289:Drivers/STM32H7xx_HAL_Driver/Src/stm32h7xx_hal_rcc.c ****     GPIO_InitStruct.Alternate = GPIO_AF0_MCO;
 2074              		.loc 1 1289 5 view .LVU719
1291:Drivers/STM32H7xx_HAL_Driver/Src/stm32h7xx_hal_rcc.c **** 
 2075              		.loc 1 1291 5 is_stmt 0 view .LVU720
 2076 006c 02A9     		add	r1, sp, #8
1286:Drivers/STM32H7xx_HAL_Driver/Src/stm32h7xx_hal_rcc.c ****     GPIO_InitStruct.Mode = GPIO_MODE_AF_PP;
 2077              		.loc 1 1286 25 view .LVU721
 2078 006e CDE90223 		strd	r2, [sp, #8]
 2079 0072 0022     		movs	r2, #0
 2080 0074 0323     		movs	r3, #3
 2081 0076 CDE90423 		strd	r2, [sp, #16]
1290:Drivers/STM32H7xx_HAL_Driver/Src/stm32h7xx_hal_rcc.c ****     HAL_GPIO_Init(MCO2_GPIO_PORT, &GPIO_InitStruct);
 2082              		.loc 1 1290 5 is_stmt 1 view .LVU722
1290:Drivers/STM32H7xx_HAL_Driver/Src/stm32h7xx_hal_rcc.c ****     HAL_GPIO_Init(MCO2_GPIO_PORT, &GPIO_InitStruct);
 2083              		.loc 1 1290 31 is_stmt 0 view .LVU723
 2084 007a 0023     		movs	r3, #0
 2085 007c 0693     		str	r3, [sp, #24]
1291:Drivers/STM32H7xx_HAL_Driver/Src/stm32h7xx_hal_rcc.c **** 
 2086              		.loc 1 1291 5 is_stmt 1 view .LVU724
 2087 007e FFF7FEFF 		bl	HAL_GPIO_Init
 2088              	.LVL175:
1294:Drivers/STM32H7xx_HAL_Driver/Src/stm32h7xx_hal_rcc.c ****   }
 2089              		.loc 1 1294 5 view .LVU725
 2090 0082 3369     		ldr	r3, [r6, #16]
 2091 0084 23F07E43 		bic	r3, r3, #-33554432
 2092 0088 43EA0501 		orr	r1, r3, r5
ARM GAS  C:\Users\MadeuxS\AppData\Local\Temp\ccJrku7c.s 			page 75


 2093 008c 41EAC411 		orr	r1, r1, r4, lsl #7
 2094 0090 3161     		str	r1, [r6, #16]
1296:Drivers/STM32H7xx_HAL_Driver/Src/stm32h7xx_hal_rcc.c **** 
 2095              		.loc 1 1296 1 is_stmt 0 view .LVU726
 2096 0092 08B0     		add	sp, sp, #32
 2097              	.LCFI11:
 2098              		.cfi_def_cfa_offset 16
 2099              		@ sp needed
 2100 0094 70BD     		pop	{r4, r5, r6, pc}
 2101              	.LVL176:
 2102              	.L202:
1296:Drivers/STM32H7xx_HAL_Driver/Src/stm32h7xx_hal_rcc.c **** 
 2103              		.loc 1 1296 1 view .LVU727
 2104 0096 00BF     		.align	2
 2105              	.L201:
 2106 0098 00440258 		.word	1476543488
 2107 009c 00000258 		.word	1476526080
 2108 00a0 00080258 		.word	1476528128
 2109              		.cfi_endproc
 2110              	.LFE147:
 2112              		.section	.text.HAL_RCC_EnableCSS,"ax",%progbits
 2113              		.align	1
 2114              		.p2align 2,,3
 2115              		.global	HAL_RCC_EnableCSS
 2116              		.syntax unified
 2117              		.thumb
 2118              		.thumb_func
 2119              		.fpu fpv5-d16
 2121              	HAL_RCC_EnableCSS:
 2122              	.LFB148:
1308:Drivers/STM32H7xx_HAL_Driver/Src/stm32h7xx_hal_rcc.c ****   SET_BIT(RCC->CR, RCC_CR_CSSHSEON) ;
 2123              		.loc 1 1308 1 is_stmt 1 view -0
 2124              		.cfi_startproc
 2125              		@ args = 0, pretend = 0, frame = 0
 2126              		@ frame_needed = 0, uses_anonymous_args = 0
 2127              		@ link register save eliminated.
1309:Drivers/STM32H7xx_HAL_Driver/Src/stm32h7xx_hal_rcc.c **** }
 2128              		.loc 1 1309 3 view .LVU729
 2129 0000 024A     		ldr	r2, .L204
 2130 0002 1368     		ldr	r3, [r2]
 2131 0004 43F40023 		orr	r3, r3, #524288
 2132 0008 1360     		str	r3, [r2]
1310:Drivers/STM32H7xx_HAL_Driver/Src/stm32h7xx_hal_rcc.c **** 
 2133              		.loc 1 1310 1 is_stmt 0 view .LVU730
 2134 000a 7047     		bx	lr
 2135              	.L205:
 2136              		.align	2
 2137              	.L204:
 2138 000c 00440258 		.word	1476543488
 2139              		.cfi_endproc
 2140              	.LFE148:
 2142              		.section	.text.HAL_RCC_DisableCSS,"ax",%progbits
 2143              		.align	1
 2144              		.p2align 2,,3
 2145              		.global	HAL_RCC_DisableCSS
 2146              		.syntax unified
 2147              		.thumb
ARM GAS  C:\Users\MadeuxS\AppData\Local\Temp\ccJrku7c.s 			page 76


 2148              		.thumb_func
 2149              		.fpu fpv5-d16
 2151              	HAL_RCC_DisableCSS:
 2152              	.LFB149:
1317:Drivers/STM32H7xx_HAL_Driver/Src/stm32h7xx_hal_rcc.c ****   CLEAR_BIT(RCC->CR, RCC_CR_CSSHSEON);
 2153              		.loc 1 1317 1 is_stmt 1 view -0
 2154              		.cfi_startproc
 2155              		@ args = 0, pretend = 0, frame = 0
 2156              		@ frame_needed = 0, uses_anonymous_args = 0
 2157              		@ link register save eliminated.
1318:Drivers/STM32H7xx_HAL_Driver/Src/stm32h7xx_hal_rcc.c **** }
 2158              		.loc 1 1318 3 view .LVU732
 2159 0000 024A     		ldr	r2, .L207
 2160 0002 1368     		ldr	r3, [r2]
 2161 0004 23F40023 		bic	r3, r3, #524288
 2162 0008 1360     		str	r3, [r2]
1319:Drivers/STM32H7xx_HAL_Driver/Src/stm32h7xx_hal_rcc.c **** 
 2163              		.loc 1 1319 1 is_stmt 0 view .LVU733
 2164 000a 7047     		bx	lr
 2165              	.L208:
 2166              		.align	2
 2167              	.L207:
 2168 000c 00440258 		.word	1476543488
 2169              		.cfi_endproc
 2170              	.LFE149:
 2172              		.section	.text.HAL_RCC_GetSysClockFreq,"ax",%progbits
 2173              		.align	1
 2174              		.p2align 2,,3
 2175              		.global	HAL_RCC_GetSysClockFreq
 2176              		.syntax unified
 2177              		.thumb
 2178              		.thumb_func
 2179              		.fpu fpv5-d16
 2181              	HAL_RCC_GetSysClockFreq:
 2182              	.LFB150:
1356:Drivers/STM32H7xx_HAL_Driver/Src/stm32h7xx_hal_rcc.c ****   uint32_t pllp, pllsource, pllm, pllfracen, hsivalue;
 2183              		.loc 1 1356 1 is_stmt 1 view -0
 2184              		.cfi_startproc
 2185              		@ args = 0, pretend = 0, frame = 0
 2186              		@ frame_needed = 0, uses_anonymous_args = 0
 2187              		@ link register save eliminated.
1357:Drivers/STM32H7xx_HAL_Driver/Src/stm32h7xx_hal_rcc.c ****   float_t fracn1, pllvco;
 2188              		.loc 1 1357 3 view .LVU735
1358:Drivers/STM32H7xx_HAL_Driver/Src/stm32h7xx_hal_rcc.c ****   uint32_t sysclockfreq;
 2189              		.loc 1 1358 3 view .LVU736
1359:Drivers/STM32H7xx_HAL_Driver/Src/stm32h7xx_hal_rcc.c **** 
 2190              		.loc 1 1359 3 view .LVU737
1363:Drivers/STM32H7xx_HAL_Driver/Src/stm32h7xx_hal_rcc.c ****   {
 2191              		.loc 1 1363 3 view .LVU738
1363:Drivers/STM32H7xx_HAL_Driver/Src/stm32h7xx_hal_rcc.c ****   {
 2192              		.loc 1 1363 14 is_stmt 0 view .LVU739
 2193 0000 474A     		ldr	r2, .L229
 2194 0002 1369     		ldr	r3, [r2, #16]
1363:Drivers/STM32H7xx_HAL_Driver/Src/stm32h7xx_hal_rcc.c ****   {
 2195              		.loc 1 1363 21 view .LVU740
 2196 0004 03F03803 		and	r3, r3, #56
1363:Drivers/STM32H7xx_HAL_Driver/Src/stm32h7xx_hal_rcc.c ****   {
ARM GAS  C:\Users\MadeuxS\AppData\Local\Temp\ccJrku7c.s 			page 77


 2197              		.loc 1 1363 3 view .LVU741
 2198 0008 102B     		cmp	r3, #16
 2199 000a 04D0     		beq	.L217
 2200 000c 182B     		cmp	r3, #24
 2201 000e 0DD0     		beq	.L211
 2202 0010 1BB1     		cbz	r3, .L227
1379:Drivers/STM32H7xx_HAL_Driver/Src/stm32h7xx_hal_rcc.c ****     break;
 2203              		.loc 1 1379 18 view .LVU742
 2204 0012 4448     		ldr	r0, .L229+4
 2205 0014 7047     		bx	lr
 2206              	.L217:
1363:Drivers/STM32H7xx_HAL_Driver/Src/stm32h7xx_hal_rcc.c ****   {
 2207              		.loc 1 1363 3 view .LVU743
 2208 0016 4448     		ldr	r0, .L229+8
 2209 0018 7047     		bx	lr
 2210              	.L227:
1367:Drivers/STM32H7xx_HAL_Driver/Src/stm32h7xx_hal_rcc.c ****       {
 2211              		.loc 1 1367 4 is_stmt 1 view .LVU744
1367:Drivers/STM32H7xx_HAL_Driver/Src/stm32h7xx_hal_rcc.c ****       {
 2212              		.loc 1 1367 8 is_stmt 0 view .LVU745
 2213 001a 1368     		ldr	r3, [r2]
1367:Drivers/STM32H7xx_HAL_Driver/Src/stm32h7xx_hal_rcc.c ****       {
 2214              		.loc 1 1367 7 view .LVU746
 2215 001c 9906     		lsls	r1, r3, #26
 2216 001e 4AD5     		bpl	.L219
1369:Drivers/STM32H7xx_HAL_Driver/Src/stm32h7xx_hal_rcc.c ****       }
 2217              		.loc 1 1369 9 is_stmt 1 view .LVU747
1369:Drivers/STM32H7xx_HAL_Driver/Src/stm32h7xx_hal_rcc.c ****       }
 2218              		.loc 1 1369 50 is_stmt 0 view .LVU748
 2219 0020 1368     		ldr	r3, [r2]
1369:Drivers/STM32H7xx_HAL_Driver/Src/stm32h7xx_hal_rcc.c ****       }
 2220              		.loc 1 1369 22 view .LVU749
 2221 0022 4248     		ldr	r0, .L229+12
1369:Drivers/STM32H7xx_HAL_Driver/Src/stm32h7xx_hal_rcc.c ****       }
 2222              		.loc 1 1369 77 view .LVU750
 2223 0024 C3F3C103 		ubfx	r3, r3, #3, #2
1369:Drivers/STM32H7xx_HAL_Driver/Src/stm32h7xx_hal_rcc.c ****       }
 2224              		.loc 1 1369 22 view .LVU751
 2225 0028 D840     		lsrs	r0, r0, r3
 2226              	.LVL177:
1369:Drivers/STM32H7xx_HAL_Driver/Src/stm32h7xx_hal_rcc.c ****       }
 2227              		.loc 1 1369 22 view .LVU752
 2228 002a 7047     		bx	lr
 2229              	.LVL178:
 2230              	.L211:
 2231              	.LBB35:
 2232              	.LBI35:
1355:Drivers/STM32H7xx_HAL_Driver/Src/stm32h7xx_hal_rcc.c **** {
 2233              		.loc 1 1355 10 is_stmt 1 view .LVU753
 2234              	.LBB36:
1391:Drivers/STM32H7xx_HAL_Driver/Src/stm32h7xx_hal_rcc.c ****     pllm = ((RCC->PLLCKSELR & RCC_PLLCKSELR_DIVM1)>> 4)  ;
 2235              		.loc 1 1391 5 view .LVU754
1391:Drivers/STM32H7xx_HAL_Driver/Src/stm32h7xx_hal_rcc.c ****     pllm = ((RCC->PLLCKSELR & RCC_PLLCKSELR_DIVM1)>> 4)  ;
 2236              		.loc 1 1391 21 is_stmt 0 view .LVU755
 2237 002c 936A     		ldr	r3, [r2, #40]
 2238              	.LVL179:
1392:Drivers/STM32H7xx_HAL_Driver/Src/stm32h7xx_hal_rcc.c ****     pllfracen = ((RCC-> PLLCFGR & RCC_PLLCFGR_PLL1FRACEN)>>RCC_PLLCFGR_PLL1FRACEN_Pos);
ARM GAS  C:\Users\MadeuxS\AppData\Local\Temp\ccJrku7c.s 			page 78


 2239              		.loc 1 1392 5 is_stmt 1 view .LVU756
 2240              	.LBE36:
 2241              	.LBE35:
1356:Drivers/STM32H7xx_HAL_Driver/Src/stm32h7xx_hal_rcc.c ****   uint32_t pllp, pllsource, pllm, pllfracen, hsivalue;
 2242              		.loc 1 1356 1 is_stmt 0 view .LVU757
 2243 002e 30B4     		push	{r4, r5}
 2244              	.LCFI12:
 2245              		.cfi_def_cfa_offset 8
 2246              		.cfi_offset 4, -8
 2247              		.cfi_offset 5, -4
 2248              	.LBB39:
 2249              	.LBB37:
1392:Drivers/STM32H7xx_HAL_Driver/Src/stm32h7xx_hal_rcc.c ****     pllfracen = ((RCC-> PLLCFGR & RCC_PLLCFGR_PLL1FRACEN)>>RCC_PLLCFGR_PLL1FRACEN_Pos);
 2250              		.loc 1 1392 17 view .LVU758
 2251 0030 946A     		ldr	r4, [r2, #40]
1393:Drivers/STM32H7xx_HAL_Driver/Src/stm32h7xx_hal_rcc.c ****     fracn1 = (float_t)(uint32_t)(pllfracen* ((RCC->PLL1FRACR & RCC_PLL1FRACR_FRACN1)>> 3));
 2252              		.loc 1 1393 22 view .LVU759
 2253 0032 D56A     		ldr	r5, [r2, #44]
1396:Drivers/STM32H7xx_HAL_Driver/Src/stm32h7xx_hal_rcc.c ****     {
 2254              		.loc 1 1396 8 view .LVU760
 2255 0034 14F47C7F 		tst	r4, #1008
1394:Drivers/STM32H7xx_HAL_Driver/Src/stm32h7xx_hal_rcc.c **** 
 2256              		.loc 1 1394 50 view .LVU761
 2257 0038 516B     		ldr	r1, [r2, #52]
1392:Drivers/STM32H7xx_HAL_Driver/Src/stm32h7xx_hal_rcc.c ****     pllfracen = ((RCC-> PLLCFGR & RCC_PLLCFGR_PLL1FRACEN)>>RCC_PLLCFGR_PLL1FRACEN_Pos);
 2258              		.loc 1 1392 10 view .LVU762
 2259 003a C4F30510 		ubfx	r0, r4, #4, #6
 2260              	.LVL180:
1393:Drivers/STM32H7xx_HAL_Driver/Src/stm32h7xx_hal_rcc.c ****     fracn1 = (float_t)(uint32_t)(pllfracen* ((RCC->PLL1FRACR & RCC_PLL1FRACR_FRACN1)>> 3));
 2261              		.loc 1 1393 5 is_stmt 1 view .LVU763
1394:Drivers/STM32H7xx_HAL_Driver/Src/stm32h7xx_hal_rcc.c **** 
 2262              		.loc 1 1394 5 view .LVU764
1396:Drivers/STM32H7xx_HAL_Driver/Src/stm32h7xx_hal_rcc.c ****     {
 2263              		.loc 1 1396 5 view .LVU765
1396:Drivers/STM32H7xx_HAL_Driver/Src/stm32h7xx_hal_rcc.c ****     {
 2264              		.loc 1 1396 8 is_stmt 0 view .LVU766
 2265 003e 38D0     		beq	.L209
1394:Drivers/STM32H7xx_HAL_Driver/Src/stm32h7xx_hal_rcc.c **** 
 2266              		.loc 1 1394 85 view .LVU767
 2267 0040 C1F3CC01 		ubfx	r1, r1, #3, #13
 2268              	.LVL181:
1393:Drivers/STM32H7xx_HAL_Driver/Src/stm32h7xx_hal_rcc.c ****     fracn1 = (float_t)(uint32_t)(pllfracen* ((RCC->PLL1FRACR & RCC_PLL1FRACR_FRACN1)>> 3));
 2269              		.loc 1 1393 15 view .LVU768
 2270 0044 05F00105 		and	r5, r5, #1
 2271              	.LVL182:
1391:Drivers/STM32H7xx_HAL_Driver/Src/stm32h7xx_hal_rcc.c ****     pllm = ((RCC->PLLCKSELR & RCC_PLLCKSELR_DIVM1)>> 4)  ;
 2272              		.loc 1 1391 15 view .LVU769
 2273 0048 03F00303 		and	r3, r3, #3
 2274              	.LVL183:
1394:Drivers/STM32H7xx_HAL_Driver/Src/stm32h7xx_hal_rcc.c **** 
 2275              		.loc 1 1394 23 view .LVU770
 2276 004c 05FB01F1 		mul	r1, r5, r1
 2277 0050 012B     		cmp	r3, #1
1394:Drivers/STM32H7xx_HAL_Driver/Src/stm32h7xx_hal_rcc.c **** 
 2278              		.loc 1 1394 12 view .LVU771
 2279 0052 07EE901A 		vmov	s15, r1	@ int
 2280 0056 B8EEE77A 		vcvt.f32.s32	s14, s15
ARM GAS  C:\Users\MadeuxS\AppData\Local\Temp\ccJrku7c.s 			page 79


1398:Drivers/STM32H7xx_HAL_Driver/Src/stm32h7xx_hal_rcc.c ****       {
 2281              		.loc 1 1398 7 is_stmt 1 view .LVU772
 2282 005a 02D0     		beq	.L214
 2283 005c 022B     		cmp	r3, #2
 2284 005e 2CD0     		beq	.L213
 2285 0060 93B3     		cbz	r3, .L228
 2286              	.L214:
1422:Drivers/STM32H7xx_HAL_Driver/Src/stm32h7xx_hal_rcc.c ****         break;
 2287              		.loc 1 1422 9 view .LVU773
1422:Drivers/STM32H7xx_HAL_Driver/Src/stm32h7xx_hal_rcc.c ****         break;
 2288              		.loc 1 1422 40 is_stmt 0 view .LVU774
 2289 0062 07EE900A 		vmov	s15, r0	@ int
1422:Drivers/STM32H7xx_HAL_Driver/Src/stm32h7xx_hal_rcc.c ****         break;
 2290              		.loc 1 1422 38 view .LVU775
 2291 0066 DFED326A 		vldr.32	s13, .L229+16
1422:Drivers/STM32H7xx_HAL_Driver/Src/stm32h7xx_hal_rcc.c ****         break;
 2292              		.loc 1 1422 40 view .LVU776
 2293 006a F8EEE77A 		vcvt.f32.s32	s15, s15
 2294              	.LVL184:
 2295              	.L226:
1422:Drivers/STM32H7xx_HAL_Driver/Src/stm32h7xx_hal_rcc.c ****         break;
 2296              		.loc 1 1422 81 view .LVU777
 2297 006e 136B     		ldr	r3, [r2, #48]
1422:Drivers/STM32H7xx_HAL_Driver/Src/stm32h7xx_hal_rcc.c ****         break;
 2298              		.loc 1 1422 38 view .LVU778
 2299 0070 86EEA76A 		vdiv.f32	s12, s13, s15
1422:Drivers/STM32H7xx_HAL_Driver/Src/stm32h7xx_hal_rcc.c ****         break;
 2300              		.loc 1 1422 138 view .LVU779
 2301 0074 DFED2F5A 		vldr.32	s11, .L229+20
1422:Drivers/STM32H7xx_HAL_Driver/Src/stm32h7xx_hal_rcc.c ****         break;
 2302              		.loc 1 1422 67 view .LVU780
 2303 0078 C3F30803 		ubfx	r3, r3, #0, #9
 2304 007c 06EE903A 		vmov	s13, r3	@ int
1422:Drivers/STM32H7xx_HAL_Driver/Src/stm32h7xx_hal_rcc.c ****         break;
 2305              		.loc 1 1422 138 view .LVU781
 2306 0080 B7EE005A 		vmov.f32	s10, #1.0e+0
1422:Drivers/STM32H7xx_HAL_Driver/Src/stm32h7xx_hal_rcc.c ****         break;
 2307              		.loc 1 1422 58 view .LVU782
 2308 0084 F8EEE66A 		vcvt.f32.s32	s13, s13
1422:Drivers/STM32H7xx_HAL_Driver/Src/stm32h7xx_hal_rcc.c ****         break;
 2309              		.loc 1 1422 138 view .LVU783
 2310 0088 76EE856A 		vadd.f32	s13, s13, s10
 2311 008c E7EE256A 		vfma.f32	s13, s14, s11
1422:Drivers/STM32H7xx_HAL_Driver/Src/stm32h7xx_hal_rcc.c ****         break;
 2312              		.loc 1 1422 16 view .LVU784
 2313 0090 66EE266A 		vmul.f32	s13, s12, s13
 2314              	.LVL185:
1423:Drivers/STM32H7xx_HAL_Driver/Src/stm32h7xx_hal_rcc.c ****       }
 2315              		.loc 1 1423 9 is_stmt 1 view .LVU785
 2316              	.L216:
1425:Drivers/STM32H7xx_HAL_Driver/Src/stm32h7xx_hal_rcc.c ****       sysclockfreq =  (uint32_t)(float_t)(pllvco/(float_t)pllp);
 2317              		.loc 1 1425 7 view .LVU786
1425:Drivers/STM32H7xx_HAL_Driver/Src/stm32h7xx_hal_rcc.c ****       sysclockfreq =  (uint32_t)(float_t)(pllvco/(float_t)pllp);
 2318              		.loc 1 1425 20 is_stmt 0 view .LVU787
 2319 0094 224B     		ldr	r3, .L229
 2320 0096 1B6B     		ldr	r3, [r3, #48]
 2321              	.LVL186:
ARM GAS  C:\Users\MadeuxS\AppData\Local\Temp\ccJrku7c.s 			page 80


1426:Drivers/STM32H7xx_HAL_Driver/Src/stm32h7xx_hal_rcc.c ****     }
 2322              		.loc 1 1426 7 is_stmt 1 view .LVU788
1425:Drivers/STM32H7xx_HAL_Driver/Src/stm32h7xx_hal_rcc.c ****       sysclockfreq =  (uint32_t)(float_t)(pllvco/(float_t)pllp);
 2323              		.loc 1 1425 50 is_stmt 0 view .LVU789
 2324 0098 C3F34623 		ubfx	r3, r3, #9, #7
 2325              	.LVL187:
1425:Drivers/STM32H7xx_HAL_Driver/Src/stm32h7xx_hal_rcc.c ****       sysclockfreq =  (uint32_t)(float_t)(pllvco/(float_t)pllp);
 2326              		.loc 1 1425 12 view .LVU790
 2327 009c 0133     		adds	r3, r3, #1
1426:Drivers/STM32H7xx_HAL_Driver/Src/stm32h7xx_hal_rcc.c ****     }
 2328              		.loc 1 1426 50 view .LVU791
 2329 009e 07EE903A 		vmov	s15, r3	@ int
 2330 00a2 B8EEE77A 		vcvt.f32.s32	s14, s15
1426:Drivers/STM32H7xx_HAL_Driver/Src/stm32h7xx_hal_rcc.c ****     }
 2331              		.loc 1 1426 33 view .LVU792
 2332 00a6 C6EE877A 		vdiv.f32	s15, s13, s14
1426:Drivers/STM32H7xx_HAL_Driver/Src/stm32h7xx_hal_rcc.c ****     }
 2333              		.loc 1 1426 20 view .LVU793
 2334 00aa FCEEE77A 		vcvt.u32.f32	s15, s15
 2335 00ae 17EE900A 		vmov	r0, s15	@ int
 2336              	.LVL188:
 2337              	.L209:
1426:Drivers/STM32H7xx_HAL_Driver/Src/stm32h7xx_hal_rcc.c ****     }
 2338              		.loc 1 1426 20 view .LVU794
 2339              	.LBE37:
 2340              	.LBE39:
 2341              		.loc 1 1440 1 view .LVU795
 2342 00b2 30BC     		pop	{r4, r5}
 2343              	.LCFI13:
 2344              		.cfi_restore 5
 2345              		.cfi_restore 4
 2346              		.cfi_def_cfa_offset 0
 2347 00b4 7047     		bx	lr
 2348              	.L219:
1373:Drivers/STM32H7xx_HAL_Driver/Src/stm32h7xx_hal_rcc.c ****       }
 2349              		.loc 1 1373 22 view .LVU796
 2350 00b6 1D48     		ldr	r0, .L229+12
 2351              	.LVL189:
1439:Drivers/STM32H7xx_HAL_Driver/Src/stm32h7xx_hal_rcc.c **** }
 2352              		.loc 1 1439 3 is_stmt 1 view .LVU797
 2353              		.loc 1 1440 1 is_stmt 0 view .LVU798
 2354 00b8 7047     		bx	lr
 2355              	.LVL190:
 2356              	.L213:
 2357              	.LCFI14:
 2358              		.cfi_def_cfa_offset 8
 2359              		.cfi_offset 4, -8
 2360              		.cfi_offset 5, -4
 2361              	.LBB40:
 2362              	.LBB38:
1418:Drivers/STM32H7xx_HAL_Driver/Src/stm32h7xx_hal_rcc.c ****         break;
 2363              		.loc 1 1418 9 is_stmt 1 view .LVU799
1418:Drivers/STM32H7xx_HAL_Driver/Src/stm32h7xx_hal_rcc.c ****         break;
 2364              		.loc 1 1418 40 is_stmt 0 view .LVU800
 2365 00ba 07EE900A 		vmov	s15, r0	@ int
1418:Drivers/STM32H7xx_HAL_Driver/Src/stm32h7xx_hal_rcc.c ****         break;
 2366              		.loc 1 1418 38 view .LVU801
ARM GAS  C:\Users\MadeuxS\AppData\Local\Temp\ccJrku7c.s 			page 81


 2367 00be DFED1E6A 		vldr.32	s13, .L229+24
1418:Drivers/STM32H7xx_HAL_Driver/Src/stm32h7xx_hal_rcc.c ****         break;
 2368              		.loc 1 1418 40 view .LVU802
 2369 00c2 F8EEE77A 		vcvt.f32.s32	s15, s15
 2370 00c6 D2E7     		b	.L226
 2371              	.L228:
1402:Drivers/STM32H7xx_HAL_Driver/Src/stm32h7xx_hal_rcc.c ****         {
 2372              		.loc 1 1402 8 is_stmt 1 view .LVU803
1402:Drivers/STM32H7xx_HAL_Driver/Src/stm32h7xx_hal_rcc.c ****         {
 2373              		.loc 1 1402 12 is_stmt 0 view .LVU804
 2374 00c8 1368     		ldr	r3, [r2]
 2375              	.LVL191:
1402:Drivers/STM32H7xx_HAL_Driver/Src/stm32h7xx_hal_rcc.c ****         {
 2376              		.loc 1 1402 11 view .LVU805
 2377 00ca 9B06     		lsls	r3, r3, #26
 2378 00cc 20D5     		bpl	.L215
1404:Drivers/STM32H7xx_HAL_Driver/Src/stm32h7xx_hal_rcc.c ****           pllvco = ( (float_t)hsivalue / (float_t)pllm) * ((float_t)(uint32_t)(RCC->PLL1DIVR & RCC_
 2379              		.loc 1 1404 11 is_stmt 1 view .LVU806
1404:Drivers/STM32H7xx_HAL_Driver/Src/stm32h7xx_hal_rcc.c ****           pllvco = ( (float_t)hsivalue / (float_t)pllm) * ((float_t)(uint32_t)(RCC->PLL1DIVR & RCC_
 2380              		.loc 1 1404 36 is_stmt 0 view .LVU807
 2381 00ce 1468     		ldr	r4, [r2]
 2382              	.LVL192:
1405:Drivers/STM32H7xx_HAL_Driver/Src/stm32h7xx_hal_rcc.c ****         }
 2383              		.loc 1 1405 11 is_stmt 1 view .LVU808
1405:Drivers/STM32H7xx_HAL_Driver/Src/stm32h7xx_hal_rcc.c ****         }
 2384              		.loc 1 1405 42 is_stmt 0 view .LVU809
 2385 00d0 07EE900A 		vmov	s15, r0	@ int
1404:Drivers/STM32H7xx_HAL_Driver/Src/stm32h7xx_hal_rcc.c ****           pllvco = ( (float_t)hsivalue / (float_t)pllm) * ((float_t)(uint32_t)(RCC->PLL1DIVR & RCC_
 2386              		.loc 1 1404 19 view .LVU810
 2387 00d4 1549     		ldr	r1, .L229+12
1405:Drivers/STM32H7xx_HAL_Driver/Src/stm32h7xx_hal_rcc.c ****         }
 2388              		.loc 1 1405 140 view .LVU811
 2389 00d6 B7EE006A 		vmov.f32	s12, #1.0e+0
1405:Drivers/STM32H7xx_HAL_Driver/Src/stm32h7xx_hal_rcc.c ****         }
 2390              		.loc 1 1405 83 view .LVU812
 2391 00da 136B     		ldr	r3, [r2, #48]
1404:Drivers/STM32H7xx_HAL_Driver/Src/stm32h7xx_hal_rcc.c ****           pllvco = ( (float_t)hsivalue / (float_t)pllm) * ((float_t)(uint32_t)(RCC->PLL1DIVR & RCC_
 2392              		.loc 1 1404 63 view .LVU813
 2393 00dc C4F3C104 		ubfx	r4, r4, #3, #2
 2394              	.LVL193:
1405:Drivers/STM32H7xx_HAL_Driver/Src/stm32h7xx_hal_rcc.c ****         }
 2395              		.loc 1 1405 42 view .LVU814
 2396 00e0 F8EEE77A 		vcvt.f32.s32	s15, s15
1405:Drivers/STM32H7xx_HAL_Driver/Src/stm32h7xx_hal_rcc.c ****         }
 2397              		.loc 1 1405 140 view .LVU815
 2398 00e4 9FED135A 		vldr.32	s10, .L229+20
1405:Drivers/STM32H7xx_HAL_Driver/Src/stm32h7xx_hal_rcc.c ****         }
 2399              		.loc 1 1405 69 view .LVU816
 2400 00e8 C3F30803 		ubfx	r3, r3, #0, #9
1404:Drivers/STM32H7xx_HAL_Driver/Src/stm32h7xx_hal_rcc.c ****           pllvco = ( (float_t)hsivalue / (float_t)pllm) * ((float_t)(uint32_t)(RCC->PLL1DIVR & RCC_
 2401              		.loc 1 1404 19 view .LVU817
 2402 00ec E140     		lsrs	r1, r1, r4
1405:Drivers/STM32H7xx_HAL_Driver/Src/stm32h7xx_hal_rcc.c ****         }
 2403              		.loc 1 1405 69 view .LVU818
 2404 00ee 06EE903A 		vmov	s13, r3	@ int
1405:Drivers/STM32H7xx_HAL_Driver/Src/stm32h7xx_hal_rcc.c ****         }
 2405              		.loc 1 1405 22 view .LVU819
ARM GAS  C:\Users\MadeuxS\AppData\Local\Temp\ccJrku7c.s 			page 82


 2406 00f2 05EE901A 		vmov	s11, r1	@ int
1405:Drivers/STM32H7xx_HAL_Driver/Src/stm32h7xx_hal_rcc.c ****         }
 2407              		.loc 1 1405 60 view .LVU820
 2408 00f6 F8EEE66A 		vcvt.f32.s32	s13, s13
1405:Drivers/STM32H7xx_HAL_Driver/Src/stm32h7xx_hal_rcc.c ****         }
 2409              		.loc 1 1405 22 view .LVU821
 2410 00fa F8EEE55A 		vcvt.f32.s32	s11, s11
1405:Drivers/STM32H7xx_HAL_Driver/Src/stm32h7xx_hal_rcc.c ****         }
 2411              		.loc 1 1405 140 view .LVU822
 2412 00fe 76EE866A 		vadd.f32	s13, s13, s12
1405:Drivers/STM32H7xx_HAL_Driver/Src/stm32h7xx_hal_rcc.c ****         }
 2413              		.loc 1 1405 40 view .LVU823
 2414 0102 85EEA76A 		vdiv.f32	s12, s11, s15
1405:Drivers/STM32H7xx_HAL_Driver/Src/stm32h7xx_hal_rcc.c ****         }
 2415              		.loc 1 1405 140 view .LVU824
 2416 0106 E7EE056A 		vfma.f32	s13, s14, s10
1405:Drivers/STM32H7xx_HAL_Driver/Src/stm32h7xx_hal_rcc.c ****         }
 2417              		.loc 1 1405 18 view .LVU825
 2418 010a 66EE266A 		vmul.f32	s13, s12, s13
 2419              	.LVL194:
1405:Drivers/STM32H7xx_HAL_Driver/Src/stm32h7xx_hal_rcc.c ****         }
 2420              		.loc 1 1405 18 view .LVU826
 2421 010e C1E7     		b	.L216
 2422              	.LVL195:
 2423              	.L215:
1409:Drivers/STM32H7xx_HAL_Driver/Src/stm32h7xx_hal_rcc.c ****         }
 2424              		.loc 1 1409 11 is_stmt 1 view .LVU827
1409:Drivers/STM32H7xx_HAL_Driver/Src/stm32h7xx_hal_rcc.c ****         }
 2425              		.loc 1 1409 42 is_stmt 0 view .LVU828
 2426 0110 07EE900A 		vmov	s15, r0	@ int
1409:Drivers/STM32H7xx_HAL_Driver/Src/stm32h7xx_hal_rcc.c ****         }
 2427              		.loc 1 1409 40 view .LVU829
 2428 0114 DFED096A 		vldr.32	s13, .L229+28
1409:Drivers/STM32H7xx_HAL_Driver/Src/stm32h7xx_hal_rcc.c ****         }
 2429              		.loc 1 1409 42 view .LVU830
 2430 0118 F8EEE77A 		vcvt.f32.s32	s15, s15
 2431 011c A7E7     		b	.L226
 2432              	.L230:
 2433 011e 00BF     		.align	2
 2434              	.L229:
 2435 0120 00440258 		.word	1476543488
 2436 0124 00093D00 		.word	4000000
 2437 0128 40787D01 		.word	25000000
 2438 012c 0090D003 		.word	64000000
 2439 0130 0024744A 		.word	1249125376
 2440 0134 00000039 		.word	956301312
 2441 0138 20BCBE4B 		.word	1270791200
 2442 013c 0024744C 		.word	1282679808
 2443              	.LBE38:
 2444              	.LBE40:
 2445              		.cfi_endproc
 2446              	.LFE150:
 2448              		.section	.text.HAL_RCC_ClockConfig,"ax",%progbits
 2449              		.align	1
 2450              		.p2align 2,,3
 2451              		.global	HAL_RCC_ClockConfig
 2452              		.syntax unified
ARM GAS  C:\Users\MadeuxS\AppData\Local\Temp\ccJrku7c.s 			page 83


 2453              		.thumb
 2454              		.thumb_func
 2455              		.fpu fpv5-d16
 2457              	HAL_RCC_ClockConfig:
 2458              	.LVL196:
 2459              	.LFB146:
 890:Drivers/STM32H7xx_HAL_Driver/Src/stm32h7xx_hal_rcc.c ****   HAL_StatusTypeDef halstatus;
 2460              		.loc 1 890 1 is_stmt 1 view -0
 2461              		.cfi_startproc
 2462              		@ args = 0, pretend = 0, frame = 0
 2463              		@ frame_needed = 0, uses_anonymous_args = 0
 891:Drivers/STM32H7xx_HAL_Driver/Src/stm32h7xx_hal_rcc.c ****   uint32_t tickstart;
 2464              		.loc 1 891 3 view .LVU832
 892:Drivers/STM32H7xx_HAL_Driver/Src/stm32h7xx_hal_rcc.c ****   uint32_t common_system_clock;
 2465              		.loc 1 892 3 view .LVU833
 893:Drivers/STM32H7xx_HAL_Driver/Src/stm32h7xx_hal_rcc.c **** 
 2466              		.loc 1 893 3 view .LVU834
 896:Drivers/STM32H7xx_HAL_Driver/Src/stm32h7xx_hal_rcc.c ****   {
 2467              		.loc 1 896 3 view .LVU835
 896:Drivers/STM32H7xx_HAL_Driver/Src/stm32h7xx_hal_rcc.c ****   {
 2468              		.loc 1 896 5 is_stmt 0 view .LVU836
 2469 0000 0028     		cmp	r0, #0
 2470 0002 00F00C81 		beq	.L298
 910:Drivers/STM32H7xx_HAL_Driver/Src/stm32h7xx_hal_rcc.c ****   {
 2471              		.loc 1 910 17 view .LVU837
 2472 0006 8C4A     		ldr	r2, .L303
 2473 0008 1368     		ldr	r3, [r2]
 2474 000a 03F00F03 		and	r3, r3, #15
 910:Drivers/STM32H7xx_HAL_Driver/Src/stm32h7xx_hal_rcc.c ****   {
 2475              		.loc 1 910 5 view .LVU838
 2476 000e 8B42     		cmp	r3, r1
 890:Drivers/STM32H7xx_HAL_Driver/Src/stm32h7xx_hal_rcc.c ****   HAL_StatusTypeDef halstatus;
 2477              		.loc 1 890 1 view .LVU839
 2478 0010 2DE9F041 		push	{r4, r5, r6, r7, r8, lr}
 2479              	.LCFI15:
 2480              		.cfi_def_cfa_offset 24
 2481              		.cfi_offset 4, -24
 2482              		.cfi_offset 5, -20
 2483              		.cfi_offset 6, -16
 2484              		.cfi_offset 7, -12
 2485              		.cfi_offset 8, -8
 2486              		.cfi_offset 14, -4
 2487 0014 0446     		mov	r4, r0
 2488 0016 0D46     		mov	r5, r1
 902:Drivers/STM32H7xx_HAL_Driver/Src/stm32h7xx_hal_rcc.c ****   assert_param(IS_FLASH_LATENCY(FLatency));
 2489              		.loc 1 902 3 is_stmt 1 view .LVU840
 903:Drivers/STM32H7xx_HAL_Driver/Src/stm32h7xx_hal_rcc.c **** 
 2490              		.loc 1 903 3 view .LVU841
 910:Drivers/STM32H7xx_HAL_Driver/Src/stm32h7xx_hal_rcc.c ****   {
 2491              		.loc 1 910 3 view .LVU842
 910:Drivers/STM32H7xx_HAL_Driver/Src/stm32h7xx_hal_rcc.c ****   {
 2492              		.loc 1 910 5 is_stmt 0 view .LVU843
 2493 0018 0CD2     		bcs	.L238
 913:Drivers/STM32H7xx_HAL_Driver/Src/stm32h7xx_hal_rcc.c **** 
 2494              		.loc 1 913 5 is_stmt 1 view .LVU844
 2495 001a 1368     		ldr	r3, [r2]
 2496 001c 23F00F03 		bic	r3, r3, #15
ARM GAS  C:\Users\MadeuxS\AppData\Local\Temp\ccJrku7c.s 			page 84


 2497 0020 0B43     		orrs	r3, r3, r1
 2498 0022 1360     		str	r3, [r2]
 917:Drivers/STM32H7xx_HAL_Driver/Src/stm32h7xx_hal_rcc.c ****     {
 2499              		.loc 1 917 5 view .LVU845
 917:Drivers/STM32H7xx_HAL_Driver/Src/stm32h7xx_hal_rcc.c ****     {
 2500              		.loc 1 917 8 is_stmt 0 view .LVU846
 2501 0024 1368     		ldr	r3, [r2]
 2502 0026 03F00F03 		and	r3, r3, #15
 917:Drivers/STM32H7xx_HAL_Driver/Src/stm32h7xx_hal_rcc.c ****     {
 2503              		.loc 1 917 7 view .LVU847
 2504 002a 8B42     		cmp	r3, r1
 2505 002c 02D0     		beq	.L238
 2506              	.LVL197:
 2507              	.L237:
 898:Drivers/STM32H7xx_HAL_Driver/Src/stm32h7xx_hal_rcc.c ****   }
 2508              		.loc 1 898 12 view .LVU848
 2509 002e 0120     		movs	r0, #1
 2510              	.L294:
1207:Drivers/STM32H7xx_HAL_Driver/Src/stm32h7xx_hal_rcc.c **** 
 2511              		.loc 1 1207 1 view .LVU849
 2512 0030 BDE8F081 		pop	{r4, r5, r6, r7, r8, pc}
 2513              	.LVL198:
 2514              	.L238:
 926:Drivers/STM32H7xx_HAL_Driver/Src/stm32h7xx_hal_rcc.c ****   {
 2515              		.loc 1 926 3 is_stmt 1 view .LVU850
 926:Drivers/STM32H7xx_HAL_Driver/Src/stm32h7xx_hal_rcc.c ****   {
 2516              		.loc 1 926 25 is_stmt 0 view .LVU851
 2517 0034 2368     		ldr	r3, [r4]
 926:Drivers/STM32H7xx_HAL_Driver/Src/stm32h7xx_hal_rcc.c ****   {
 2518              		.loc 1 926 5 view .LVU852
 2519 0036 5F07     		lsls	r7, r3, #29
 2520 0038 0BD5     		bpl	.L236
 929:Drivers/STM32H7xx_HAL_Driver/Src/stm32h7xx_hal_rcc.c ****     {
 2521              		.loc 1 929 5 is_stmt 1 view .LVU853
 929:Drivers/STM32H7xx_HAL_Driver/Src/stm32h7xx_hal_rcc.c ****     {
 2522              		.loc 1 929 50 is_stmt 0 view .LVU854
 2523 003a 8049     		ldr	r1, .L303+4
 2524              	.LVL199:
 929:Drivers/STM32H7xx_HAL_Driver/Src/stm32h7xx_hal_rcc.c ****     {
 2525              		.loc 1 929 26 view .LVU855
 2526 003c 2069     		ldr	r0, [r4, #16]
 2527              	.LVL200:
 929:Drivers/STM32H7xx_HAL_Driver/Src/stm32h7xx_hal_rcc.c ****     {
 2528              		.loc 1 929 50 view .LVU856
 2529 003e 8A69     		ldr	r2, [r1, #24]
 929:Drivers/STM32H7xx_HAL_Driver/Src/stm32h7xx_hal_rcc.c ****     {
 2530              		.loc 1 929 59 view .LVU857
 2531 0040 02F07002 		and	r2, r2, #112
 929:Drivers/STM32H7xx_HAL_Driver/Src/stm32h7xx_hal_rcc.c ****     {
 2532              		.loc 1 929 7 view .LVU858
 2533 0044 9042     		cmp	r0, r2
 2534 0046 04D9     		bls	.L236
 931:Drivers/STM32H7xx_HAL_Driver/Src/stm32h7xx_hal_rcc.c ****       MODIFY_REG(RCC->D1CFGR, RCC_D1CFGR_D1PPRE, RCC_ClkInitStruct->APB3CLKDivider);
 2535              		.loc 1 931 7 is_stmt 1 view .LVU859
 932:Drivers/STM32H7xx_HAL_Driver/Src/stm32h7xx_hal_rcc.c ****     }
 2536              		.loc 1 932 7 view .LVU860
 2537 0048 8A69     		ldr	r2, [r1, #24]
ARM GAS  C:\Users\MadeuxS\AppData\Local\Temp\ccJrku7c.s 			page 85


 2538 004a 22F07002 		bic	r2, r2, #112
 2539 004e 0243     		orrs	r2, r2, r0
 2540 0050 8A61     		str	r2, [r1, #24]
 2541              	.L236:
 944:Drivers/STM32H7xx_HAL_Driver/Src/stm32h7xx_hal_rcc.c ****   {
 2542              		.loc 1 944 3 view .LVU861
 944:Drivers/STM32H7xx_HAL_Driver/Src/stm32h7xx_hal_rcc.c ****   {
 2543              		.loc 1 944 5 is_stmt 0 view .LVU862
 2544 0052 1E07     		lsls	r6, r3, #28
 2545 0054 0BD5     		bpl	.L239
 947:Drivers/STM32H7xx_HAL_Driver/Src/stm32h7xx_hal_rcc.c ****     {
 2546              		.loc 1 947 5 is_stmt 1 view .LVU863
 947:Drivers/STM32H7xx_HAL_Driver/Src/stm32h7xx_hal_rcc.c ****     {
 2547              		.loc 1 947 50 is_stmt 0 view .LVU864
 2548 0056 7949     		ldr	r1, .L303+4
 947:Drivers/STM32H7xx_HAL_Driver/Src/stm32h7xx_hal_rcc.c ****     {
 2549              		.loc 1 947 26 view .LVU865
 2550 0058 6069     		ldr	r0, [r4, #20]
 947:Drivers/STM32H7xx_HAL_Driver/Src/stm32h7xx_hal_rcc.c ****     {
 2551              		.loc 1 947 50 view .LVU866
 2552 005a CA69     		ldr	r2, [r1, #28]
 947:Drivers/STM32H7xx_HAL_Driver/Src/stm32h7xx_hal_rcc.c ****     {
 2553              		.loc 1 947 59 view .LVU867
 2554 005c 02F07002 		and	r2, r2, #112
 947:Drivers/STM32H7xx_HAL_Driver/Src/stm32h7xx_hal_rcc.c ****     {
 2555              		.loc 1 947 7 view .LVU868
 2556 0060 9042     		cmp	r0, r2
 2557 0062 04D9     		bls	.L239
 949:Drivers/STM32H7xx_HAL_Driver/Src/stm32h7xx_hal_rcc.c ****       MODIFY_REG(RCC->D2CFGR, RCC_D2CFGR_D2PPRE1, (RCC_ClkInitStruct->APB1CLKDivider));
 2558              		.loc 1 949 7 is_stmt 1 view .LVU869
 950:Drivers/STM32H7xx_HAL_Driver/Src/stm32h7xx_hal_rcc.c ****     }
 2559              		.loc 1 950 7 view .LVU870
 2560 0064 CA69     		ldr	r2, [r1, #28]
 2561 0066 22F07002 		bic	r2, r2, #112
 2562 006a 0243     		orrs	r2, r2, r0
 2563 006c CA61     		str	r2, [r1, #28]
 2564              	.L239:
 961:Drivers/STM32H7xx_HAL_Driver/Src/stm32h7xx_hal_rcc.c ****   {
 2565              		.loc 1 961 3 view .LVU871
 961:Drivers/STM32H7xx_HAL_Driver/Src/stm32h7xx_hal_rcc.c ****   {
 2566              		.loc 1 961 5 is_stmt 0 view .LVU872
 2567 006e D806     		lsls	r0, r3, #27
 2568 0070 0BD5     		bpl	.L240
 964:Drivers/STM32H7xx_HAL_Driver/Src/stm32h7xx_hal_rcc.c ****     {
 2569              		.loc 1 964 5 is_stmt 1 view .LVU873
 964:Drivers/STM32H7xx_HAL_Driver/Src/stm32h7xx_hal_rcc.c ****     {
 2570              		.loc 1 964 50 is_stmt 0 view .LVU874
 2571 0072 7249     		ldr	r1, .L303+4
 964:Drivers/STM32H7xx_HAL_Driver/Src/stm32h7xx_hal_rcc.c ****     {
 2572              		.loc 1 964 26 view .LVU875
 2573 0074 A069     		ldr	r0, [r4, #24]
 964:Drivers/STM32H7xx_HAL_Driver/Src/stm32h7xx_hal_rcc.c ****     {
 2574              		.loc 1 964 50 view .LVU876
 2575 0076 CA69     		ldr	r2, [r1, #28]
 964:Drivers/STM32H7xx_HAL_Driver/Src/stm32h7xx_hal_rcc.c ****     {
 2576              		.loc 1 964 59 view .LVU877
 2577 0078 02F4E062 		and	r2, r2, #1792
ARM GAS  C:\Users\MadeuxS\AppData\Local\Temp\ccJrku7c.s 			page 86


 964:Drivers/STM32H7xx_HAL_Driver/Src/stm32h7xx_hal_rcc.c ****     {
 2578              		.loc 1 964 7 view .LVU878
 2579 007c 9042     		cmp	r0, r2
 2580 007e 04D9     		bls	.L240
 966:Drivers/STM32H7xx_HAL_Driver/Src/stm32h7xx_hal_rcc.c ****       MODIFY_REG(RCC->D2CFGR, RCC_D2CFGR_D2PPRE2, (RCC_ClkInitStruct->APB2CLKDivider));
 2581              		.loc 1 966 7 is_stmt 1 view .LVU879
 967:Drivers/STM32H7xx_HAL_Driver/Src/stm32h7xx_hal_rcc.c ****     }
 2582              		.loc 1 967 7 view .LVU880
 2583 0080 CA69     		ldr	r2, [r1, #28]
 2584 0082 22F4E062 		bic	r2, r2, #1792
 2585 0086 0243     		orrs	r2, r2, r0
 2586 0088 CA61     		str	r2, [r1, #28]
 2587              	.L240:
 979:Drivers/STM32H7xx_HAL_Driver/Src/stm32h7xx_hal_rcc.c ****   {
 2588              		.loc 1 979 3 view .LVU881
 979:Drivers/STM32H7xx_HAL_Driver/Src/stm32h7xx_hal_rcc.c ****   {
 2589              		.loc 1 979 5 is_stmt 0 view .LVU882
 2590 008a 9906     		lsls	r1, r3, #26
 2591 008c 0BD5     		bpl	.L241
 982:Drivers/STM32H7xx_HAL_Driver/Src/stm32h7xx_hal_rcc.c ****     {
 2592              		.loc 1 982 5 is_stmt 1 view .LVU883
 982:Drivers/STM32H7xx_HAL_Driver/Src/stm32h7xx_hal_rcc.c ****     {
 2593              		.loc 1 982 50 is_stmt 0 view .LVU884
 2594 008e 6B49     		ldr	r1, .L303+4
 982:Drivers/STM32H7xx_HAL_Driver/Src/stm32h7xx_hal_rcc.c ****     {
 2595              		.loc 1 982 26 view .LVU885
 2596 0090 E069     		ldr	r0, [r4, #28]
 982:Drivers/STM32H7xx_HAL_Driver/Src/stm32h7xx_hal_rcc.c ****     {
 2597              		.loc 1 982 50 view .LVU886
 2598 0092 0A6A     		ldr	r2, [r1, #32]
 982:Drivers/STM32H7xx_HAL_Driver/Src/stm32h7xx_hal_rcc.c ****     {
 2599              		.loc 1 982 59 view .LVU887
 2600 0094 02F07002 		and	r2, r2, #112
 982:Drivers/STM32H7xx_HAL_Driver/Src/stm32h7xx_hal_rcc.c ****     {
 2601              		.loc 1 982 7 view .LVU888
 2602 0098 9042     		cmp	r0, r2
 2603 009a 04D9     		bls	.L241
 984:Drivers/STM32H7xx_HAL_Driver/Src/stm32h7xx_hal_rcc.c ****       MODIFY_REG(RCC->D3CFGR, RCC_D3CFGR_D3PPRE, (RCC_ClkInitStruct->APB4CLKDivider) );
 2604              		.loc 1 984 7 is_stmt 1 view .LVU889
 985:Drivers/STM32H7xx_HAL_Driver/Src/stm32h7xx_hal_rcc.c ****     }
 2605              		.loc 1 985 7 view .LVU890
 2606 009c 0A6A     		ldr	r2, [r1, #32]
 2607 009e 22F07002 		bic	r2, r2, #112
 2608 00a2 0243     		orrs	r2, r2, r0
 2609 00a4 0A62     		str	r2, [r1, #32]
 2610              	.L241:
 997:Drivers/STM32H7xx_HAL_Driver/Src/stm32h7xx_hal_rcc.c ****   {
 2611              		.loc 1 997 3 view .LVU891
 997:Drivers/STM32H7xx_HAL_Driver/Src/stm32h7xx_hal_rcc.c ****   {
 2612              		.loc 1 997 5 is_stmt 0 view .LVU892
 2613 00a6 9A07     		lsls	r2, r3, #30
 2614 00a8 40F1AB80 		bpl	.L242
1000:Drivers/STM32H7xx_HAL_Driver/Src/stm32h7xx_hal_rcc.c ****     {
 2615              		.loc 1 1000 5 is_stmt 1 view .LVU893
1000:Drivers/STM32H7xx_HAL_Driver/Src/stm32h7xx_hal_rcc.c ****     {
 2616              		.loc 1 1000 49 is_stmt 0 view .LVU894
 2617 00ac 6348     		ldr	r0, .L303+4
ARM GAS  C:\Users\MadeuxS\AppData\Local\Temp\ccJrku7c.s 			page 87


1000:Drivers/STM32H7xx_HAL_Driver/Src/stm32h7xx_hal_rcc.c ****     {
 2618              		.loc 1 1000 26 view .LVU895
 2619 00ae E168     		ldr	r1, [r4, #12]
1000:Drivers/STM32H7xx_HAL_Driver/Src/stm32h7xx_hal_rcc.c ****     {
 2620              		.loc 1 1000 49 view .LVU896
 2621 00b0 8269     		ldr	r2, [r0, #24]
1000:Drivers/STM32H7xx_HAL_Driver/Src/stm32h7xx_hal_rcc.c ****     {
 2622              		.loc 1 1000 58 view .LVU897
 2623 00b2 02F00F02 		and	r2, r2, #15
1000:Drivers/STM32H7xx_HAL_Driver/Src/stm32h7xx_hal_rcc.c ****     {
 2624              		.loc 1 1000 7 view .LVU898
 2625 00b6 9142     		cmp	r1, r2
 2626 00b8 04D9     		bls	.L243
1003:Drivers/STM32H7xx_HAL_Driver/Src/stm32h7xx_hal_rcc.c ****       MODIFY_REG(RCC->D1CFGR, RCC_D1CFGR_HPRE, RCC_ClkInitStruct->AHBCLKDivider);
 2627              		.loc 1 1003 7 is_stmt 1 view .LVU899
1004:Drivers/STM32H7xx_HAL_Driver/Src/stm32h7xx_hal_rcc.c ****     }
 2628              		.loc 1 1004 7 view .LVU900
 2629 00ba 8269     		ldr	r2, [r0, #24]
 2630 00bc 22F00F02 		bic	r2, r2, #15
 2631 00c0 0A43     		orrs	r2, r2, r1
 2632 00c2 8261     		str	r2, [r0, #24]
 2633              	.L243:
1017:Drivers/STM32H7xx_HAL_Driver/Src/stm32h7xx_hal_rcc.c ****     {
 2634              		.loc 1 1017 5 view .LVU901
1017:Drivers/STM32H7xx_HAL_Driver/Src/stm32h7xx_hal_rcc.c ****     {
 2635              		.loc 1 1017 7 is_stmt 0 view .LVU902
 2636 00c4 D807     		lsls	r0, r3, #31
 2637 00c6 30D5     		bpl	.L259
 2638              	.L258:
1019:Drivers/STM32H7xx_HAL_Driver/Src/stm32h7xx_hal_rcc.c ****       assert_param(IS_RCC_SYSCLKSOURCE(RCC_ClkInitStruct->SYSCLKSource));
 2639              		.loc 1 1019 7 is_stmt 1 view .LVU903
1020:Drivers/STM32H7xx_HAL_Driver/Src/stm32h7xx_hal_rcc.c **** #if defined(RCC_D1CFGR_D1CPRE)
 2640              		.loc 1 1020 7 view .LVU904
1022:Drivers/STM32H7xx_HAL_Driver/Src/stm32h7xx_hal_rcc.c **** #else
 2641              		.loc 1 1022 7 view .LVU905
 2642 00c8 5C4A     		ldr	r2, .L303+4
 2643 00ca A168     		ldr	r1, [r4, #8]
 2644 00cc 9369     		ldr	r3, [r2, #24]
 2645 00ce 23F47063 		bic	r3, r3, #3840
 2646 00d2 0B43     		orrs	r3, r3, r1
 2647 00d4 9361     		str	r3, [r2, #24]
1027:Drivers/STM32H7xx_HAL_Driver/Src/stm32h7xx_hal_rcc.c ****       {
 2648              		.loc 1 1027 7 view .LVU906
1027:Drivers/STM32H7xx_HAL_Driver/Src/stm32h7xx_hal_rcc.c ****       {
 2649              		.loc 1 1027 27 is_stmt 0 view .LVU907
 2650 00d6 6168     		ldr	r1, [r4, #4]
1030:Drivers/STM32H7xx_HAL_Driver/Src/stm32h7xx_hal_rcc.c ****         {
 2651              		.loc 1 1030 12 view .LVU908
 2652 00d8 1368     		ldr	r3, [r2]
1027:Drivers/STM32H7xx_HAL_Driver/Src/stm32h7xx_hal_rcc.c ****       {
 2653              		.loc 1 1027 9 view .LVU909
 2654 00da 0229     		cmp	r1, #2
 2655 00dc 00F0A180 		beq	.L299
1036:Drivers/STM32H7xx_HAL_Driver/Src/stm32h7xx_hal_rcc.c ****       {
 2656              		.loc 1 1036 12 is_stmt 1 view .LVU910
1036:Drivers/STM32H7xx_HAL_Driver/Src/stm32h7xx_hal_rcc.c ****       {
 2657              		.loc 1 1036 14 is_stmt 0 view .LVU911
ARM GAS  C:\Users\MadeuxS\AppData\Local\Temp\ccJrku7c.s 			page 88


 2658 00e0 0329     		cmp	r1, #3
 2659 00e2 00F09880 		beq	.L300
1045:Drivers/STM32H7xx_HAL_Driver/Src/stm32h7xx_hal_rcc.c ****       {
 2660              		.loc 1 1045 12 is_stmt 1 view .LVU912
1045:Drivers/STM32H7xx_HAL_Driver/Src/stm32h7xx_hal_rcc.c ****       {
 2661              		.loc 1 1045 14 is_stmt 0 view .LVU913
 2662 00e6 0129     		cmp	r1, #1
 2663 00e8 00F0A180 		beq	.L301
1057:Drivers/STM32H7xx_HAL_Driver/Src/stm32h7xx_hal_rcc.c ****         {
 2664              		.loc 1 1057 9 is_stmt 1 view .LVU914
1057:Drivers/STM32H7xx_HAL_Driver/Src/stm32h7xx_hal_rcc.c ****         {
 2665              		.loc 1 1057 11 is_stmt 0 view .LVU915
 2666 00ec 5807     		lsls	r0, r3, #29
 2667 00ee 9ED5     		bpl	.L237
 2668              	.L245:
1062:Drivers/STM32H7xx_HAL_Driver/Src/stm32h7xx_hal_rcc.c **** 
 2669              		.loc 1 1062 7 is_stmt 1 view .LVU916
 2670 00f0 524E     		ldr	r6, .L303+4
1069:Drivers/STM32H7xx_HAL_Driver/Src/stm32h7xx_hal_rcc.c ****           {
 2671              		.loc 1 1069 13 is_stmt 0 view .LVU917
 2672 00f2 41F28838 		movw	r8, #5000
1062:Drivers/STM32H7xx_HAL_Driver/Src/stm32h7xx_hal_rcc.c **** 
 2673              		.loc 1 1062 7 view .LVU918
 2674 00f6 3369     		ldr	r3, [r6, #16]
 2675 00f8 23F00703 		bic	r3, r3, #7
 2676 00fc 0B43     		orrs	r3, r3, r1
 2677 00fe 3361     		str	r3, [r6, #16]
1065:Drivers/STM32H7xx_HAL_Driver/Src/stm32h7xx_hal_rcc.c **** 
 2678              		.loc 1 1065 7 is_stmt 1 view .LVU919
1065:Drivers/STM32H7xx_HAL_Driver/Src/stm32h7xx_hal_rcc.c **** 
 2679              		.loc 1 1065 19 is_stmt 0 view .LVU920
 2680 0100 FFF7FEFF 		bl	HAL_GetTick
 2681              	.LVL201:
 2682 0104 0746     		mov	r7, r0
 2683              	.LVL202:
1067:Drivers/STM32H7xx_HAL_Driver/Src/stm32h7xx_hal_rcc.c ****         {
 2684              		.loc 1 1067 9 is_stmt 1 view .LVU921
1067:Drivers/STM32H7xx_HAL_Driver/Src/stm32h7xx_hal_rcc.c ****         {
 2685              		.loc 1 1067 15 is_stmt 0 view .LVU922
 2686 0106 05E0     		b	.L248
 2687              	.LVL203:
 2688              	.L249:
1069:Drivers/STM32H7xx_HAL_Driver/Src/stm32h7xx_hal_rcc.c ****           {
 2689              		.loc 1 1069 15 view .LVU923
 2690 0108 FFF7FEFF 		bl	HAL_GetTick
 2691              	.LVL204:
1069:Drivers/STM32H7xx_HAL_Driver/Src/stm32h7xx_hal_rcc.c ****           {
 2692              		.loc 1 1069 29 view .LVU924
 2693 010c C01B     		subs	r0, r0, r7
1069:Drivers/STM32H7xx_HAL_Driver/Src/stm32h7xx_hal_rcc.c ****           {
 2694              		.loc 1 1069 13 view .LVU925
 2695 010e 4045     		cmp	r0, r8
 2696 0110 00F28B80 		bhi	.L260
 2697              	.L248:
1069:Drivers/STM32H7xx_HAL_Driver/Src/stm32h7xx_hal_rcc.c ****           {
 2698              		.loc 1 1069 11 is_stmt 1 view .LVU926
1067:Drivers/STM32H7xx_HAL_Driver/Src/stm32h7xx_hal_rcc.c ****         {
ARM GAS  C:\Users\MadeuxS\AppData\Local\Temp\ccJrku7c.s 			page 89


 2699              		.loc 1 1067 15 view .LVU927
1067:Drivers/STM32H7xx_HAL_Driver/Src/stm32h7xx_hal_rcc.c ****         {
 2700              		.loc 1 1067 16 is_stmt 0 view .LVU928
 2701 0114 3369     		ldr	r3, [r6, #16]
1067:Drivers/STM32H7xx_HAL_Driver/Src/stm32h7xx_hal_rcc.c ****         {
 2702              		.loc 1 1067 83 view .LVU929
 2703 0116 6268     		ldr	r2, [r4, #4]
1067:Drivers/STM32H7xx_HAL_Driver/Src/stm32h7xx_hal_rcc.c ****         {
 2704              		.loc 1 1067 16 view .LVU930
 2705 0118 03F03803 		and	r3, r3, #56
1067:Drivers/STM32H7xx_HAL_Driver/Src/stm32h7xx_hal_rcc.c ****         {
 2706              		.loc 1 1067 15 view .LVU931
 2707 011c B3EBC20F 		cmp	r3, r2, lsl #3
 2708 0120 F2D1     		bne	.L249
1079:Drivers/STM32H7xx_HAL_Driver/Src/stm32h7xx_hal_rcc.c ****   {
 2709              		.loc 1 1079 3 is_stmt 1 view .LVU932
1079:Drivers/STM32H7xx_HAL_Driver/Src/stm32h7xx_hal_rcc.c ****   {
 2710              		.loc 1 1079 25 is_stmt 0 view .LVU933
 2711 0122 2368     		ldr	r3, [r4]
1079:Drivers/STM32H7xx_HAL_Driver/Src/stm32h7xx_hal_rcc.c ****   {
 2712              		.loc 1 1079 5 view .LVU934
 2713 0124 9907     		lsls	r1, r3, #30
 2714 0126 06D5     		bpl	.L250
1082:Drivers/STM32H7xx_HAL_Driver/Src/stm32h7xx_hal_rcc.c ****     {
 2715              		.loc 1 1082 26 view .LVU935
 2716 0128 E168     		ldr	r1, [r4, #12]
 2717              	.LVL205:
 2718              	.L259:
1082:Drivers/STM32H7xx_HAL_Driver/Src/stm32h7xx_hal_rcc.c ****     {
 2719              		.loc 1 1082 5 is_stmt 1 view .LVU936
1082:Drivers/STM32H7xx_HAL_Driver/Src/stm32h7xx_hal_rcc.c ****     {
 2720              		.loc 1 1082 49 is_stmt 0 view .LVU937
 2721 012a 4448     		ldr	r0, .L303+4
 2722 012c 8269     		ldr	r2, [r0, #24]
1082:Drivers/STM32H7xx_HAL_Driver/Src/stm32h7xx_hal_rcc.c ****     {
 2723              		.loc 1 1082 58 view .LVU938
 2724 012e 02F00F02 		and	r2, r2, #15
1082:Drivers/STM32H7xx_HAL_Driver/Src/stm32h7xx_hal_rcc.c ****     {
 2725              		.loc 1 1082 7 view .LVU939
 2726 0132 8A42     		cmp	r2, r1
 2727 0134 69D8     		bhi	.L302
 2728              	.L250:
1099:Drivers/STM32H7xx_HAL_Driver/Src/stm32h7xx_hal_rcc.c ****   {
 2729              		.loc 1 1099 3 is_stmt 1 view .LVU940
1099:Drivers/STM32H7xx_HAL_Driver/Src/stm32h7xx_hal_rcc.c ****   {
 2730              		.loc 1 1099 17 is_stmt 0 view .LVU941
 2731 0136 4049     		ldr	r1, .L303
 2732 0138 0A68     		ldr	r2, [r1]
 2733 013a 02F00F02 		and	r2, r2, #15
1099:Drivers/STM32H7xx_HAL_Driver/Src/stm32h7xx_hal_rcc.c ****   {
 2734              		.loc 1 1099 5 view .LVU942
 2735 013e AA42     		cmp	r2, r5
 2736 0140 0AD9     		bls	.L254
1102:Drivers/STM32H7xx_HAL_Driver/Src/stm32h7xx_hal_rcc.c **** 
 2737              		.loc 1 1102 5 is_stmt 1 view .LVU943
 2738 0142 0A68     		ldr	r2, [r1]
 2739 0144 22F00F02 		bic	r2, r2, #15
ARM GAS  C:\Users\MadeuxS\AppData\Local\Temp\ccJrku7c.s 			page 90


 2740 0148 2A43     		orrs	r2, r2, r5
 2741 014a 0A60     		str	r2, [r1]
1106:Drivers/STM32H7xx_HAL_Driver/Src/stm32h7xx_hal_rcc.c ****     {
 2742              		.loc 1 1106 5 view .LVU944
1106:Drivers/STM32H7xx_HAL_Driver/Src/stm32h7xx_hal_rcc.c ****     {
 2743              		.loc 1 1106 8 is_stmt 0 view .LVU945
 2744 014c 0A68     		ldr	r2, [r1]
 2745 014e 02F00F02 		and	r2, r2, #15
1106:Drivers/STM32H7xx_HAL_Driver/Src/stm32h7xx_hal_rcc.c ****     {
 2746              		.loc 1 1106 7 view .LVU946
 2747 0152 AA42     		cmp	r2, r5
 2748 0154 7FF46BAF 		bne	.L237
 2749              	.L254:
1113:Drivers/STM32H7xx_HAL_Driver/Src/stm32h7xx_hal_rcc.c ****  {
 2750              		.loc 1 1113 2 is_stmt 1 view .LVU947
1113:Drivers/STM32H7xx_HAL_Driver/Src/stm32h7xx_hal_rcc.c ****  {
 2751              		.loc 1 1113 4 is_stmt 0 view .LVU948
 2752 0158 5A07     		lsls	r2, r3, #29
 2753 015a 0BD5     		bpl	.L253
1116:Drivers/STM32H7xx_HAL_Driver/Src/stm32h7xx_hal_rcc.c ****    {
 2754              		.loc 1 1116 4 is_stmt 1 view .LVU949
1116:Drivers/STM32H7xx_HAL_Driver/Src/stm32h7xx_hal_rcc.c ****    {
 2755              		.loc 1 1116 49 is_stmt 0 view .LVU950
 2756 015c 3749     		ldr	r1, .L303+4
1116:Drivers/STM32H7xx_HAL_Driver/Src/stm32h7xx_hal_rcc.c ****    {
 2757              		.loc 1 1116 25 view .LVU951
 2758 015e 2069     		ldr	r0, [r4, #16]
1116:Drivers/STM32H7xx_HAL_Driver/Src/stm32h7xx_hal_rcc.c ****    {
 2759              		.loc 1 1116 49 view .LVU952
 2760 0160 8A69     		ldr	r2, [r1, #24]
1116:Drivers/STM32H7xx_HAL_Driver/Src/stm32h7xx_hal_rcc.c ****    {
 2761              		.loc 1 1116 58 view .LVU953
 2762 0162 02F07002 		and	r2, r2, #112
1116:Drivers/STM32H7xx_HAL_Driver/Src/stm32h7xx_hal_rcc.c ****    {
 2763              		.loc 1 1116 6 view .LVU954
 2764 0166 9042     		cmp	r0, r2
 2765 0168 04D2     		bcs	.L253
1118:Drivers/STM32H7xx_HAL_Driver/Src/stm32h7xx_hal_rcc.c ****      MODIFY_REG(RCC->D1CFGR, RCC_D1CFGR_D1PPRE, RCC_ClkInitStruct->APB3CLKDivider);
 2766              		.loc 1 1118 6 is_stmt 1 view .LVU955
1119:Drivers/STM32H7xx_HAL_Driver/Src/stm32h7xx_hal_rcc.c ****    }
 2767              		.loc 1 1119 6 view .LVU956
 2768 016a 8A69     		ldr	r2, [r1, #24]
 2769 016c 22F07002 		bic	r2, r2, #112
 2770 0170 0243     		orrs	r2, r2, r0
 2771 0172 8A61     		str	r2, [r1, #24]
 2772              	.L253:
1131:Drivers/STM32H7xx_HAL_Driver/Src/stm32h7xx_hal_rcc.c ****  {
 2773              		.loc 1 1131 2 view .LVU957
1131:Drivers/STM32H7xx_HAL_Driver/Src/stm32h7xx_hal_rcc.c ****  {
 2774              		.loc 1 1131 4 is_stmt 0 view .LVU958
 2775 0174 1F07     		lsls	r7, r3, #28
 2776 0176 0BD5     		bpl	.L255
1134:Drivers/STM32H7xx_HAL_Driver/Src/stm32h7xx_hal_rcc.c ****    {
 2777              		.loc 1 1134 4 is_stmt 1 view .LVU959
1134:Drivers/STM32H7xx_HAL_Driver/Src/stm32h7xx_hal_rcc.c ****    {
 2778              		.loc 1 1134 49 is_stmt 0 view .LVU960
 2779 0178 3049     		ldr	r1, .L303+4
ARM GAS  C:\Users\MadeuxS\AppData\Local\Temp\ccJrku7c.s 			page 91


1134:Drivers/STM32H7xx_HAL_Driver/Src/stm32h7xx_hal_rcc.c ****    {
 2780              		.loc 1 1134 25 view .LVU961
 2781 017a 6069     		ldr	r0, [r4, #20]
1134:Drivers/STM32H7xx_HAL_Driver/Src/stm32h7xx_hal_rcc.c ****    {
 2782              		.loc 1 1134 49 view .LVU962
 2783 017c CA69     		ldr	r2, [r1, #28]
1134:Drivers/STM32H7xx_HAL_Driver/Src/stm32h7xx_hal_rcc.c ****    {
 2784              		.loc 1 1134 58 view .LVU963
 2785 017e 02F07002 		and	r2, r2, #112
1134:Drivers/STM32H7xx_HAL_Driver/Src/stm32h7xx_hal_rcc.c ****    {
 2786              		.loc 1 1134 6 view .LVU964
 2787 0182 9042     		cmp	r0, r2
 2788 0184 04D2     		bcs	.L255
1136:Drivers/STM32H7xx_HAL_Driver/Src/stm32h7xx_hal_rcc.c ****      MODIFY_REG(RCC->D2CFGR, RCC_D2CFGR_D2PPRE1, (RCC_ClkInitStruct->APB1CLKDivider));
 2789              		.loc 1 1136 6 is_stmt 1 view .LVU965
1137:Drivers/STM32H7xx_HAL_Driver/Src/stm32h7xx_hal_rcc.c ****    }
 2790              		.loc 1 1137 6 view .LVU966
 2791 0186 CA69     		ldr	r2, [r1, #28]
 2792 0188 22F07002 		bic	r2, r2, #112
 2793 018c 0243     		orrs	r2, r2, r0
 2794 018e CA61     		str	r2, [r1, #28]
 2795              	.L255:
1149:Drivers/STM32H7xx_HAL_Driver/Src/stm32h7xx_hal_rcc.c ****  {
 2796              		.loc 1 1149 2 view .LVU967
1149:Drivers/STM32H7xx_HAL_Driver/Src/stm32h7xx_hal_rcc.c ****  {
 2797              		.loc 1 1149 4 is_stmt 0 view .LVU968
 2798 0190 DE06     		lsls	r6, r3, #27
 2799 0192 0BD5     		bpl	.L256
1152:Drivers/STM32H7xx_HAL_Driver/Src/stm32h7xx_hal_rcc.c ****    {
 2800              		.loc 1 1152 4 is_stmt 1 view .LVU969
1152:Drivers/STM32H7xx_HAL_Driver/Src/stm32h7xx_hal_rcc.c ****    {
 2801              		.loc 1 1152 49 is_stmt 0 view .LVU970
 2802 0194 2949     		ldr	r1, .L303+4
1152:Drivers/STM32H7xx_HAL_Driver/Src/stm32h7xx_hal_rcc.c ****    {
 2803              		.loc 1 1152 25 view .LVU971
 2804 0196 A069     		ldr	r0, [r4, #24]
1152:Drivers/STM32H7xx_HAL_Driver/Src/stm32h7xx_hal_rcc.c ****    {
 2805              		.loc 1 1152 49 view .LVU972
 2806 0198 CA69     		ldr	r2, [r1, #28]
1152:Drivers/STM32H7xx_HAL_Driver/Src/stm32h7xx_hal_rcc.c ****    {
 2807              		.loc 1 1152 58 view .LVU973
 2808 019a 02F4E062 		and	r2, r2, #1792
1152:Drivers/STM32H7xx_HAL_Driver/Src/stm32h7xx_hal_rcc.c ****    {
 2809              		.loc 1 1152 6 view .LVU974
 2810 019e 9042     		cmp	r0, r2
 2811 01a0 04D2     		bcs	.L256
1154:Drivers/STM32H7xx_HAL_Driver/Src/stm32h7xx_hal_rcc.c ****      MODIFY_REG(RCC->D2CFGR, RCC_D2CFGR_D2PPRE2, (RCC_ClkInitStruct->APB2CLKDivider));
 2812              		.loc 1 1154 6 is_stmt 1 view .LVU975
1155:Drivers/STM32H7xx_HAL_Driver/Src/stm32h7xx_hal_rcc.c ****    }
 2813              		.loc 1 1155 6 view .LVU976
 2814 01a2 CA69     		ldr	r2, [r1, #28]
 2815 01a4 22F4E062 		bic	r2, r2, #1792
 2816 01a8 0243     		orrs	r2, r2, r0
 2817 01aa CA61     		str	r2, [r1, #28]
 2818              	.L256:
1167:Drivers/STM32H7xx_HAL_Driver/Src/stm32h7xx_hal_rcc.c ****  {
 2819              		.loc 1 1167 2 view .LVU977
ARM GAS  C:\Users\MadeuxS\AppData\Local\Temp\ccJrku7c.s 			page 92


1167:Drivers/STM32H7xx_HAL_Driver/Src/stm32h7xx_hal_rcc.c ****  {
 2820              		.loc 1 1167 4 is_stmt 0 view .LVU978
 2821 01ac 9D06     		lsls	r5, r3, #26
 2822              	.LVL206:
1167:Drivers/STM32H7xx_HAL_Driver/Src/stm32h7xx_hal_rcc.c ****  {
 2823              		.loc 1 1167 4 view .LVU979
 2824 01ae 0BD5     		bpl	.L257
1170:Drivers/STM32H7xx_HAL_Driver/Src/stm32h7xx_hal_rcc.c ****    {
 2825              		.loc 1 1170 4 is_stmt 1 view .LVU980
1170:Drivers/STM32H7xx_HAL_Driver/Src/stm32h7xx_hal_rcc.c ****    {
 2826              		.loc 1 1170 49 is_stmt 0 view .LVU981
 2827 01b0 224A     		ldr	r2, .L303+4
1170:Drivers/STM32H7xx_HAL_Driver/Src/stm32h7xx_hal_rcc.c ****    {
 2828              		.loc 1 1170 25 view .LVU982
 2829 01b2 E169     		ldr	r1, [r4, #28]
1170:Drivers/STM32H7xx_HAL_Driver/Src/stm32h7xx_hal_rcc.c ****    {
 2830              		.loc 1 1170 49 view .LVU983
 2831 01b4 136A     		ldr	r3, [r2, #32]
1170:Drivers/STM32H7xx_HAL_Driver/Src/stm32h7xx_hal_rcc.c ****    {
 2832              		.loc 1 1170 58 view .LVU984
 2833 01b6 03F07003 		and	r3, r3, #112
1170:Drivers/STM32H7xx_HAL_Driver/Src/stm32h7xx_hal_rcc.c ****    {
 2834              		.loc 1 1170 6 view .LVU985
 2835 01ba 9942     		cmp	r1, r3
 2836 01bc 04D2     		bcs	.L257
1172:Drivers/STM32H7xx_HAL_Driver/Src/stm32h7xx_hal_rcc.c ****      MODIFY_REG(RCC->D3CFGR, RCC_D3CFGR_D3PPRE, (RCC_ClkInitStruct->APB4CLKDivider) );
 2837              		.loc 1 1172 6 is_stmt 1 view .LVU986
1173:Drivers/STM32H7xx_HAL_Driver/Src/stm32h7xx_hal_rcc.c ****    }
 2838              		.loc 1 1173 6 view .LVU987
 2839 01be 136A     		ldr	r3, [r2, #32]
 2840 01c0 23F07003 		bic	r3, r3, #112
 2841 01c4 0B43     		orrs	r3, r3, r1
 2842 01c6 1362     		str	r3, [r2, #32]
 2843              	.L257:
1186:Drivers/STM32H7xx_HAL_Driver/Src/stm32h7xx_hal_rcc.c **** #else
 2844              		.loc 1 1186 3 view .LVU988
1186:Drivers/STM32H7xx_HAL_Driver/Src/stm32h7xx_hal_rcc.c **** #else
 2845              		.loc 1 1186 25 is_stmt 0 view .LVU989
 2846 01c8 FFF7FEFF 		bl	HAL_RCC_GetSysClockFreq
 2847              	.LVL207:
1186:Drivers/STM32H7xx_HAL_Driver/Src/stm32h7xx_hal_rcc.c **** #else
 2848              		.loc 1 1186 77 view .LVU990
 2849 01cc 1B4A     		ldr	r2, .L303+4
1186:Drivers/STM32H7xx_HAL_Driver/Src/stm32h7xx_hal_rcc.c **** #else
 2850              		.loc 1 1186 25 view .LVU991
 2851 01ce 0346     		mov	r3, r0
1186:Drivers/STM32H7xx_HAL_Driver/Src/stm32h7xx_hal_rcc.c **** #else
 2852              		.loc 1 1186 72 view .LVU992
 2853 01d0 1B48     		ldr	r0, .L303+8
1186:Drivers/STM32H7xx_HAL_Driver/Src/stm32h7xx_hal_rcc.c **** #else
 2854              		.loc 1 1186 77 view .LVU993
 2855 01d2 9169     		ldr	r1, [r2, #24]
1192:Drivers/STM32H7xx_HAL_Driver/Src/stm32h7xx_hal_rcc.c **** #else
 2856              		.loc 1 1192 66 view .LVU994
 2857 01d4 9269     		ldr	r2, [r2, #24]
1186:Drivers/STM32H7xx_HAL_Driver/Src/stm32h7xx_hal_rcc.c **** #else
 2858              		.loc 1 1186 106 view .LVU995
ARM GAS  C:\Users\MadeuxS\AppData\Local\Temp\ccJrku7c.s 			page 93


 2859 01d6 C1F30321 		ubfx	r1, r1, #8, #4
1200:Drivers/STM32H7xx_HAL_Driver/Src/stm32h7xx_hal_rcc.c **** #endif /* DUAL_CORE && CORE_CM4 */
 2860              		.loc 1 1200 19 view .LVU996
 2861 01da 1A4D     		ldr	r5, .L303+12
1192:Drivers/STM32H7xx_HAL_Driver/Src/stm32h7xx_hal_rcc.c **** #else
 2862              		.loc 1 1192 93 view .LVU997
 2863 01dc 02F00F02 		and	r2, r2, #15
1192:Drivers/STM32H7xx_HAL_Driver/Src/stm32h7xx_hal_rcc.c **** #else
 2864              		.loc 1 1192 17 view .LVU998
 2865 01e0 194C     		ldr	r4, .L303+16
 2866              	.LVL208:
1186:Drivers/STM32H7xx_HAL_Driver/Src/stm32h7xx_hal_rcc.c **** #else
 2867              		.loc 1 1186 133 view .LVU999
 2868 01e2 415C     		ldrb	r1, [r0, r1]	@ zero_extendqisi2
1192:Drivers/STM32H7xx_HAL_Driver/Src/stm32h7xx_hal_rcc.c **** #else
 2869              		.loc 1 1192 118 view .LVU1000
 2870 01e4 825C     		ldrb	r2, [r0, r2]	@ zero_extendqisi2
1186:Drivers/STM32H7xx_HAL_Driver/Src/stm32h7xx_hal_rcc.c **** #else
 2871              		.loc 1 1186 133 view .LVU1001
 2872 01e6 01F01F01 		and	r1, r1, #31
1204:Drivers/STM32H7xx_HAL_Driver/Src/stm32h7xx_hal_rcc.c **** 
 2873              		.loc 1 1204 15 view .LVU1002
 2874 01ea 1848     		ldr	r0, .L303+20
1192:Drivers/STM32H7xx_HAL_Driver/Src/stm32h7xx_hal_rcc.c **** #else
 2875              		.loc 1 1192 118 view .LVU1003
 2876 01ec 02F01F02 		and	r2, r2, #31
1186:Drivers/STM32H7xx_HAL_Driver/Src/stm32h7xx_hal_rcc.c **** #else
 2877              		.loc 1 1186 23 view .LVU1004
 2878 01f0 CB40     		lsrs	r3, r3, r1
 2879              	.LVL209:
1192:Drivers/STM32H7xx_HAL_Driver/Src/stm32h7xx_hal_rcc.c **** #else
 2880              		.loc 1 1192 3 is_stmt 1 view .LVU1005
1204:Drivers/STM32H7xx_HAL_Driver/Src/stm32h7xx_hal_rcc.c **** 
 2881              		.loc 1 1204 15 is_stmt 0 view .LVU1006
 2882 01f2 0068     		ldr	r0, [r0]
1200:Drivers/STM32H7xx_HAL_Driver/Src/stm32h7xx_hal_rcc.c **** #endif /* DUAL_CORE && CORE_CM4 */
 2883              		.loc 1 1200 19 view .LVU1007
 2884 01f4 2B60     		str	r3, [r5]
1192:Drivers/STM32H7xx_HAL_Driver/Src/stm32h7xx_hal_rcc.c **** #else
 2885              		.loc 1 1192 40 view .LVU1008
 2886 01f6 D340     		lsrs	r3, r3, r2
 2887              	.LVL210:
1192:Drivers/STM32H7xx_HAL_Driver/Src/stm32h7xx_hal_rcc.c **** #else
 2888              		.loc 1 1192 17 view .LVU1009
 2889 01f8 2360     		str	r3, [r4]
1200:Drivers/STM32H7xx_HAL_Driver/Src/stm32h7xx_hal_rcc.c **** #endif /* DUAL_CORE && CORE_CM4 */
 2890              		.loc 1 1200 3 is_stmt 1 view .LVU1010
1204:Drivers/STM32H7xx_HAL_Driver/Src/stm32h7xx_hal_rcc.c **** 
 2891              		.loc 1 1204 3 view .LVU1011
1207:Drivers/STM32H7xx_HAL_Driver/Src/stm32h7xx_hal_rcc.c **** 
 2892              		.loc 1 1207 1 is_stmt 0 view .LVU1012
 2893 01fa BDE8F041 		pop	{r4, r5, r6, r7, r8, lr}
 2894              	.LCFI16:
 2895              		.cfi_remember_state
 2896              		.cfi_restore 14
 2897              		.cfi_restore 8
 2898              		.cfi_restore 7
ARM GAS  C:\Users\MadeuxS\AppData\Local\Temp\ccJrku7c.s 			page 94


 2899              		.cfi_restore 6
 2900              		.cfi_restore 5
 2901              		.cfi_restore 4
 2902              		.cfi_def_cfa_offset 0
 2903              	.LVL211:
1204:Drivers/STM32H7xx_HAL_Driver/Src/stm32h7xx_hal_rcc.c **** 
 2904              		.loc 1 1204 15 view .LVU1013
 2905 01fe FFF7FEBF 		b	HAL_InitTick
 2906              	.LVL212:
 2907              	.L242:
 2908              	.LCFI17:
 2909              		.cfi_restore_state
1017:Drivers/STM32H7xx_HAL_Driver/Src/stm32h7xx_hal_rcc.c ****     {
 2910              		.loc 1 1017 5 is_stmt 1 view .LVU1014
1017:Drivers/STM32H7xx_HAL_Driver/Src/stm32h7xx_hal_rcc.c ****     {
 2911              		.loc 1 1017 7 is_stmt 0 view .LVU1015
 2912 0202 DA07     		lsls	r2, r3, #31
 2913 0204 3FF560AF 		bmi	.L258
 2914 0208 95E7     		b	.L250
 2915              	.L302:
1085:Drivers/STM32H7xx_HAL_Driver/Src/stm32h7xx_hal_rcc.c ****       MODIFY_REG(RCC->D1CFGR, RCC_D1CFGR_HPRE, RCC_ClkInitStruct->AHBCLKDivider);
 2916              		.loc 1 1085 7 is_stmt 1 view .LVU1016
1086:Drivers/STM32H7xx_HAL_Driver/Src/stm32h7xx_hal_rcc.c ****     }
 2917              		.loc 1 1086 7 view .LVU1017
 2918 020a 8269     		ldr	r2, [r0, #24]
 2919 020c 22F00F02 		bic	r2, r2, #15
 2920 0210 1143     		orrs	r1, r1, r2
 2921 0212 8161     		str	r1, [r0, #24]
 2922 0214 8FE7     		b	.L250
 2923              	.L300:
1039:Drivers/STM32H7xx_HAL_Driver/Src/stm32h7xx_hal_rcc.c ****         {
 2924              		.loc 1 1039 9 view .LVU1018
1039:Drivers/STM32H7xx_HAL_Driver/Src/stm32h7xx_hal_rcc.c ****         {
 2925              		.loc 1 1039 11 is_stmt 0 view .LVU1019
 2926 0216 9F01     		lsls	r7, r3, #6
 2927 0218 3FF56AAF 		bmi	.L245
 2928 021c 07E7     		b	.L237
 2929              	.LVL213:
 2930              	.L298:
 2931              	.LCFI18:
 2932              		.cfi_def_cfa_offset 0
 2933              		.cfi_restore 4
 2934              		.cfi_restore 5
 2935              		.cfi_restore 6
 2936              		.cfi_restore 7
 2937              		.cfi_restore 8
 2938              		.cfi_restore 14
 898:Drivers/STM32H7xx_HAL_Driver/Src/stm32h7xx_hal_rcc.c ****   }
 2939              		.loc 1 898 12 view .LVU1020
 2940 021e 0120     		movs	r0, #1
 2941              	.LVL214:
1207:Drivers/STM32H7xx_HAL_Driver/Src/stm32h7xx_hal_rcc.c **** 
 2942              		.loc 1 1207 1 view .LVU1021
 2943 0220 7047     		bx	lr
 2944              	.LVL215:
 2945              	.L299:
 2946              	.LCFI19:
ARM GAS  C:\Users\MadeuxS\AppData\Local\Temp\ccJrku7c.s 			page 95


 2947              		.cfi_def_cfa_offset 24
 2948              		.cfi_offset 4, -24
 2949              		.cfi_offset 5, -20
 2950              		.cfi_offset 6, -16
 2951              		.cfi_offset 7, -12
 2952              		.cfi_offset 8, -8
 2953              		.cfi_offset 14, -4
1030:Drivers/STM32H7xx_HAL_Driver/Src/stm32h7xx_hal_rcc.c ****         {
 2954              		.loc 1 1030 9 is_stmt 1 view .LVU1022
1030:Drivers/STM32H7xx_HAL_Driver/Src/stm32h7xx_hal_rcc.c ****         {
 2955              		.loc 1 1030 11 is_stmt 0 view .LVU1023
 2956 0222 9B03     		lsls	r3, r3, #14
 2957 0224 3FF564AF 		bmi	.L245
 2958 0228 01E7     		b	.L237
 2959              	.LVL216:
 2960              	.L260:
1071:Drivers/STM32H7xx_HAL_Driver/Src/stm32h7xx_hal_rcc.c ****           }
 2961              		.loc 1 1071 20 view .LVU1024
 2962 022a 0320     		movs	r0, #3
 2963 022c 00E7     		b	.L294
 2964              	.LVL217:
 2965              	.L301:
1048:Drivers/STM32H7xx_HAL_Driver/Src/stm32h7xx_hal_rcc.c ****         {
 2966              		.loc 1 1048 9 is_stmt 1 view .LVU1025
1048:Drivers/STM32H7xx_HAL_Driver/Src/stm32h7xx_hal_rcc.c ****         {
 2967              		.loc 1 1048 11 is_stmt 0 view .LVU1026
 2968 022e DE05     		lsls	r6, r3, #23
 2969 0230 3FF55EAF 		bmi	.L245
 2970 0234 FBE6     		b	.L237
 2971              	.L304:
 2972 0236 00BF     		.align	2
 2973              	.L303:
 2974 0238 00200052 		.word	1375739904
 2975 023c 00440258 		.word	1476543488
 2976 0240 00000000 		.word	D1CorePrescTable
 2977 0244 00000000 		.word	SystemCoreClock
 2978 0248 00000000 		.word	SystemD2Clock
 2979 024c 00000000 		.word	uwTickPrio
 2980              		.cfi_endproc
 2981              	.LFE146:
 2983              		.section	.text.HAL_RCC_GetHCLKFreq,"ax",%progbits
 2984              		.align	1
 2985              		.p2align 2,,3
 2986              		.global	HAL_RCC_GetHCLKFreq
 2987              		.syntax unified
 2988              		.thumb
 2989              		.thumb_func
 2990              		.fpu fpv5-d16
 2992              	HAL_RCC_GetHCLKFreq:
 2993              	.LFB151:
1441:Drivers/STM32H7xx_HAL_Driver/Src/stm32h7xx_hal_rcc.c **** 
1442:Drivers/STM32H7xx_HAL_Driver/Src/stm32h7xx_hal_rcc.c **** 
1443:Drivers/STM32H7xx_HAL_Driver/Src/stm32h7xx_hal_rcc.c **** /**
1444:Drivers/STM32H7xx_HAL_Driver/Src/stm32h7xx_hal_rcc.c ****   * @brief  Returns the HCLK frequency
1445:Drivers/STM32H7xx_HAL_Driver/Src/stm32h7xx_hal_rcc.c ****   * @note   Each time HCLK changes, this function must be called to update the
1446:Drivers/STM32H7xx_HAL_Driver/Src/stm32h7xx_hal_rcc.c ****   *         right HCLK value. Otherwise, any configuration based on this function will be incorrect
1447:Drivers/STM32H7xx_HAL_Driver/Src/stm32h7xx_hal_rcc.c ****   *
ARM GAS  C:\Users\MadeuxS\AppData\Local\Temp\ccJrku7c.s 			page 96


1448:Drivers/STM32H7xx_HAL_Driver/Src/stm32h7xx_hal_rcc.c ****   * @note   The SystemD2Clock CMSIS variable is used to store System domain2 Clock Frequency
1449:Drivers/STM32H7xx_HAL_Driver/Src/stm32h7xx_hal_rcc.c ****   *         and updated within this function
1450:Drivers/STM32H7xx_HAL_Driver/Src/stm32h7xx_hal_rcc.c ****   * @retval HCLK frequency
1451:Drivers/STM32H7xx_HAL_Driver/Src/stm32h7xx_hal_rcc.c ****   */
1452:Drivers/STM32H7xx_HAL_Driver/Src/stm32h7xx_hal_rcc.c **** uint32_t HAL_RCC_GetHCLKFreq(void)
1453:Drivers/STM32H7xx_HAL_Driver/Src/stm32h7xx_hal_rcc.c **** {
 2994              		.loc 1 1453 1 is_stmt 1 view -0
 2995              		.cfi_startproc
 2996              		@ args = 0, pretend = 0, frame = 0
 2997              		@ frame_needed = 0, uses_anonymous_args = 0
1454:Drivers/STM32H7xx_HAL_Driver/Src/stm32h7xx_hal_rcc.c **** uint32_t common_system_clock;
 2998              		.loc 1 1454 1 view .LVU1028
1455:Drivers/STM32H7xx_HAL_Driver/Src/stm32h7xx_hal_rcc.c **** 
1456:Drivers/STM32H7xx_HAL_Driver/Src/stm32h7xx_hal_rcc.c **** #if defined(RCC_D1CFGR_D1CPRE)
1457:Drivers/STM32H7xx_HAL_Driver/Src/stm32h7xx_hal_rcc.c ****   common_system_clock = HAL_RCC_GetSysClockFreq() >> (D1CorePrescTable[(RCC->D1CFGR & RCC_D1CFGR_D1
 2999              		.loc 1 1457 3 view .LVU1029
 3000              	.LBB43:
 3001              	.LBI43:
1355:Drivers/STM32H7xx_HAL_Driver/Src/stm32h7xx_hal_rcc.c **** {
 3002              		.loc 1 1355 10 view .LVU1030
 3003              	.LBB44:
1357:Drivers/STM32H7xx_HAL_Driver/Src/stm32h7xx_hal_rcc.c ****   float_t fracn1, pllvco;
 3004              		.loc 1 1357 3 view .LVU1031
1358:Drivers/STM32H7xx_HAL_Driver/Src/stm32h7xx_hal_rcc.c ****   uint32_t sysclockfreq;
 3005              		.loc 1 1358 3 view .LVU1032
1359:Drivers/STM32H7xx_HAL_Driver/Src/stm32h7xx_hal_rcc.c **** 
 3006              		.loc 1 1359 3 view .LVU1033
1363:Drivers/STM32H7xx_HAL_Driver/Src/stm32h7xx_hal_rcc.c ****   {
 3007              		.loc 1 1363 3 view .LVU1034
1363:Drivers/STM32H7xx_HAL_Driver/Src/stm32h7xx_hal_rcc.c ****   {
 3008              		.loc 1 1363 14 is_stmt 0 view .LVU1035
 3009 0000 184A     		ldr	r2, .L313
 3010              	.LBE44:
 3011              	.LBE43:
1453:Drivers/STM32H7xx_HAL_Driver/Src/stm32h7xx_hal_rcc.c **** uint32_t common_system_clock;
 3012              		.loc 1 1453 1 view .LVU1036
 3013 0002 38B5     		push	{r3, r4, r5, lr}
 3014              	.LCFI20:
 3015              		.cfi_def_cfa_offset 16
 3016              		.cfi_offset 3, -16
 3017              		.cfi_offset 4, -12
 3018              		.cfi_offset 5, -8
 3019              		.cfi_offset 14, -4
 3020              	.LBB47:
 3021              	.LBB45:
1363:Drivers/STM32H7xx_HAL_Driver/Src/stm32h7xx_hal_rcc.c ****   {
 3022              		.loc 1 1363 14 view .LVU1037
 3023 0004 1369     		ldr	r3, [r2, #16]
1363:Drivers/STM32H7xx_HAL_Driver/Src/stm32h7xx_hal_rcc.c ****   {
 3024              		.loc 1 1363 21 view .LVU1038
 3025 0006 03F03803 		and	r3, r3, #56
1363:Drivers/STM32H7xx_HAL_Driver/Src/stm32h7xx_hal_rcc.c ****   {
 3026              		.loc 1 1363 3 view .LVU1039
 3027 000a 102B     		cmp	r3, #16
 3028 000c 1AD0     		beq	.L308
 3029 000e 182B     		cmp	r3, #24
 3030 0010 23D0     		beq	.L307
ARM GAS  C:\Users\MadeuxS\AppData\Local\Temp\ccJrku7c.s 			page 97


 3031 0012 CBB1     		cbz	r3, .L312
1379:Drivers/STM32H7xx_HAL_Driver/Src/stm32h7xx_hal_rcc.c ****     break;
 3032              		.loc 1 1379 18 view .LVU1040
 3033 0014 1448     		ldr	r0, .L313+4
 3034              	.L306:
 3035              	.LVL218:
1439:Drivers/STM32H7xx_HAL_Driver/Src/stm32h7xx_hal_rcc.c **** }
 3036              		.loc 1 1439 3 is_stmt 1 view .LVU1041
1439:Drivers/STM32H7xx_HAL_Driver/Src/stm32h7xx_hal_rcc.c **** }
 3037              		.loc 1 1439 3 is_stmt 0 view .LVU1042
 3038              	.LBE45:
 3039              	.LBE47:
 3040              		.loc 1 1457 76 view .LVU1043
 3041 0016 134B     		ldr	r3, .L313
 3042              		.loc 1 1457 71 view .LVU1044
 3043 0018 1449     		ldr	r1, .L313+8
 3044              		.loc 1 1457 76 view .LVU1045
 3045 001a 9A69     		ldr	r2, [r3, #24]
1458:Drivers/STM32H7xx_HAL_Driver/Src/stm32h7xx_hal_rcc.c **** #else
1459:Drivers/STM32H7xx_HAL_Driver/Src/stm32h7xx_hal_rcc.c ****   common_system_clock = HAL_RCC_GetSysClockFreq() >> (D1CorePrescTable[(RCC->CDCFGR1 & RCC_CDCFGR1_
1460:Drivers/STM32H7xx_HAL_Driver/Src/stm32h7xx_hal_rcc.c **** #endif
1461:Drivers/STM32H7xx_HAL_Driver/Src/stm32h7xx_hal_rcc.c **** 
1462:Drivers/STM32H7xx_HAL_Driver/Src/stm32h7xx_hal_rcc.c **** #if defined(RCC_D1CFGR_HPRE)
1463:Drivers/STM32H7xx_HAL_Driver/Src/stm32h7xx_hal_rcc.c ****   SystemD2Clock = (common_system_clock >> ((D1CorePrescTable[(RCC->D1CFGR & RCC_D1CFGR_HPRE)>> RCC_
 3046              		.loc 1 1463 66 view .LVU1046
 3047 001c 9B69     		ldr	r3, [r3, #24]
1457:Drivers/STM32H7xx_HAL_Driver/Src/stm32h7xx_hal_rcc.c **** #else
 3048              		.loc 1 1457 105 view .LVU1047
 3049 001e C2F30322 		ubfx	r2, r2, #8, #4
 3050              		.loc 1 1463 17 view .LVU1048
 3051 0022 134C     		ldr	r4, .L313+12
 3052              		.loc 1 1463 93 view .LVU1049
 3053 0024 03F00F03 		and	r3, r3, #15
1464:Drivers/STM32H7xx_HAL_Driver/Src/stm32h7xx_hal_rcc.c **** #else
1465:Drivers/STM32H7xx_HAL_Driver/Src/stm32h7xx_hal_rcc.c ****   SystemD2Clock = (common_system_clock >> ((D1CorePrescTable[(RCC->CDCFGR1 & RCC_CDCFGR1_HPRE)>> RC
1466:Drivers/STM32H7xx_HAL_Driver/Src/stm32h7xx_hal_rcc.c **** #endif
1467:Drivers/STM32H7xx_HAL_Driver/Src/stm32h7xx_hal_rcc.c **** 
1468:Drivers/STM32H7xx_HAL_Driver/Src/stm32h7xx_hal_rcc.c **** #if defined(DUAL_CORE) && defined(CORE_CM4)
1469:Drivers/STM32H7xx_HAL_Driver/Src/stm32h7xx_hal_rcc.c ****   SystemCoreClock = SystemD2Clock;
1470:Drivers/STM32H7xx_HAL_Driver/Src/stm32h7xx_hal_rcc.c **** #else
1471:Drivers/STM32H7xx_HAL_Driver/Src/stm32h7xx_hal_rcc.c ****   SystemCoreClock = common_system_clock;
 3054              		.loc 1 1471 19 view .LVU1050
 3055 0028 124D     		ldr	r5, .L313+16
1457:Drivers/STM32H7xx_HAL_Driver/Src/stm32h7xx_hal_rcc.c **** #else
 3056              		.loc 1 1457 131 view .LVU1051
 3057 002a 8A5C     		ldrb	r2, [r1, r2]	@ zero_extendqisi2
1463:Drivers/STM32H7xx_HAL_Driver/Src/stm32h7xx_hal_rcc.c **** #else
 3058              		.loc 1 1463 118 view .LVU1052
 3059 002c CB5C     		ldrb	r3, [r1, r3]	@ zero_extendqisi2
1457:Drivers/STM32H7xx_HAL_Driver/Src/stm32h7xx_hal_rcc.c **** #else
 3060              		.loc 1 1457 131 view .LVU1053
 3061 002e 02F01F02 		and	r2, r2, #31
1457:Drivers/STM32H7xx_HAL_Driver/Src/stm32h7xx_hal_rcc.c **** #else
 3062              		.loc 1 1457 23 view .LVU1054
 3063 0032 20FA02F2 		lsr	r2, r0, r2
 3064              	.LVL219:
1463:Drivers/STM32H7xx_HAL_Driver/Src/stm32h7xx_hal_rcc.c **** #else
ARM GAS  C:\Users\MadeuxS\AppData\Local\Temp\ccJrku7c.s 			page 98


 3065              		.loc 1 1463 3 is_stmt 1 view .LVU1055
1463:Drivers/STM32H7xx_HAL_Driver/Src/stm32h7xx_hal_rcc.c **** #else
 3066              		.loc 1 1463 118 is_stmt 0 view .LVU1056
 3067 0036 03F01F00 		and	r0, r3, #31
1463:Drivers/STM32H7xx_HAL_Driver/Src/stm32h7xx_hal_rcc.c **** #else
 3068              		.loc 1 1463 40 view .LVU1057
 3069 003a 22FA00F0 		lsr	r0, r2, r0
 3070              		.loc 1 1471 19 view .LVU1058
 3071 003e 2A60     		str	r2, [r5]
1463:Drivers/STM32H7xx_HAL_Driver/Src/stm32h7xx_hal_rcc.c **** #else
 3072              		.loc 1 1463 17 view .LVU1059
 3073 0040 2060     		str	r0, [r4]
 3074              		.loc 1 1471 3 is_stmt 1 view .LVU1060
1472:Drivers/STM32H7xx_HAL_Driver/Src/stm32h7xx_hal_rcc.c **** #endif /* DUAL_CORE && CORE_CM4 */
1473:Drivers/STM32H7xx_HAL_Driver/Src/stm32h7xx_hal_rcc.c **** 
1474:Drivers/STM32H7xx_HAL_Driver/Src/stm32h7xx_hal_rcc.c ****   return SystemD2Clock;
 3075              		.loc 1 1474 3 view .LVU1061
1475:Drivers/STM32H7xx_HAL_Driver/Src/stm32h7xx_hal_rcc.c **** }
 3076              		.loc 1 1475 1 is_stmt 0 view .LVU1062
 3077 0042 38BD     		pop	{r3, r4, r5, pc}
 3078              	.LVL220:
 3079              	.L308:
 3080              	.LBB48:
 3081              	.LBB46:
1363:Drivers/STM32H7xx_HAL_Driver/Src/stm32h7xx_hal_rcc.c ****   {
 3082              		.loc 1 1363 3 view .LVU1063
 3083 0044 0C48     		ldr	r0, .L313+20
 3084 0046 E6E7     		b	.L306
 3085              	.L312:
1367:Drivers/STM32H7xx_HAL_Driver/Src/stm32h7xx_hal_rcc.c ****       {
 3086              		.loc 1 1367 4 is_stmt 1 view .LVU1064
1367:Drivers/STM32H7xx_HAL_Driver/Src/stm32h7xx_hal_rcc.c ****       {
 3087              		.loc 1 1367 8 is_stmt 0 view .LVU1065
 3088 0048 1368     		ldr	r3, [r2]
1367:Drivers/STM32H7xx_HAL_Driver/Src/stm32h7xx_hal_rcc.c ****       {
 3089              		.loc 1 1367 7 view .LVU1066
 3090 004a 9B06     		lsls	r3, r3, #26
 3091 004c 08D5     		bpl	.L310
1369:Drivers/STM32H7xx_HAL_Driver/Src/stm32h7xx_hal_rcc.c ****       }
 3092              		.loc 1 1369 9 is_stmt 1 view .LVU1067
1369:Drivers/STM32H7xx_HAL_Driver/Src/stm32h7xx_hal_rcc.c ****       }
 3093              		.loc 1 1369 50 is_stmt 0 view .LVU1068
 3094 004e 1268     		ldr	r2, [r2]
1369:Drivers/STM32H7xx_HAL_Driver/Src/stm32h7xx_hal_rcc.c ****       }
 3095              		.loc 1 1369 22 view .LVU1069
 3096 0050 0A48     		ldr	r0, .L313+24
1369:Drivers/STM32H7xx_HAL_Driver/Src/stm32h7xx_hal_rcc.c ****       }
 3097              		.loc 1 1369 77 view .LVU1070
 3098 0052 C2F3C102 		ubfx	r2, r2, #3, #2
1369:Drivers/STM32H7xx_HAL_Driver/Src/stm32h7xx_hal_rcc.c ****       }
 3099              		.loc 1 1369 22 view .LVU1071
 3100 0056 D040     		lsrs	r0, r0, r2
 3101              	.LVL221:
1369:Drivers/STM32H7xx_HAL_Driver/Src/stm32h7xx_hal_rcc.c ****       }
 3102              		.loc 1 1369 22 view .LVU1072
 3103 0058 DDE7     		b	.L306
 3104              	.LVL222:
ARM GAS  C:\Users\MadeuxS\AppData\Local\Temp\ccJrku7c.s 			page 99


 3105              	.L307:
1369:Drivers/STM32H7xx_HAL_Driver/Src/stm32h7xx_hal_rcc.c ****       }
 3106              		.loc 1 1369 22 view .LVU1073
 3107 005a FFF7FEFF 		bl	HAL_RCC_GetSysClockFreq.part.0
 3108              	.LVL223:
 3109 005e DAE7     		b	.L306
 3110              	.L310:
1373:Drivers/STM32H7xx_HAL_Driver/Src/stm32h7xx_hal_rcc.c ****       }
 3111              		.loc 1 1373 22 view .LVU1074
 3112 0060 0648     		ldr	r0, .L313+24
 3113 0062 D8E7     		b	.L306
 3114              	.L314:
 3115              		.align	2
 3116              	.L313:
 3117 0064 00440258 		.word	1476543488
 3118 0068 00093D00 		.word	4000000
 3119 006c 00000000 		.word	D1CorePrescTable
 3120 0070 00000000 		.word	SystemD2Clock
 3121 0074 00000000 		.word	SystemCoreClock
 3122 0078 40787D01 		.word	25000000
 3123 007c 0090D003 		.word	64000000
 3124              	.LBE46:
 3125              	.LBE48:
 3126              		.cfi_endproc
 3127              	.LFE151:
 3129              		.section	.text.HAL_RCC_GetPCLK1Freq,"ax",%progbits
 3130              		.align	1
 3131              		.p2align 2,,3
 3132              		.global	HAL_RCC_GetPCLK1Freq
 3133              		.syntax unified
 3134              		.thumb
 3135              		.thumb_func
 3136              		.fpu fpv5-d16
 3138              	HAL_RCC_GetPCLK1Freq:
 3139              	.LFB152:
1476:Drivers/STM32H7xx_HAL_Driver/Src/stm32h7xx_hal_rcc.c **** 
1477:Drivers/STM32H7xx_HAL_Driver/Src/stm32h7xx_hal_rcc.c **** 
1478:Drivers/STM32H7xx_HAL_Driver/Src/stm32h7xx_hal_rcc.c **** /**
1479:Drivers/STM32H7xx_HAL_Driver/Src/stm32h7xx_hal_rcc.c ****   * @brief  Returns the PCLK1 frequency
1480:Drivers/STM32H7xx_HAL_Driver/Src/stm32h7xx_hal_rcc.c ****   * @note   Each time PCLK1 changes, this function must be called to update the
1481:Drivers/STM32H7xx_HAL_Driver/Src/stm32h7xx_hal_rcc.c ****   *         right PCLK1 value. Otherwise, any configuration based on this function will be incorrec
1482:Drivers/STM32H7xx_HAL_Driver/Src/stm32h7xx_hal_rcc.c ****   * @retval PCLK1 frequency
1483:Drivers/STM32H7xx_HAL_Driver/Src/stm32h7xx_hal_rcc.c ****   */
1484:Drivers/STM32H7xx_HAL_Driver/Src/stm32h7xx_hal_rcc.c **** uint32_t HAL_RCC_GetPCLK1Freq(void)
1485:Drivers/STM32H7xx_HAL_Driver/Src/stm32h7xx_hal_rcc.c **** {
 3140              		.loc 1 1485 1 is_stmt 1 view -0
 3141              		.cfi_startproc
 3142              		@ args = 0, pretend = 0, frame = 0
 3143              		@ frame_needed = 0, uses_anonymous_args = 0
1486:Drivers/STM32H7xx_HAL_Driver/Src/stm32h7xx_hal_rcc.c **** #if defined (RCC_D2CFGR_D2PPRE1)
1487:Drivers/STM32H7xx_HAL_Driver/Src/stm32h7xx_hal_rcc.c ****   /* Get HCLK source and Compute PCLK1 frequency ---------------------------*/
1488:Drivers/STM32H7xx_HAL_Driver/Src/stm32h7xx_hal_rcc.c ****   return (HAL_RCC_GetHCLKFreq() >> ((D1CorePrescTable[(RCC->D2CFGR & RCC_D2CFGR_D2PPRE1)>> RCC_D2CF
 3144              		.loc 1 1488 3 view .LVU1076
 3145              	.LBB53:
 3146              	.LBI53:
1452:Drivers/STM32H7xx_HAL_Driver/Src/stm32h7xx_hal_rcc.c **** {
 3147              		.loc 1 1452 10 view .LVU1077
ARM GAS  C:\Users\MadeuxS\AppData\Local\Temp\ccJrku7c.s 			page 100


 3148              	.LBB54:
1454:Drivers/STM32H7xx_HAL_Driver/Src/stm32h7xx_hal_rcc.c **** 
 3149              		.loc 1 1454 1 view .LVU1078
1457:Drivers/STM32H7xx_HAL_Driver/Src/stm32h7xx_hal_rcc.c **** #else
 3150              		.loc 1 1457 3 view .LVU1079
 3151              	.LBB55:
 3152              	.LBI55:
1355:Drivers/STM32H7xx_HAL_Driver/Src/stm32h7xx_hal_rcc.c **** {
 3153              		.loc 1 1355 10 view .LVU1080
 3154              	.LBB56:
1357:Drivers/STM32H7xx_HAL_Driver/Src/stm32h7xx_hal_rcc.c ****   float_t fracn1, pllvco;
 3155              		.loc 1 1357 3 view .LVU1081
1358:Drivers/STM32H7xx_HAL_Driver/Src/stm32h7xx_hal_rcc.c ****   uint32_t sysclockfreq;
 3156              		.loc 1 1358 3 view .LVU1082
1359:Drivers/STM32H7xx_HAL_Driver/Src/stm32h7xx_hal_rcc.c **** 
 3157              		.loc 1 1359 3 view .LVU1083
1363:Drivers/STM32H7xx_HAL_Driver/Src/stm32h7xx_hal_rcc.c ****   {
 3158              		.loc 1 1363 3 view .LVU1084
1363:Drivers/STM32H7xx_HAL_Driver/Src/stm32h7xx_hal_rcc.c ****   {
 3159              		.loc 1 1363 14 is_stmt 0 view .LVU1085
 3160 0000 1C4A     		ldr	r2, .L323
 3161              	.LBE56:
 3162              	.LBE55:
 3163              	.LBE54:
 3164              	.LBE53:
1485:Drivers/STM32H7xx_HAL_Driver/Src/stm32h7xx_hal_rcc.c **** #if defined (RCC_D2CFGR_D2PPRE1)
 3165              		.loc 1 1485 1 view .LVU1086
 3166 0002 38B5     		push	{r3, r4, r5, lr}
 3167              	.LCFI21:
 3168              		.cfi_def_cfa_offset 16
 3169              		.cfi_offset 3, -16
 3170              		.cfi_offset 4, -12
 3171              		.cfi_offset 5, -8
 3172              		.cfi_offset 14, -4
 3173              	.LBB63:
 3174              	.LBB61:
 3175              	.LBB59:
 3176              	.LBB57:
1363:Drivers/STM32H7xx_HAL_Driver/Src/stm32h7xx_hal_rcc.c ****   {
 3177              		.loc 1 1363 14 view .LVU1087
 3178 0004 1369     		ldr	r3, [r2, #16]
1363:Drivers/STM32H7xx_HAL_Driver/Src/stm32h7xx_hal_rcc.c ****   {
 3179              		.loc 1 1363 21 view .LVU1088
 3180 0006 03F03803 		and	r3, r3, #56
1363:Drivers/STM32H7xx_HAL_Driver/Src/stm32h7xx_hal_rcc.c ****   {
 3181              		.loc 1 1363 3 view .LVU1089
 3182 000a 102B     		cmp	r3, #16
 3183 000c 21D0     		beq	.L318
 3184 000e 182B     		cmp	r3, #24
 3185 0010 2BD0     		beq	.L317
 3186 0012 03B3     		cbz	r3, .L322
1379:Drivers/STM32H7xx_HAL_Driver/Src/stm32h7xx_hal_rcc.c ****     break;
 3187              		.loc 1 1379 18 view .LVU1090
 3188 0014 1848     		ldr	r0, .L323+4
 3189              	.L316:
 3190              	.LVL224:
1439:Drivers/STM32H7xx_HAL_Driver/Src/stm32h7xx_hal_rcc.c **** }
ARM GAS  C:\Users\MadeuxS\AppData\Local\Temp\ccJrku7c.s 			page 101


 3191              		.loc 1 1439 3 is_stmt 1 view .LVU1091
1439:Drivers/STM32H7xx_HAL_Driver/Src/stm32h7xx_hal_rcc.c **** }
 3192              		.loc 1 1439 3 is_stmt 0 view .LVU1092
 3193              	.LBE57:
 3194              	.LBE59:
1457:Drivers/STM32H7xx_HAL_Driver/Src/stm32h7xx_hal_rcc.c **** #else
 3195              		.loc 1 1457 76 view .LVU1093
 3196 0016 174A     		ldr	r2, .L323
1457:Drivers/STM32H7xx_HAL_Driver/Src/stm32h7xx_hal_rcc.c **** #else
 3197              		.loc 1 1457 71 view .LVU1094
 3198 0018 1849     		ldr	r1, .L323+8
1457:Drivers/STM32H7xx_HAL_Driver/Src/stm32h7xx_hal_rcc.c **** #else
 3199              		.loc 1 1457 76 view .LVU1095
 3200 001a 9369     		ldr	r3, [r2, #24]
1471:Drivers/STM32H7xx_HAL_Driver/Src/stm32h7xx_hal_rcc.c **** #endif /* DUAL_CORE && CORE_CM4 */
 3201              		.loc 1 1471 19 view .LVU1096
 3202 001c 184D     		ldr	r5, .L323+12
1457:Drivers/STM32H7xx_HAL_Driver/Src/stm32h7xx_hal_rcc.c **** #else
 3203              		.loc 1 1457 105 view .LVU1097
 3204 001e C3F30323 		ubfx	r3, r3, #8, #4
1463:Drivers/STM32H7xx_HAL_Driver/Src/stm32h7xx_hal_rcc.c **** #else
 3205              		.loc 1 1463 17 view .LVU1098
 3206 0022 184C     		ldr	r4, .L323+16
1457:Drivers/STM32H7xx_HAL_Driver/Src/stm32h7xx_hal_rcc.c **** #else
 3207              		.loc 1 1457 131 view .LVU1099
 3208 0024 CB5C     		ldrb	r3, [r1, r3]	@ zero_extendqisi2
 3209 0026 03F01F03 		and	r3, r3, #31
1457:Drivers/STM32H7xx_HAL_Driver/Src/stm32h7xx_hal_rcc.c **** #else
 3210              		.loc 1 1457 23 view .LVU1100
 3211 002a 20FA03F3 		lsr	r3, r0, r3
 3212              	.LVL225:
1463:Drivers/STM32H7xx_HAL_Driver/Src/stm32h7xx_hal_rcc.c **** #else
 3213              		.loc 1 1463 3 is_stmt 1 view .LVU1101
1463:Drivers/STM32H7xx_HAL_Driver/Src/stm32h7xx_hal_rcc.c **** #else
 3214              		.loc 1 1463 66 is_stmt 0 view .LVU1102
 3215 002e 9069     		ldr	r0, [r2, #24]
1463:Drivers/STM32H7xx_HAL_Driver/Src/stm32h7xx_hal_rcc.c **** #else
 3216              		.loc 1 1463 93 view .LVU1103
 3217 0030 00F00F00 		and	r0, r0, #15
1471:Drivers/STM32H7xx_HAL_Driver/Src/stm32h7xx_hal_rcc.c **** #endif /* DUAL_CORE && CORE_CM4 */
 3218              		.loc 1 1471 19 view .LVU1104
 3219 0034 2B60     		str	r3, [r5]
1463:Drivers/STM32H7xx_HAL_Driver/Src/stm32h7xx_hal_rcc.c **** #else
 3220              		.loc 1 1463 118 view .LVU1105
 3221 0036 085C     		ldrb	r0, [r1, r0]	@ zero_extendqisi2
 3222 0038 00F01F00 		and	r0, r0, #31
1463:Drivers/STM32H7xx_HAL_Driver/Src/stm32h7xx_hal_rcc.c **** #else
 3223              		.loc 1 1463 40 view .LVU1106
 3224 003c C340     		lsrs	r3, r3, r0
 3225              	.LVL226:
1463:Drivers/STM32H7xx_HAL_Driver/Src/stm32h7xx_hal_rcc.c **** #else
 3226              		.loc 1 1463 17 view .LVU1107
 3227 003e 2360     		str	r3, [r4]
1471:Drivers/STM32H7xx_HAL_Driver/Src/stm32h7xx_hal_rcc.c **** #endif /* DUAL_CORE && CORE_CM4 */
 3228              		.loc 1 1471 3 is_stmt 1 view .LVU1108
1474:Drivers/STM32H7xx_HAL_Driver/Src/stm32h7xx_hal_rcc.c **** }
 3229              		.loc 1 1474 3 view .LVU1109
ARM GAS  C:\Users\MadeuxS\AppData\Local\Temp\ccJrku7c.s 			page 102


 3230              	.LVL227:
1474:Drivers/STM32H7xx_HAL_Driver/Src/stm32h7xx_hal_rcc.c **** }
 3231              		.loc 1 1474 3 is_stmt 0 view .LVU1110
 3232              	.LBE61:
 3233              	.LBE63:
 3234              		.loc 1 1488 59 view .LVU1111
 3235 0040 D269     		ldr	r2, [r2, #28]
 3236              		.loc 1 1488 89 view .LVU1112
 3237 0042 C2F30212 		ubfx	r2, r2, #4, #3
 3238              		.loc 1 1488 117 view .LVU1113
 3239 0046 885C     		ldrb	r0, [r1, r2]	@ zero_extendqisi2
 3240 0048 00F01F00 		and	r0, r0, #31
1489:Drivers/STM32H7xx_HAL_Driver/Src/stm32h7xx_hal_rcc.c **** #else
1490:Drivers/STM32H7xx_HAL_Driver/Src/stm32h7xx_hal_rcc.c ****  /* Get HCLK source and Compute PCLK1 frequency ---------------------------*/
1491:Drivers/STM32H7xx_HAL_Driver/Src/stm32h7xx_hal_rcc.c ****   return (HAL_RCC_GetHCLKFreq() >> ((D1CorePrescTable[(RCC->CDCFGR2 & RCC_CDCFGR2_CDPPRE1)>> RCC_CD
1492:Drivers/STM32H7xx_HAL_Driver/Src/stm32h7xx_hal_rcc.c **** #endif
1493:Drivers/STM32H7xx_HAL_Driver/Src/stm32h7xx_hal_rcc.c **** }
 3241              		.loc 1 1493 1 view .LVU1114
 3242 004c 23FA00F0 		lsr	r0, r3, r0
 3243 0050 38BD     		pop	{r3, r4, r5, pc}
 3244              	.L318:
 3245              	.LBB64:
 3246              	.LBB62:
 3247              	.LBB60:
 3248              	.LBB58:
1363:Drivers/STM32H7xx_HAL_Driver/Src/stm32h7xx_hal_rcc.c ****   {
 3249              		.loc 1 1363 3 view .LVU1115
 3250 0052 0D48     		ldr	r0, .L323+20
 3251 0054 DFE7     		b	.L316
 3252              	.L322:
1367:Drivers/STM32H7xx_HAL_Driver/Src/stm32h7xx_hal_rcc.c ****       {
 3253              		.loc 1 1367 4 is_stmt 1 view .LVU1116
1367:Drivers/STM32H7xx_HAL_Driver/Src/stm32h7xx_hal_rcc.c ****       {
 3254              		.loc 1 1367 8 is_stmt 0 view .LVU1117
 3255 0056 1368     		ldr	r3, [r2]
1367:Drivers/STM32H7xx_HAL_Driver/Src/stm32h7xx_hal_rcc.c ****       {
 3256              		.loc 1 1367 7 view .LVU1118
 3257 0058 9B06     		lsls	r3, r3, #26
 3258 005a 09D5     		bpl	.L320
1369:Drivers/STM32H7xx_HAL_Driver/Src/stm32h7xx_hal_rcc.c ****       }
 3259              		.loc 1 1369 9 is_stmt 1 view .LVU1119
1369:Drivers/STM32H7xx_HAL_Driver/Src/stm32h7xx_hal_rcc.c ****       }
 3260              		.loc 1 1369 50 is_stmt 0 view .LVU1120
 3261 005c 1068     		ldr	r0, [r2]
1369:Drivers/STM32H7xx_HAL_Driver/Src/stm32h7xx_hal_rcc.c ****       }
 3262              		.loc 1 1369 22 view .LVU1121
 3263 005e 0B4B     		ldr	r3, .L323+24
1369:Drivers/STM32H7xx_HAL_Driver/Src/stm32h7xx_hal_rcc.c ****       }
 3264              		.loc 1 1369 77 view .LVU1122
 3265 0060 C0F3C100 		ubfx	r0, r0, #3, #2
1369:Drivers/STM32H7xx_HAL_Driver/Src/stm32h7xx_hal_rcc.c ****       }
 3266              		.loc 1 1369 22 view .LVU1123
 3267 0064 23FA00F0 		lsr	r0, r3, r0
 3268              	.LVL228:
1369:Drivers/STM32H7xx_HAL_Driver/Src/stm32h7xx_hal_rcc.c ****       }
 3269              		.loc 1 1369 22 view .LVU1124
 3270 0068 D5E7     		b	.L316
ARM GAS  C:\Users\MadeuxS\AppData\Local\Temp\ccJrku7c.s 			page 103


 3271              	.LVL229:
 3272              	.L317:
1369:Drivers/STM32H7xx_HAL_Driver/Src/stm32h7xx_hal_rcc.c ****       }
 3273              		.loc 1 1369 22 view .LVU1125
 3274 006a FFF7FEFF 		bl	HAL_RCC_GetSysClockFreq.part.0
 3275              	.LVL230:
 3276 006e D2E7     		b	.L316
 3277              	.L320:
1373:Drivers/STM32H7xx_HAL_Driver/Src/stm32h7xx_hal_rcc.c ****       }
 3278              		.loc 1 1373 22 view .LVU1126
 3279 0070 0648     		ldr	r0, .L323+24
 3280 0072 D0E7     		b	.L316
 3281              	.L324:
 3282              		.align	2
 3283              	.L323:
 3284 0074 00440258 		.word	1476543488
 3285 0078 00093D00 		.word	4000000
 3286 007c 00000000 		.word	D1CorePrescTable
 3287 0080 00000000 		.word	SystemCoreClock
 3288 0084 00000000 		.word	SystemD2Clock
 3289 0088 40787D01 		.word	25000000
 3290 008c 0090D003 		.word	64000000
 3291              	.LBE58:
 3292              	.LBE60:
 3293              	.LBE62:
 3294              	.LBE64:
 3295              		.cfi_endproc
 3296              	.LFE152:
 3298              		.section	.text.HAL_RCC_GetPCLK2Freq,"ax",%progbits
 3299              		.align	1
 3300              		.p2align 2,,3
 3301              		.global	HAL_RCC_GetPCLK2Freq
 3302              		.syntax unified
 3303              		.thumb
 3304              		.thumb_func
 3305              		.fpu fpv5-d16
 3307              	HAL_RCC_GetPCLK2Freq:
 3308              	.LFB153:
1494:Drivers/STM32H7xx_HAL_Driver/Src/stm32h7xx_hal_rcc.c **** 
1495:Drivers/STM32H7xx_HAL_Driver/Src/stm32h7xx_hal_rcc.c **** 
1496:Drivers/STM32H7xx_HAL_Driver/Src/stm32h7xx_hal_rcc.c **** /**
1497:Drivers/STM32H7xx_HAL_Driver/Src/stm32h7xx_hal_rcc.c ****   * @brief  Returns the PCLK2 frequency
1498:Drivers/STM32H7xx_HAL_Driver/Src/stm32h7xx_hal_rcc.c ****   * @note   Each time PCLK2 changes, this function must be called to update the
1499:Drivers/STM32H7xx_HAL_Driver/Src/stm32h7xx_hal_rcc.c ****   *         right PCLK2 value. Otherwise, any configuration based on this function will be incorrec
1500:Drivers/STM32H7xx_HAL_Driver/Src/stm32h7xx_hal_rcc.c ****   * @retval PCLK1 frequency
1501:Drivers/STM32H7xx_HAL_Driver/Src/stm32h7xx_hal_rcc.c ****   */
1502:Drivers/STM32H7xx_HAL_Driver/Src/stm32h7xx_hal_rcc.c **** uint32_t HAL_RCC_GetPCLK2Freq(void)
1503:Drivers/STM32H7xx_HAL_Driver/Src/stm32h7xx_hal_rcc.c **** {
 3309              		.loc 1 1503 1 is_stmt 1 view -0
 3310              		.cfi_startproc
 3311              		@ args = 0, pretend = 0, frame = 0
 3312              		@ frame_needed = 0, uses_anonymous_args = 0
1504:Drivers/STM32H7xx_HAL_Driver/Src/stm32h7xx_hal_rcc.c ****   /* Get HCLK source and Compute PCLK1 frequency ---------------------------*/
1505:Drivers/STM32H7xx_HAL_Driver/Src/stm32h7xx_hal_rcc.c **** #if defined(RCC_D2CFGR_D2PPRE2)
1506:Drivers/STM32H7xx_HAL_Driver/Src/stm32h7xx_hal_rcc.c ****   return (HAL_RCC_GetHCLKFreq() >> ((D1CorePrescTable[(RCC->D2CFGR & RCC_D2CFGR_D2PPRE2)>> RCC_D2CF
 3313              		.loc 1 1506 3 view .LVU1128
 3314              	.LBB69:
ARM GAS  C:\Users\MadeuxS\AppData\Local\Temp\ccJrku7c.s 			page 104


 3315              	.LBI69:
1452:Drivers/STM32H7xx_HAL_Driver/Src/stm32h7xx_hal_rcc.c **** {
 3316              		.loc 1 1452 10 view .LVU1129
 3317              	.LBB70:
1454:Drivers/STM32H7xx_HAL_Driver/Src/stm32h7xx_hal_rcc.c **** 
 3318              		.loc 1 1454 1 view .LVU1130
1457:Drivers/STM32H7xx_HAL_Driver/Src/stm32h7xx_hal_rcc.c **** #else
 3319              		.loc 1 1457 3 view .LVU1131
 3320              	.LBB71:
 3321              	.LBI71:
1355:Drivers/STM32H7xx_HAL_Driver/Src/stm32h7xx_hal_rcc.c **** {
 3322              		.loc 1 1355 10 view .LVU1132
 3323              	.LBB72:
1357:Drivers/STM32H7xx_HAL_Driver/Src/stm32h7xx_hal_rcc.c ****   float_t fracn1, pllvco;
 3324              		.loc 1 1357 3 view .LVU1133
1358:Drivers/STM32H7xx_HAL_Driver/Src/stm32h7xx_hal_rcc.c ****   uint32_t sysclockfreq;
 3325              		.loc 1 1358 3 view .LVU1134
1359:Drivers/STM32H7xx_HAL_Driver/Src/stm32h7xx_hal_rcc.c **** 
 3326              		.loc 1 1359 3 view .LVU1135
1363:Drivers/STM32H7xx_HAL_Driver/Src/stm32h7xx_hal_rcc.c ****   {
 3327              		.loc 1 1363 3 view .LVU1136
1363:Drivers/STM32H7xx_HAL_Driver/Src/stm32h7xx_hal_rcc.c ****   {
 3328              		.loc 1 1363 14 is_stmt 0 view .LVU1137
 3329 0000 1C4A     		ldr	r2, .L333
 3330              	.LBE72:
 3331              	.LBE71:
 3332              	.LBE70:
 3333              	.LBE69:
1503:Drivers/STM32H7xx_HAL_Driver/Src/stm32h7xx_hal_rcc.c ****   /* Get HCLK source and Compute PCLK1 frequency ---------------------------*/
 3334              		.loc 1 1503 1 view .LVU1138
 3335 0002 38B5     		push	{r3, r4, r5, lr}
 3336              	.LCFI22:
 3337              		.cfi_def_cfa_offset 16
 3338              		.cfi_offset 3, -16
 3339              		.cfi_offset 4, -12
 3340              		.cfi_offset 5, -8
 3341              		.cfi_offset 14, -4
 3342              	.LBB79:
 3343              	.LBB77:
 3344              	.LBB75:
 3345              	.LBB73:
1363:Drivers/STM32H7xx_HAL_Driver/Src/stm32h7xx_hal_rcc.c ****   {
 3346              		.loc 1 1363 14 view .LVU1139
 3347 0004 1369     		ldr	r3, [r2, #16]
1363:Drivers/STM32H7xx_HAL_Driver/Src/stm32h7xx_hal_rcc.c ****   {
 3348              		.loc 1 1363 21 view .LVU1140
 3349 0006 03F03803 		and	r3, r3, #56
1363:Drivers/STM32H7xx_HAL_Driver/Src/stm32h7xx_hal_rcc.c ****   {
 3350              		.loc 1 1363 3 view .LVU1141
 3351 000a 102B     		cmp	r3, #16
 3352 000c 21D0     		beq	.L328
 3353 000e 182B     		cmp	r3, #24
 3354 0010 2BD0     		beq	.L327
 3355 0012 03B3     		cbz	r3, .L332
1379:Drivers/STM32H7xx_HAL_Driver/Src/stm32h7xx_hal_rcc.c ****     break;
 3356              		.loc 1 1379 18 view .LVU1142
 3357 0014 1848     		ldr	r0, .L333+4
ARM GAS  C:\Users\MadeuxS\AppData\Local\Temp\ccJrku7c.s 			page 105


 3358              	.L326:
 3359              	.LVL231:
1439:Drivers/STM32H7xx_HAL_Driver/Src/stm32h7xx_hal_rcc.c **** }
 3360              		.loc 1 1439 3 is_stmt 1 view .LVU1143
1439:Drivers/STM32H7xx_HAL_Driver/Src/stm32h7xx_hal_rcc.c **** }
 3361              		.loc 1 1439 3 is_stmt 0 view .LVU1144
 3362              	.LBE73:
 3363              	.LBE75:
1457:Drivers/STM32H7xx_HAL_Driver/Src/stm32h7xx_hal_rcc.c **** #else
 3364              		.loc 1 1457 76 view .LVU1145
 3365 0016 174A     		ldr	r2, .L333
1457:Drivers/STM32H7xx_HAL_Driver/Src/stm32h7xx_hal_rcc.c **** #else
 3366              		.loc 1 1457 71 view .LVU1146
 3367 0018 1849     		ldr	r1, .L333+8
1457:Drivers/STM32H7xx_HAL_Driver/Src/stm32h7xx_hal_rcc.c **** #else
 3368              		.loc 1 1457 76 view .LVU1147
 3369 001a 9369     		ldr	r3, [r2, #24]
1471:Drivers/STM32H7xx_HAL_Driver/Src/stm32h7xx_hal_rcc.c **** #endif /* DUAL_CORE && CORE_CM4 */
 3370              		.loc 1 1471 19 view .LVU1148
 3371 001c 184D     		ldr	r5, .L333+12
1457:Drivers/STM32H7xx_HAL_Driver/Src/stm32h7xx_hal_rcc.c **** #else
 3372              		.loc 1 1457 105 view .LVU1149
 3373 001e C3F30323 		ubfx	r3, r3, #8, #4
1463:Drivers/STM32H7xx_HAL_Driver/Src/stm32h7xx_hal_rcc.c **** #else
 3374              		.loc 1 1463 17 view .LVU1150
 3375 0022 184C     		ldr	r4, .L333+16
1457:Drivers/STM32H7xx_HAL_Driver/Src/stm32h7xx_hal_rcc.c **** #else
 3376              		.loc 1 1457 131 view .LVU1151
 3377 0024 CB5C     		ldrb	r3, [r1, r3]	@ zero_extendqisi2
 3378 0026 03F01F03 		and	r3, r3, #31
1457:Drivers/STM32H7xx_HAL_Driver/Src/stm32h7xx_hal_rcc.c **** #else
 3379              		.loc 1 1457 23 view .LVU1152
 3380 002a 20FA03F3 		lsr	r3, r0, r3
 3381              	.LVL232:
1463:Drivers/STM32H7xx_HAL_Driver/Src/stm32h7xx_hal_rcc.c **** #else
 3382              		.loc 1 1463 3 is_stmt 1 view .LVU1153
1463:Drivers/STM32H7xx_HAL_Driver/Src/stm32h7xx_hal_rcc.c **** #else
 3383              		.loc 1 1463 66 is_stmt 0 view .LVU1154
 3384 002e 9069     		ldr	r0, [r2, #24]
1463:Drivers/STM32H7xx_HAL_Driver/Src/stm32h7xx_hal_rcc.c **** #else
 3385              		.loc 1 1463 93 view .LVU1155
 3386 0030 00F00F00 		and	r0, r0, #15
1471:Drivers/STM32H7xx_HAL_Driver/Src/stm32h7xx_hal_rcc.c **** #endif /* DUAL_CORE && CORE_CM4 */
 3387              		.loc 1 1471 19 view .LVU1156
 3388 0034 2B60     		str	r3, [r5]
1463:Drivers/STM32H7xx_HAL_Driver/Src/stm32h7xx_hal_rcc.c **** #else
 3389              		.loc 1 1463 118 view .LVU1157
 3390 0036 085C     		ldrb	r0, [r1, r0]	@ zero_extendqisi2
 3391 0038 00F01F00 		and	r0, r0, #31
1463:Drivers/STM32H7xx_HAL_Driver/Src/stm32h7xx_hal_rcc.c **** #else
 3392              		.loc 1 1463 40 view .LVU1158
 3393 003c C340     		lsrs	r3, r3, r0
 3394              	.LVL233:
1463:Drivers/STM32H7xx_HAL_Driver/Src/stm32h7xx_hal_rcc.c **** #else
 3395              		.loc 1 1463 17 view .LVU1159
 3396 003e 2360     		str	r3, [r4]
1471:Drivers/STM32H7xx_HAL_Driver/Src/stm32h7xx_hal_rcc.c **** #endif /* DUAL_CORE && CORE_CM4 */
ARM GAS  C:\Users\MadeuxS\AppData\Local\Temp\ccJrku7c.s 			page 106


 3397              		.loc 1 1471 3 is_stmt 1 view .LVU1160
1474:Drivers/STM32H7xx_HAL_Driver/Src/stm32h7xx_hal_rcc.c **** }
 3398              		.loc 1 1474 3 view .LVU1161
 3399              	.LVL234:
1474:Drivers/STM32H7xx_HAL_Driver/Src/stm32h7xx_hal_rcc.c **** }
 3400              		.loc 1 1474 3 is_stmt 0 view .LVU1162
 3401              	.LBE77:
 3402              	.LBE79:
 3403              		.loc 1 1506 59 view .LVU1163
 3404 0040 D269     		ldr	r2, [r2, #28]
 3405              		.loc 1 1506 89 view .LVU1164
 3406 0042 C2F30222 		ubfx	r2, r2, #8, #3
 3407              		.loc 1 1506 117 view .LVU1165
 3408 0046 885C     		ldrb	r0, [r1, r2]	@ zero_extendqisi2
 3409 0048 00F01F00 		and	r0, r0, #31
1507:Drivers/STM32H7xx_HAL_Driver/Src/stm32h7xx_hal_rcc.c **** #else
1508:Drivers/STM32H7xx_HAL_Driver/Src/stm32h7xx_hal_rcc.c ****   return (HAL_RCC_GetHCLKFreq() >> ((D1CorePrescTable[(RCC->CDCFGR2 & RCC_CDCFGR2_CDPPRE2)>> RCC_CD
1509:Drivers/STM32H7xx_HAL_Driver/Src/stm32h7xx_hal_rcc.c **** #endif
1510:Drivers/STM32H7xx_HAL_Driver/Src/stm32h7xx_hal_rcc.c **** }
 3410              		.loc 1 1510 1 view .LVU1166
 3411 004c 23FA00F0 		lsr	r0, r3, r0
 3412 0050 38BD     		pop	{r3, r4, r5, pc}
 3413              	.L328:
 3414              	.LBB80:
 3415              	.LBB78:
 3416              	.LBB76:
 3417              	.LBB74:
1363:Drivers/STM32H7xx_HAL_Driver/Src/stm32h7xx_hal_rcc.c ****   {
 3418              		.loc 1 1363 3 view .LVU1167
 3419 0052 0D48     		ldr	r0, .L333+20
 3420 0054 DFE7     		b	.L326
 3421              	.L332:
1367:Drivers/STM32H7xx_HAL_Driver/Src/stm32h7xx_hal_rcc.c ****       {
 3422              		.loc 1 1367 4 is_stmt 1 view .LVU1168
1367:Drivers/STM32H7xx_HAL_Driver/Src/stm32h7xx_hal_rcc.c ****       {
 3423              		.loc 1 1367 8 is_stmt 0 view .LVU1169
 3424 0056 1368     		ldr	r3, [r2]
1367:Drivers/STM32H7xx_HAL_Driver/Src/stm32h7xx_hal_rcc.c ****       {
 3425              		.loc 1 1367 7 view .LVU1170
 3426 0058 9B06     		lsls	r3, r3, #26
 3427 005a 09D5     		bpl	.L330
1369:Drivers/STM32H7xx_HAL_Driver/Src/stm32h7xx_hal_rcc.c ****       }
 3428              		.loc 1 1369 9 is_stmt 1 view .LVU1171
1369:Drivers/STM32H7xx_HAL_Driver/Src/stm32h7xx_hal_rcc.c ****       }
 3429              		.loc 1 1369 50 is_stmt 0 view .LVU1172
 3430 005c 1068     		ldr	r0, [r2]
1369:Drivers/STM32H7xx_HAL_Driver/Src/stm32h7xx_hal_rcc.c ****       }
 3431              		.loc 1 1369 22 view .LVU1173
 3432 005e 0B4B     		ldr	r3, .L333+24
1369:Drivers/STM32H7xx_HAL_Driver/Src/stm32h7xx_hal_rcc.c ****       }
 3433              		.loc 1 1369 77 view .LVU1174
 3434 0060 C0F3C100 		ubfx	r0, r0, #3, #2
1369:Drivers/STM32H7xx_HAL_Driver/Src/stm32h7xx_hal_rcc.c ****       }
 3435              		.loc 1 1369 22 view .LVU1175
 3436 0064 23FA00F0 		lsr	r0, r3, r0
 3437              	.LVL235:
1369:Drivers/STM32H7xx_HAL_Driver/Src/stm32h7xx_hal_rcc.c ****       }
ARM GAS  C:\Users\MadeuxS\AppData\Local\Temp\ccJrku7c.s 			page 107


 3438              		.loc 1 1369 22 view .LVU1176
 3439 0068 D5E7     		b	.L326
 3440              	.LVL236:
 3441              	.L327:
1369:Drivers/STM32H7xx_HAL_Driver/Src/stm32h7xx_hal_rcc.c ****       }
 3442              		.loc 1 1369 22 view .LVU1177
 3443 006a FFF7FEFF 		bl	HAL_RCC_GetSysClockFreq.part.0
 3444              	.LVL237:
 3445 006e D2E7     		b	.L326
 3446              	.L330:
1373:Drivers/STM32H7xx_HAL_Driver/Src/stm32h7xx_hal_rcc.c ****       }
 3447              		.loc 1 1373 22 view .LVU1178
 3448 0070 0648     		ldr	r0, .L333+24
 3449 0072 D0E7     		b	.L326
 3450              	.L334:
 3451              		.align	2
 3452              	.L333:
 3453 0074 00440258 		.word	1476543488
 3454 0078 00093D00 		.word	4000000
 3455 007c 00000000 		.word	D1CorePrescTable
 3456 0080 00000000 		.word	SystemCoreClock
 3457 0084 00000000 		.word	SystemD2Clock
 3458 0088 40787D01 		.word	25000000
 3459 008c 0090D003 		.word	64000000
 3460              	.LBE74:
 3461              	.LBE76:
 3462              	.LBE78:
 3463              	.LBE80:
 3464              		.cfi_endproc
 3465              	.LFE153:
 3467              		.section	.text.HAL_RCC_GetOscConfig,"ax",%progbits
 3468              		.align	1
 3469              		.p2align 2,,3
 3470              		.global	HAL_RCC_GetOscConfig
 3471              		.syntax unified
 3472              		.thumb
 3473              		.thumb_func
 3474              		.fpu fpv5-d16
 3476              	HAL_RCC_GetOscConfig:
 3477              	.LVL238:
 3478              	.LFB154:
1511:Drivers/STM32H7xx_HAL_Driver/Src/stm32h7xx_hal_rcc.c **** 
1512:Drivers/STM32H7xx_HAL_Driver/Src/stm32h7xx_hal_rcc.c **** /**
1513:Drivers/STM32H7xx_HAL_Driver/Src/stm32h7xx_hal_rcc.c ****   * @brief  Configures the RCC_OscInitStruct according to the internal
1514:Drivers/STM32H7xx_HAL_Driver/Src/stm32h7xx_hal_rcc.c ****   * RCC configuration registers.
1515:Drivers/STM32H7xx_HAL_Driver/Src/stm32h7xx_hal_rcc.c ****   * @param  RCC_OscInitStruct: pointer to an RCC_OscInitTypeDef structure that
1516:Drivers/STM32H7xx_HAL_Driver/Src/stm32h7xx_hal_rcc.c ****   * will be configured.
1517:Drivers/STM32H7xx_HAL_Driver/Src/stm32h7xx_hal_rcc.c ****   * @retval None
1518:Drivers/STM32H7xx_HAL_Driver/Src/stm32h7xx_hal_rcc.c ****   */
1519:Drivers/STM32H7xx_HAL_Driver/Src/stm32h7xx_hal_rcc.c **** void HAL_RCC_GetOscConfig(RCC_OscInitTypeDef  *RCC_OscInitStruct)
1520:Drivers/STM32H7xx_HAL_Driver/Src/stm32h7xx_hal_rcc.c **** {
 3479              		.loc 1 1520 1 is_stmt 1 view -0
 3480              		.cfi_startproc
 3481              		@ args = 0, pretend = 0, frame = 0
 3482              		@ frame_needed = 0, uses_anonymous_args = 0
1521:Drivers/STM32H7xx_HAL_Driver/Src/stm32h7xx_hal_rcc.c ****   /* Set all possible values for the Oscillator type parameter ---------------*/
1522:Drivers/STM32H7xx_HAL_Driver/Src/stm32h7xx_hal_rcc.c ****   RCC_OscInitStruct->OscillatorType = RCC_OSCILLATORTYPE_HSE | RCC_OSCILLATORTYPE_HSI | RCC_OSCILLA
ARM GAS  C:\Users\MadeuxS\AppData\Local\Temp\ccJrku7c.s 			page 108


 3483              		.loc 1 1522 3 view .LVU1180
1520:Drivers/STM32H7xx_HAL_Driver/Src/stm32h7xx_hal_rcc.c ****   /* Set all possible values for the Oscillator type parameter ---------------*/
 3484              		.loc 1 1520 1 is_stmt 0 view .LVU1181
 3485 0000 38B5     		push	{r3, r4, r5, lr}
 3486              	.LCFI23:
 3487              		.cfi_def_cfa_offset 16
 3488              		.cfi_offset 3, -16
 3489              		.cfi_offset 4, -12
 3490              		.cfi_offset 5, -8
 3491              		.cfi_offset 14, -4
 3492              		.loc 1 1522 37 view .LVU1182
 3493 0002 3F22     		movs	r2, #63
1523:Drivers/STM32H7xx_HAL_Driver/Src/stm32h7xx_hal_rcc.c ****                                       RCC_OSCILLATORTYPE_LSE | RCC_OSCILLATORTYPE_LSI| RCC_OSCILLAT
1524:Drivers/STM32H7xx_HAL_Driver/Src/stm32h7xx_hal_rcc.c **** 
1525:Drivers/STM32H7xx_HAL_Driver/Src/stm32h7xx_hal_rcc.c ****   /* Get the HSE configuration -----------------------------------------------*/
1526:Drivers/STM32H7xx_HAL_Driver/Src/stm32h7xx_hal_rcc.c **** #if defined(RCC_CR_HSEEXT)
1527:Drivers/STM32H7xx_HAL_Driver/Src/stm32h7xx_hal_rcc.c ****   if((RCC->CR &(RCC_CR_HSEBYP | RCC_CR_HSEEXT)) == RCC_CR_HSEBYP)
1528:Drivers/STM32H7xx_HAL_Driver/Src/stm32h7xx_hal_rcc.c ****   {
1529:Drivers/STM32H7xx_HAL_Driver/Src/stm32h7xx_hal_rcc.c ****     RCC_OscInitStruct->HSEState = RCC_HSE_BYPASS;
1530:Drivers/STM32H7xx_HAL_Driver/Src/stm32h7xx_hal_rcc.c ****   }
1531:Drivers/STM32H7xx_HAL_Driver/Src/stm32h7xx_hal_rcc.c ****   else if((RCC->CR &(RCC_CR_HSEBYP | RCC_CR_HSEEXT)) == (RCC_CR_HSEBYP | RCC_CR_HSEEXT))
1532:Drivers/STM32H7xx_HAL_Driver/Src/stm32h7xx_hal_rcc.c ****   {
1533:Drivers/STM32H7xx_HAL_Driver/Src/stm32h7xx_hal_rcc.c ****     RCC_OscInitStruct->HSEState = RCC_HSE_BYPASS_DIGITAL;
1534:Drivers/STM32H7xx_HAL_Driver/Src/stm32h7xx_hal_rcc.c ****   }
1535:Drivers/STM32H7xx_HAL_Driver/Src/stm32h7xx_hal_rcc.c ****   else if((RCC->CR &RCC_CR_HSEON) == RCC_CR_HSEON)
1536:Drivers/STM32H7xx_HAL_Driver/Src/stm32h7xx_hal_rcc.c ****   {
1537:Drivers/STM32H7xx_HAL_Driver/Src/stm32h7xx_hal_rcc.c ****     RCC_OscInitStruct->HSEState = RCC_HSE_ON;
1538:Drivers/STM32H7xx_HAL_Driver/Src/stm32h7xx_hal_rcc.c ****   }
1539:Drivers/STM32H7xx_HAL_Driver/Src/stm32h7xx_hal_rcc.c ****   else
1540:Drivers/STM32H7xx_HAL_Driver/Src/stm32h7xx_hal_rcc.c ****   {
1541:Drivers/STM32H7xx_HAL_Driver/Src/stm32h7xx_hal_rcc.c ****     RCC_OscInitStruct->HSEState = RCC_HSE_OFF;
1542:Drivers/STM32H7xx_HAL_Driver/Src/stm32h7xx_hal_rcc.c ****   }
1543:Drivers/STM32H7xx_HAL_Driver/Src/stm32h7xx_hal_rcc.c **** #else
1544:Drivers/STM32H7xx_HAL_Driver/Src/stm32h7xx_hal_rcc.c ****   if((RCC->CR &RCC_CR_HSEBYP) == RCC_CR_HSEBYP)
 3494              		.loc 1 1544 10 view .LVU1183
 3495 0004 3D4B     		ldr	r3, .L351
1520:Drivers/STM32H7xx_HAL_Driver/Src/stm32h7xx_hal_rcc.c ****   /* Set all possible values for the Oscillator type parameter ---------------*/
 3496              		.loc 1 1520 1 view .LVU1184
 3497 0006 0446     		mov	r4, r0
1522:Drivers/STM32H7xx_HAL_Driver/Src/stm32h7xx_hal_rcc.c ****                                       RCC_OSCILLATORTYPE_LSE | RCC_OSCILLATORTYPE_LSI| RCC_OSCILLAT
 3498              		.loc 1 1522 37 view .LVU1185
 3499 0008 0260     		str	r2, [r0]
 3500              		.loc 1 1544 3 is_stmt 1 view .LVU1186
 3501              		.loc 1 1544 10 is_stmt 0 view .LVU1187
 3502 000a 1A68     		ldr	r2, [r3]
 3503              		.loc 1 1544 5 view .LVU1188
 3504 000c 5203     		lsls	r2, r2, #13
 3505 000e 61D5     		bpl	.L336
1545:Drivers/STM32H7xx_HAL_Driver/Src/stm32h7xx_hal_rcc.c ****   {
1546:Drivers/STM32H7xx_HAL_Driver/Src/stm32h7xx_hal_rcc.c ****     RCC_OscInitStruct->HSEState = RCC_HSE_BYPASS;
 3506              		.loc 1 1546 5 is_stmt 1 view .LVU1189
 3507              		.loc 1 1546 33 is_stmt 0 view .LVU1190
 3508 0010 4FF4A023 		mov	r3, #327680
 3509 0014 4360     		str	r3, [r0, #4]
 3510              	.L337:
1547:Drivers/STM32H7xx_HAL_Driver/Src/stm32h7xx_hal_rcc.c ****   }
1548:Drivers/STM32H7xx_HAL_Driver/Src/stm32h7xx_hal_rcc.c ****   else if((RCC->CR &RCC_CR_HSEON) == RCC_CR_HSEON)
ARM GAS  C:\Users\MadeuxS\AppData\Local\Temp\ccJrku7c.s 			page 109


1549:Drivers/STM32H7xx_HAL_Driver/Src/stm32h7xx_hal_rcc.c ****   {
1550:Drivers/STM32H7xx_HAL_Driver/Src/stm32h7xx_hal_rcc.c ****     RCC_OscInitStruct->HSEState = RCC_HSE_ON;
1551:Drivers/STM32H7xx_HAL_Driver/Src/stm32h7xx_hal_rcc.c ****   }
1552:Drivers/STM32H7xx_HAL_Driver/Src/stm32h7xx_hal_rcc.c ****   else
1553:Drivers/STM32H7xx_HAL_Driver/Src/stm32h7xx_hal_rcc.c ****   {
1554:Drivers/STM32H7xx_HAL_Driver/Src/stm32h7xx_hal_rcc.c ****     RCC_OscInitStruct->HSEState = RCC_HSE_OFF;
1555:Drivers/STM32H7xx_HAL_Driver/Src/stm32h7xx_hal_rcc.c ****   }
1556:Drivers/STM32H7xx_HAL_Driver/Src/stm32h7xx_hal_rcc.c **** #endif /* RCC_CR_HSEEXT */
1557:Drivers/STM32H7xx_HAL_Driver/Src/stm32h7xx_hal_rcc.c **** 
1558:Drivers/STM32H7xx_HAL_Driver/Src/stm32h7xx_hal_rcc.c ****    /* Get the CSI configuration -----------------------------------------------*/
1559:Drivers/STM32H7xx_HAL_Driver/Src/stm32h7xx_hal_rcc.c ****   if((RCC->CR &RCC_CR_CSION) == RCC_CR_CSION)
 3511              		.loc 1 1559 3 is_stmt 1 view .LVU1191
 3512              		.loc 1 1559 10 is_stmt 0 view .LVU1192
 3513 0016 394D     		ldr	r5, .L351
 3514 0018 2B68     		ldr	r3, [r5]
1560:Drivers/STM32H7xx_HAL_Driver/Src/stm32h7xx_hal_rcc.c ****   {
1561:Drivers/STM32H7xx_HAL_Driver/Src/stm32h7xx_hal_rcc.c ****     RCC_OscInitStruct->CSIState = RCC_CSI_ON;
 3515              		.loc 1 1561 33 view .LVU1193
 3516 001a 03F08003 		and	r3, r3, #128
 3517 001e E361     		str	r3, [r4, #28]
1562:Drivers/STM32H7xx_HAL_Driver/Src/stm32h7xx_hal_rcc.c ****   }
1563:Drivers/STM32H7xx_HAL_Driver/Src/stm32h7xx_hal_rcc.c ****   else
1564:Drivers/STM32H7xx_HAL_Driver/Src/stm32h7xx_hal_rcc.c ****   {
1565:Drivers/STM32H7xx_HAL_Driver/Src/stm32h7xx_hal_rcc.c ****     RCC_OscInitStruct->CSIState = RCC_CSI_OFF;
1566:Drivers/STM32H7xx_HAL_Driver/Src/stm32h7xx_hal_rcc.c ****   }
1567:Drivers/STM32H7xx_HAL_Driver/Src/stm32h7xx_hal_rcc.c **** 
1568:Drivers/STM32H7xx_HAL_Driver/Src/stm32h7xx_hal_rcc.c **** #if defined(RCC_VER_X)
1569:Drivers/STM32H7xx_HAL_Driver/Src/stm32h7xx_hal_rcc.c ****   if(HAL_GetREVID() <= REV_ID_Y)
 3518              		.loc 1 1569 3 is_stmt 1 view .LVU1194
 3519              		.loc 1 1569 6 is_stmt 0 view .LVU1195
 3520 0020 FFF7FEFF 		bl	HAL_GetREVID
 3521              	.LVL239:
 3522              		.loc 1 1569 5 view .LVU1196
 3523 0024 41F20303 		movw	r3, #4099
 3524 0028 9842     		cmp	r0, r3
 3525 002a 62D8     		bhi	.L340
1570:Drivers/STM32H7xx_HAL_Driver/Src/stm32h7xx_hal_rcc.c ****   {
1571:Drivers/STM32H7xx_HAL_Driver/Src/stm32h7xx_hal_rcc.c ****     RCC_OscInitStruct->CSICalibrationValue = (uint32_t)(READ_BIT(RCC->HSICFGR, HAL_RCC_REV_Y_CSITRI
 3526              		.loc 1 1571 5 is_stmt 1 view .LVU1197
 3527              		.loc 1 1571 57 is_stmt 0 view .LVU1198
 3528 002c 6B68     		ldr	r3, [r5, #4]
 3529              		.loc 1 1571 46 view .LVU1199
 3530 002e C3F38463 		ubfx	r3, r3, #26, #5
 3531              	.L341:
1572:Drivers/STM32H7xx_HAL_Driver/Src/stm32h7xx_hal_rcc.c ****   }
1573:Drivers/STM32H7xx_HAL_Driver/Src/stm32h7xx_hal_rcc.c ****   else
1574:Drivers/STM32H7xx_HAL_Driver/Src/stm32h7xx_hal_rcc.c ****   {
1575:Drivers/STM32H7xx_HAL_Driver/Src/stm32h7xx_hal_rcc.c ****     RCC_OscInitStruct->CSICalibrationValue = (uint32_t)(READ_BIT(RCC->CSICFGR, RCC_CSICFGR_CSITRIM)
1576:Drivers/STM32H7xx_HAL_Driver/Src/stm32h7xx_hal_rcc.c ****   }
1577:Drivers/STM32H7xx_HAL_Driver/Src/stm32h7xx_hal_rcc.c **** #else
1578:Drivers/STM32H7xx_HAL_Driver/Src/stm32h7xx_hal_rcc.c ****  RCC_OscInitStruct->CSICalibrationValue = (uint32_t)(READ_BIT(RCC->CSICFGR, RCC_CSICFGR_CSITRIM) >>
1579:Drivers/STM32H7xx_HAL_Driver/Src/stm32h7xx_hal_rcc.c **** #endif /*RCC_VER_X*/
1580:Drivers/STM32H7xx_HAL_Driver/Src/stm32h7xx_hal_rcc.c **** 
1581:Drivers/STM32H7xx_HAL_Driver/Src/stm32h7xx_hal_rcc.c ****   /* Get the HSI configuration -----------------------------------------------*/
1582:Drivers/STM32H7xx_HAL_Driver/Src/stm32h7xx_hal_rcc.c ****   if((RCC->CR &RCC_CR_HSION) == RCC_CR_HSION)
 3532              		.loc 1 1582 10 view .LVU1200
 3533 0032 324D     		ldr	r5, .L351
ARM GAS  C:\Users\MadeuxS\AppData\Local\Temp\ccJrku7c.s 			page 110


 3534 0034 2362     		str	r3, [r4, #32]
 3535              		.loc 1 1582 3 is_stmt 1 view .LVU1201
 3536              		.loc 1 1582 10 is_stmt 0 view .LVU1202
 3537 0036 2B68     		ldr	r3, [r5]
 3538              		.loc 1 1582 15 view .LVU1203
 3539 0038 03F00103 		and	r3, r3, #1
 3540 003c E360     		str	r3, [r4, #12]
1583:Drivers/STM32H7xx_HAL_Driver/Src/stm32h7xx_hal_rcc.c ****   {
1584:Drivers/STM32H7xx_HAL_Driver/Src/stm32h7xx_hal_rcc.c ****     RCC_OscInitStruct->HSIState = RCC_HSI_ON;
1585:Drivers/STM32H7xx_HAL_Driver/Src/stm32h7xx_hal_rcc.c ****   }
1586:Drivers/STM32H7xx_HAL_Driver/Src/stm32h7xx_hal_rcc.c ****   else
1587:Drivers/STM32H7xx_HAL_Driver/Src/stm32h7xx_hal_rcc.c ****   {
1588:Drivers/STM32H7xx_HAL_Driver/Src/stm32h7xx_hal_rcc.c ****     RCC_OscInitStruct->HSIState = RCC_HSI_OFF;
1589:Drivers/STM32H7xx_HAL_Driver/Src/stm32h7xx_hal_rcc.c ****   }
1590:Drivers/STM32H7xx_HAL_Driver/Src/stm32h7xx_hal_rcc.c **** 
1591:Drivers/STM32H7xx_HAL_Driver/Src/stm32h7xx_hal_rcc.c **** #if defined(RCC_VER_X)
1592:Drivers/STM32H7xx_HAL_Driver/Src/stm32h7xx_hal_rcc.c ****   if(HAL_GetREVID() <= REV_ID_Y)
 3541              		.loc 1 1592 3 is_stmt 1 view .LVU1204
 3542              		.loc 1 1592 6 is_stmt 0 view .LVU1205
 3543 003e FFF7FEFF 		bl	HAL_GetREVID
 3544              	.LVL240:
1593:Drivers/STM32H7xx_HAL_Driver/Src/stm32h7xx_hal_rcc.c ****   {
1594:Drivers/STM32H7xx_HAL_Driver/Src/stm32h7xx_hal_rcc.c ****     RCC_OscInitStruct->HSICalibrationValue = (uint32_t)(READ_BIT(RCC->HSICFGR, HAL_RCC_REV_Y_HSITRI
 3545              		.loc 1 1594 5 is_stmt 1 view .LVU1206
1595:Drivers/STM32H7xx_HAL_Driver/Src/stm32h7xx_hal_rcc.c ****   }
1596:Drivers/STM32H7xx_HAL_Driver/Src/stm32h7xx_hal_rcc.c ****   else
1597:Drivers/STM32H7xx_HAL_Driver/Src/stm32h7xx_hal_rcc.c ****   {
1598:Drivers/STM32H7xx_HAL_Driver/Src/stm32h7xx_hal_rcc.c ****     RCC_OscInitStruct->HSICalibrationValue = (uint32_t)(READ_BIT(RCC->HSICFGR, RCC_HSICFGR_HSITRIM)
 3546              		.loc 1 1598 5 view .LVU1207
1592:Drivers/STM32H7xx_HAL_Driver/Src/stm32h7xx_hal_rcc.c ****   {
 3547              		.loc 1 1592 5 is_stmt 0 view .LVU1208
 3548 0042 41F20303 		movw	r3, #4099
1599:Drivers/STM32H7xx_HAL_Driver/Src/stm32h7xx_hal_rcc.c ****   }
1600:Drivers/STM32H7xx_HAL_Driver/Src/stm32h7xx_hal_rcc.c **** #else
1601:Drivers/STM32H7xx_HAL_Driver/Src/stm32h7xx_hal_rcc.c ****     RCC_OscInitStruct->HSICalibrationValue = (uint32_t)(READ_BIT(RCC->HSICFGR, RCC_HSICFGR_HSITRIM)
1602:Drivers/STM32H7xx_HAL_Driver/Src/stm32h7xx_hal_rcc.c **** #endif /*RCC_VER_X*/
1603:Drivers/STM32H7xx_HAL_Driver/Src/stm32h7xx_hal_rcc.c **** 
1604:Drivers/STM32H7xx_HAL_Driver/Src/stm32h7xx_hal_rcc.c ****   /* Get the LSE configuration -----------------------------------------------*/
1605:Drivers/STM32H7xx_HAL_Driver/Src/stm32h7xx_hal_rcc.c **** #if defined(RCC_BDCR_LSEEXT)
1606:Drivers/STM32H7xx_HAL_Driver/Src/stm32h7xx_hal_rcc.c ****   if((RCC->BDCR &(RCC_BDCR_LSEBYP|RCC_BDCR_LSEEXT)) == RCC_BDCR_LSEBYP)
1607:Drivers/STM32H7xx_HAL_Driver/Src/stm32h7xx_hal_rcc.c ****   {
1608:Drivers/STM32H7xx_HAL_Driver/Src/stm32h7xx_hal_rcc.c ****     RCC_OscInitStruct->LSEState = RCC_LSE_BYPASS;
1609:Drivers/STM32H7xx_HAL_Driver/Src/stm32h7xx_hal_rcc.c ****   }
1610:Drivers/STM32H7xx_HAL_Driver/Src/stm32h7xx_hal_rcc.c ****   else if((RCC->BDCR &(RCC_BDCR_LSEBYP|RCC_BDCR_LSEEXT)) == (RCC_BDCR_LSEBYP|RCC_BDCR_LSEEXT))
1611:Drivers/STM32H7xx_HAL_Driver/Src/stm32h7xx_hal_rcc.c ****   {
1612:Drivers/STM32H7xx_HAL_Driver/Src/stm32h7xx_hal_rcc.c ****     RCC_OscInitStruct->LSEState = RCC_LSE_BYPASS_DIGITAL;
1613:Drivers/STM32H7xx_HAL_Driver/Src/stm32h7xx_hal_rcc.c ****   }
1614:Drivers/STM32H7xx_HAL_Driver/Src/stm32h7xx_hal_rcc.c ****   else if((RCC->BDCR &RCC_BDCR_LSEON) == RCC_BDCR_LSEON)
1615:Drivers/STM32H7xx_HAL_Driver/Src/stm32h7xx_hal_rcc.c ****   {
1616:Drivers/STM32H7xx_HAL_Driver/Src/stm32h7xx_hal_rcc.c ****     RCC_OscInitStruct->LSEState = RCC_LSE_ON;
1617:Drivers/STM32H7xx_HAL_Driver/Src/stm32h7xx_hal_rcc.c ****   }
1618:Drivers/STM32H7xx_HAL_Driver/Src/stm32h7xx_hal_rcc.c ****   else
1619:Drivers/STM32H7xx_HAL_Driver/Src/stm32h7xx_hal_rcc.c ****   {
1620:Drivers/STM32H7xx_HAL_Driver/Src/stm32h7xx_hal_rcc.c ****     RCC_OscInitStruct->LSEState = RCC_LSE_OFF;
1621:Drivers/STM32H7xx_HAL_Driver/Src/stm32h7xx_hal_rcc.c ****   }
1622:Drivers/STM32H7xx_HAL_Driver/Src/stm32h7xx_hal_rcc.c **** #else
1623:Drivers/STM32H7xx_HAL_Driver/Src/stm32h7xx_hal_rcc.c ****   if((RCC->BDCR &RCC_BDCR_LSEBYP) == RCC_BDCR_LSEBYP)
ARM GAS  C:\Users\MadeuxS\AppData\Local\Temp\ccJrku7c.s 			page 111


 3549              		.loc 1 1623 10 view .LVU1209
 3550 0046 2D4A     		ldr	r2, .L351
1592:Drivers/STM32H7xx_HAL_Driver/Src/stm32h7xx_hal_rcc.c ****   {
 3551              		.loc 1 1592 5 view .LVU1210
 3552 0048 9842     		cmp	r0, r3
1594:Drivers/STM32H7xx_HAL_Driver/Src/stm32h7xx_hal_rcc.c ****   }
 3553              		.loc 1 1594 57 view .LVU1211
 3554 004a 6B68     		ldr	r3, [r5, #4]
1594:Drivers/STM32H7xx_HAL_Driver/Src/stm32h7xx_hal_rcc.c ****   }
 3555              		.loc 1 1594 46 view .LVU1212
 3556 004c 94BF     		ite	ls
 3557 004e C3F30533 		ubfxls	r3, r3, #12, #6
1598:Drivers/STM32H7xx_HAL_Driver/Src/stm32h7xx_hal_rcc.c ****   }
 3558              		.loc 1 1598 46 view .LVU1213
 3559 0052 C3F30663 		ubfxhi	r3, r3, #24, #7
 3560 0056 2361     		str	r3, [r4, #16]
 3561              		.loc 1 1623 3 is_stmt 1 view .LVU1214
 3562              		.loc 1 1623 10 is_stmt 0 view .LVU1215
 3563 0058 136F     		ldr	r3, [r2, #112]
 3564              		.loc 1 1623 5 view .LVU1216
 3565 005a 5B07     		lsls	r3, r3, #29
 3566 005c 42D5     		bpl	.L344
1624:Drivers/STM32H7xx_HAL_Driver/Src/stm32h7xx_hal_rcc.c ****   {
1625:Drivers/STM32H7xx_HAL_Driver/Src/stm32h7xx_hal_rcc.c ****     RCC_OscInitStruct->LSEState = RCC_LSE_BYPASS;
 3567              		.loc 1 1625 5 is_stmt 1 view .LVU1217
 3568              		.loc 1 1625 33 is_stmt 0 view .LVU1218
 3569 005e 0523     		movs	r3, #5
 3570 0060 A360     		str	r3, [r4, #8]
 3571              	.L345:
1626:Drivers/STM32H7xx_HAL_Driver/Src/stm32h7xx_hal_rcc.c ****   }
1627:Drivers/STM32H7xx_HAL_Driver/Src/stm32h7xx_hal_rcc.c ****   else if((RCC->BDCR &RCC_BDCR_LSEON) == RCC_BDCR_LSEON)
1628:Drivers/STM32H7xx_HAL_Driver/Src/stm32h7xx_hal_rcc.c ****   {
1629:Drivers/STM32H7xx_HAL_Driver/Src/stm32h7xx_hal_rcc.c ****     RCC_OscInitStruct->LSEState = RCC_LSE_ON;
1630:Drivers/STM32H7xx_HAL_Driver/Src/stm32h7xx_hal_rcc.c ****   }
1631:Drivers/STM32H7xx_HAL_Driver/Src/stm32h7xx_hal_rcc.c ****   else
1632:Drivers/STM32H7xx_HAL_Driver/Src/stm32h7xx_hal_rcc.c ****   {
1633:Drivers/STM32H7xx_HAL_Driver/Src/stm32h7xx_hal_rcc.c ****     RCC_OscInitStruct->LSEState = RCC_LSE_OFF;
1634:Drivers/STM32H7xx_HAL_Driver/Src/stm32h7xx_hal_rcc.c ****   }
1635:Drivers/STM32H7xx_HAL_Driver/Src/stm32h7xx_hal_rcc.c **** #endif /* RCC_BDCR_LSEEXT */
1636:Drivers/STM32H7xx_HAL_Driver/Src/stm32h7xx_hal_rcc.c **** 
1637:Drivers/STM32H7xx_HAL_Driver/Src/stm32h7xx_hal_rcc.c ****   /* Get the LSI configuration -----------------------------------------------*/
1638:Drivers/STM32H7xx_HAL_Driver/Src/stm32h7xx_hal_rcc.c ****   if((RCC->CSR &RCC_CSR_LSION) == RCC_CSR_LSION)
 3572              		.loc 1 1638 3 is_stmt 1 view .LVU1219
 3573              		.loc 1 1638 10 is_stmt 0 view .LVU1220
 3574 0062 264B     		ldr	r3, .L351
 3575 0064 5A6F     		ldr	r2, [r3, #116]
 3576              		.loc 1 1638 16 view .LVU1221
 3577 0066 02F00102 		and	r2, r2, #1
 3578 006a 6261     		str	r2, [r4, #20]
1639:Drivers/STM32H7xx_HAL_Driver/Src/stm32h7xx_hal_rcc.c ****   {
1640:Drivers/STM32H7xx_HAL_Driver/Src/stm32h7xx_hal_rcc.c ****     RCC_OscInitStruct->LSIState = RCC_LSI_ON;
1641:Drivers/STM32H7xx_HAL_Driver/Src/stm32h7xx_hal_rcc.c ****   }
1642:Drivers/STM32H7xx_HAL_Driver/Src/stm32h7xx_hal_rcc.c ****   else
1643:Drivers/STM32H7xx_HAL_Driver/Src/stm32h7xx_hal_rcc.c ****   {
1644:Drivers/STM32H7xx_HAL_Driver/Src/stm32h7xx_hal_rcc.c ****     RCC_OscInitStruct->LSIState = RCC_LSI_OFF;
1645:Drivers/STM32H7xx_HAL_Driver/Src/stm32h7xx_hal_rcc.c ****   }
1646:Drivers/STM32H7xx_HAL_Driver/Src/stm32h7xx_hal_rcc.c **** 
ARM GAS  C:\Users\MadeuxS\AppData\Local\Temp\ccJrku7c.s 			page 112


1647:Drivers/STM32H7xx_HAL_Driver/Src/stm32h7xx_hal_rcc.c ****   /* Get the HSI48 configuration ---------------------------------------------*/
1648:Drivers/STM32H7xx_HAL_Driver/Src/stm32h7xx_hal_rcc.c ****   if((RCC->CR & RCC_CR_HSI48ON) == RCC_CR_HSI48ON)
 3579              		.loc 1 1648 3 is_stmt 1 view .LVU1222
 3580              		.loc 1 1648 10 is_stmt 0 view .LVU1223
 3581 006c 1A68     		ldr	r2, [r3]
 3582              		.loc 1 1648 5 view .LVU1224
 3583 006e C2F30032 		ubfx	r2, r2, #12, #1
 3584 0072 A261     		str	r2, [r4, #24]
1649:Drivers/STM32H7xx_HAL_Driver/Src/stm32h7xx_hal_rcc.c ****   {
1650:Drivers/STM32H7xx_HAL_Driver/Src/stm32h7xx_hal_rcc.c ****     RCC_OscInitStruct->HSI48State = RCC_HSI48_ON;
1651:Drivers/STM32H7xx_HAL_Driver/Src/stm32h7xx_hal_rcc.c ****   }
1652:Drivers/STM32H7xx_HAL_Driver/Src/stm32h7xx_hal_rcc.c ****   else
1653:Drivers/STM32H7xx_HAL_Driver/Src/stm32h7xx_hal_rcc.c ****   {
1654:Drivers/STM32H7xx_HAL_Driver/Src/stm32h7xx_hal_rcc.c ****     RCC_OscInitStruct->HSI48State = RCC_HSI48_OFF;
1655:Drivers/STM32H7xx_HAL_Driver/Src/stm32h7xx_hal_rcc.c ****   }
1656:Drivers/STM32H7xx_HAL_Driver/Src/stm32h7xx_hal_rcc.c **** 
1657:Drivers/STM32H7xx_HAL_Driver/Src/stm32h7xx_hal_rcc.c ****   /* Get the PLL configuration -----------------------------------------------*/
1658:Drivers/STM32H7xx_HAL_Driver/Src/stm32h7xx_hal_rcc.c ****   if((RCC->CR &RCC_CR_PLLON) == RCC_CR_PLLON)
 3585              		.loc 1 1658 3 is_stmt 1 view .LVU1225
 3586              		.loc 1 1658 10 is_stmt 0 view .LVU1226
 3587 0074 1A68     		ldr	r2, [r3]
1659:Drivers/STM32H7xx_HAL_Driver/Src/stm32h7xx_hal_rcc.c ****   {
1660:Drivers/STM32H7xx_HAL_Driver/Src/stm32h7xx_hal_rcc.c ****     RCC_OscInitStruct->PLL.PLLState = RCC_PLL_ON;
1661:Drivers/STM32H7xx_HAL_Driver/Src/stm32h7xx_hal_rcc.c ****   }
1662:Drivers/STM32H7xx_HAL_Driver/Src/stm32h7xx_hal_rcc.c ****   else
1663:Drivers/STM32H7xx_HAL_Driver/Src/stm32h7xx_hal_rcc.c ****   {
1664:Drivers/STM32H7xx_HAL_Driver/Src/stm32h7xx_hal_rcc.c ****     RCC_OscInitStruct->PLL.PLLState = RCC_PLL_OFF;
 3588              		.loc 1 1664 37 view .LVU1227
 3589 0076 12F0807F 		tst	r2, #16777216
 3590 007a 14BF     		ite	ne
 3591 007c 0222     		movne	r2, #2
 3592 007e 0122     		moveq	r2, #1
 3593 0080 6262     		str	r2, [r4, #36]
1665:Drivers/STM32H7xx_HAL_Driver/Src/stm32h7xx_hal_rcc.c ****   }
1666:Drivers/STM32H7xx_HAL_Driver/Src/stm32h7xx_hal_rcc.c ****   RCC_OscInitStruct->PLL.PLLSource = (uint32_t)(RCC->PLLCKSELR & RCC_PLLCKSELR_PLLSRC);
 3594              		.loc 1 1666 3 is_stmt 1 view .LVU1228
 3595              		.loc 1 1666 52 is_stmt 0 view .LVU1229
 3596 0082 9A6A     		ldr	r2, [r3, #40]
 3597              		.loc 1 1666 38 view .LVU1230
 3598 0084 02F00302 		and	r2, r2, #3
 3599              		.loc 1 1666 36 view .LVU1231
 3600 0088 A262     		str	r2, [r4, #40]
1667:Drivers/STM32H7xx_HAL_Driver/Src/stm32h7xx_hal_rcc.c ****   RCC_OscInitStruct->PLL.PLLM = (uint32_t)((RCC->PLLCKSELR & RCC_PLLCKSELR_DIVM1)>> RCC_PLLCKSELR_D
 3601              		.loc 1 1667 3 is_stmt 1 view .LVU1232
 3602              		.loc 1 1667 48 is_stmt 0 view .LVU1233
 3603 008a 9A6A     		ldr	r2, [r3, #40]
 3604              		.loc 1 1667 33 view .LVU1234
 3605 008c C2F30512 		ubfx	r2, r2, #4, #6
 3606              		.loc 1 1667 31 view .LVU1235
 3607 0090 E262     		str	r2, [r4, #44]
1668:Drivers/STM32H7xx_HAL_Driver/Src/stm32h7xx_hal_rcc.c ****   RCC_OscInitStruct->PLL.PLLN = (uint32_t)((RCC->PLL1DIVR & RCC_PLL1DIVR_N1) >> RCC_PLL1DIVR_N1_Pos
 3608              		.loc 1 1668 3 is_stmt 1 view .LVU1236
 3609              		.loc 1 1668 48 is_stmt 0 view .LVU1237
 3610 0092 1A6B     		ldr	r2, [r3, #48]
 3611              		.loc 1 1668 33 view .LVU1238
 3612 0094 C2F30802 		ubfx	r2, r2, #0, #9
 3613              		.loc 1 1668 101 view .LVU1239
ARM GAS  C:\Users\MadeuxS\AppData\Local\Temp\ccJrku7c.s 			page 113


 3614 0098 0132     		adds	r2, r2, #1
 3615              		.loc 1 1668 31 view .LVU1240
 3616 009a 2263     		str	r2, [r4, #48]
1669:Drivers/STM32H7xx_HAL_Driver/Src/stm32h7xx_hal_rcc.c ****   RCC_OscInitStruct->PLL.PLLR = (uint32_t)((RCC->PLL1DIVR & RCC_PLL1DIVR_R1) >> RCC_PLL1DIVR_R1_Pos
 3617              		.loc 1 1669 3 is_stmt 1 view .LVU1241
 3618              		.loc 1 1669 48 is_stmt 0 view .LVU1242
 3619 009c 1A6B     		ldr	r2, [r3, #48]
 3620              		.loc 1 1669 33 view .LVU1243
 3621 009e C2F30662 		ubfx	r2, r2, #24, #7
 3622              		.loc 1 1669 101 view .LVU1244
 3623 00a2 0132     		adds	r2, r2, #1
 3624              		.loc 1 1669 31 view .LVU1245
 3625 00a4 E263     		str	r2, [r4, #60]
1670:Drivers/STM32H7xx_HAL_Driver/Src/stm32h7xx_hal_rcc.c ****   RCC_OscInitStruct->PLL.PLLP = (uint32_t)((RCC->PLL1DIVR & RCC_PLL1DIVR_P1) >> RCC_PLL1DIVR_P1_Pos
 3626              		.loc 1 1670 3 is_stmt 1 view .LVU1246
 3627              		.loc 1 1670 48 is_stmt 0 view .LVU1247
 3628 00a6 1A6B     		ldr	r2, [r3, #48]
 3629              		.loc 1 1670 33 view .LVU1248
 3630 00a8 C2F34622 		ubfx	r2, r2, #9, #7
 3631              		.loc 1 1670 101 view .LVU1249
 3632 00ac 0132     		adds	r2, r2, #1
 3633              		.loc 1 1670 31 view .LVU1250
 3634 00ae 6263     		str	r2, [r4, #52]
1671:Drivers/STM32H7xx_HAL_Driver/Src/stm32h7xx_hal_rcc.c ****   RCC_OscInitStruct->PLL.PLLQ = (uint32_t)((RCC->PLL1DIVR & RCC_PLL1DIVR_Q1) >> RCC_PLL1DIVR_Q1_Pos
 3635              		.loc 1 1671 3 is_stmt 1 view .LVU1251
 3636              		.loc 1 1671 48 is_stmt 0 view .LVU1252
 3637 00b0 1A6B     		ldr	r2, [r3, #48]
 3638              		.loc 1 1671 33 view .LVU1253
 3639 00b2 C2F30642 		ubfx	r2, r2, #16, #7
 3640              		.loc 1 1671 101 view .LVU1254
 3641 00b6 0132     		adds	r2, r2, #1
 3642              		.loc 1 1671 31 view .LVU1255
 3643 00b8 A263     		str	r2, [r4, #56]
1672:Drivers/STM32H7xx_HAL_Driver/Src/stm32h7xx_hal_rcc.c ****   RCC_OscInitStruct->PLL.PLLRGE = (uint32_t)((RCC->PLLCFGR & RCC_PLLCFGR_PLL1RGE));
 3644              		.loc 1 1672 3 is_stmt 1 view .LVU1256
 3645              		.loc 1 1672 50 is_stmt 0 view .LVU1257
 3646 00ba DA6A     		ldr	r2, [r3, #44]
 3647              		.loc 1 1672 35 view .LVU1258
 3648 00bc 02F00C02 		and	r2, r2, #12
 3649              		.loc 1 1672 33 view .LVU1259
 3650 00c0 2264     		str	r2, [r4, #64]
1673:Drivers/STM32H7xx_HAL_Driver/Src/stm32h7xx_hal_rcc.c ****   RCC_OscInitStruct->PLL.PLLVCOSEL = (uint32_t)((RCC->PLLCFGR & RCC_PLLCFGR_PLL1VCOSEL) >> RCC_PLLC
 3651              		.loc 1 1673 3 is_stmt 1 view .LVU1260
 3652              		.loc 1 1673 53 is_stmt 0 view .LVU1261
 3653 00c2 DA6A     		ldr	r2, [r3, #44]
 3654              		.loc 1 1673 38 view .LVU1262
 3655 00c4 C2F34002 		ubfx	r2, r2, #1, #1
 3656              		.loc 1 1673 36 view .LVU1263
 3657 00c8 6264     		str	r2, [r4, #68]
1674:Drivers/STM32H7xx_HAL_Driver/Src/stm32h7xx_hal_rcc.c ****   RCC_OscInitStruct->PLL.PLLFRACN = (uint32_t)(((RCC->PLL1FRACR & RCC_PLL1FRACR_FRACN1) >> RCC_PLL1
 3658              		.loc 1 1674 3 is_stmt 1 view .LVU1264
 3659              		.loc 1 1674 53 is_stmt 0 view .LVU1265
 3660 00ca 5B6B     		ldr	r3, [r3, #52]
 3661              		.loc 1 1674 37 view .LVU1266
 3662 00cc C3F3CC03 		ubfx	r3, r3, #3, #13
 3663              		.loc 1 1674 35 view .LVU1267
 3664 00d0 A364     		str	r3, [r4, #72]
ARM GAS  C:\Users\MadeuxS\AppData\Local\Temp\ccJrku7c.s 			page 114


1675:Drivers/STM32H7xx_HAL_Driver/Src/stm32h7xx_hal_rcc.c **** }
 3665              		.loc 1 1675 1 view .LVU1268
 3666 00d2 38BD     		pop	{r3, r4, r5, pc}
 3667              	.LVL241:
 3668              	.L336:
1548:Drivers/STM32H7xx_HAL_Driver/Src/stm32h7xx_hal_rcc.c ****   {
 3669              		.loc 1 1548 8 is_stmt 1 view .LVU1269
1548:Drivers/STM32H7xx_HAL_Driver/Src/stm32h7xx_hal_rcc.c ****   {
 3670              		.loc 1 1548 15 is_stmt 0 view .LVU1270
 3671 00d4 1B68     		ldr	r3, [r3]
1548:Drivers/STM32H7xx_HAL_Driver/Src/stm32h7xx_hal_rcc.c ****   {
 3672              		.loc 1 1548 10 view .LVU1271
 3673 00d6 13F48033 		ands	r3, r3, #65536
1550:Drivers/STM32H7xx_HAL_Driver/Src/stm32h7xx_hal_rcc.c ****   }
 3674              		.loc 1 1550 5 is_stmt 1 view .LVU1272
1550:Drivers/STM32H7xx_HAL_Driver/Src/stm32h7xx_hal_rcc.c ****   }
 3675              		.loc 1 1550 33 is_stmt 0 view .LVU1273
 3676 00da 18BF     		it	ne
 3677 00dc 4FF48033 		movne	r3, #65536
1554:Drivers/STM32H7xx_HAL_Driver/Src/stm32h7xx_hal_rcc.c ****   }
 3678              		.loc 1 1554 5 is_stmt 1 view .LVU1274
1554:Drivers/STM32H7xx_HAL_Driver/Src/stm32h7xx_hal_rcc.c ****   }
 3679              		.loc 1 1554 33 is_stmt 0 view .LVU1275
 3680 00e0 4360     		str	r3, [r0, #4]
 3681 00e2 98E7     		b	.L337
 3682              	.LVL242:
 3683              	.L344:
1627:Drivers/STM32H7xx_HAL_Driver/Src/stm32h7xx_hal_rcc.c ****   {
 3684              		.loc 1 1627 8 is_stmt 1 view .LVU1276
1627:Drivers/STM32H7xx_HAL_Driver/Src/stm32h7xx_hal_rcc.c ****   {
 3685              		.loc 1 1627 15 is_stmt 0 view .LVU1277
 3686 00e4 136F     		ldr	r3, [r2, #112]
1627:Drivers/STM32H7xx_HAL_Driver/Src/stm32h7xx_hal_rcc.c ****   {
 3687              		.loc 1 1627 10 view .LVU1278
 3688 00e6 13F00103 		ands	r3, r3, #1
1629:Drivers/STM32H7xx_HAL_Driver/Src/stm32h7xx_hal_rcc.c ****   }
 3689              		.loc 1 1629 5 is_stmt 1 view .LVU1279
1629:Drivers/STM32H7xx_HAL_Driver/Src/stm32h7xx_hal_rcc.c ****   }
 3690              		.loc 1 1629 33 is_stmt 0 view .LVU1280
 3691 00ea 18BF     		it	ne
 3692 00ec 0123     		movne	r3, #1
1633:Drivers/STM32H7xx_HAL_Driver/Src/stm32h7xx_hal_rcc.c ****   }
 3693              		.loc 1 1633 5 is_stmt 1 view .LVU1281
1633:Drivers/STM32H7xx_HAL_Driver/Src/stm32h7xx_hal_rcc.c ****   }
 3694              		.loc 1 1633 33 is_stmt 0 view .LVU1282
 3695 00ee A360     		str	r3, [r4, #8]
 3696 00f0 B7E7     		b	.L345
 3697              	.L340:
1575:Drivers/STM32H7xx_HAL_Driver/Src/stm32h7xx_hal_rcc.c ****   }
 3698              		.loc 1 1575 5 is_stmt 1 view .LVU1283
1575:Drivers/STM32H7xx_HAL_Driver/Src/stm32h7xx_hal_rcc.c ****   }
 3699              		.loc 1 1575 57 is_stmt 0 view .LVU1284
 3700 00f2 EB68     		ldr	r3, [r5, #12]
1575:Drivers/STM32H7xx_HAL_Driver/Src/stm32h7xx_hal_rcc.c ****   }
 3701              		.loc 1 1575 46 view .LVU1285
 3702 00f4 C3F30563 		ubfx	r3, r3, #24, #6
 3703 00f8 9BE7     		b	.L341
ARM GAS  C:\Users\MadeuxS\AppData\Local\Temp\ccJrku7c.s 			page 115


 3704              	.L352:
 3705 00fa 00BF     		.align	2
 3706              	.L351:
 3707 00fc 00440258 		.word	1476543488
 3708              		.cfi_endproc
 3709              	.LFE154:
 3711              		.section	.text.HAL_RCC_GetClockConfig,"ax",%progbits
 3712              		.align	1
 3713              		.p2align 2,,3
 3714              		.global	HAL_RCC_GetClockConfig
 3715              		.syntax unified
 3716              		.thumb
 3717              		.thumb_func
 3718              		.fpu fpv5-d16
 3720              	HAL_RCC_GetClockConfig:
 3721              	.LVL243:
 3722              	.LFB155:
1676:Drivers/STM32H7xx_HAL_Driver/Src/stm32h7xx_hal_rcc.c **** 
1677:Drivers/STM32H7xx_HAL_Driver/Src/stm32h7xx_hal_rcc.c **** /**
1678:Drivers/STM32H7xx_HAL_Driver/Src/stm32h7xx_hal_rcc.c ****   * @brief  Configures the RCC_ClkInitStruct according to the internal
1679:Drivers/STM32H7xx_HAL_Driver/Src/stm32h7xx_hal_rcc.c ****   * RCC configuration registers.
1680:Drivers/STM32H7xx_HAL_Driver/Src/stm32h7xx_hal_rcc.c ****   * @param  RCC_ClkInitStruct: pointer to an RCC_ClkInitTypeDef structure that
1681:Drivers/STM32H7xx_HAL_Driver/Src/stm32h7xx_hal_rcc.c ****   * will be configured.
1682:Drivers/STM32H7xx_HAL_Driver/Src/stm32h7xx_hal_rcc.c ****   * @param  pFLatency: Pointer on the Flash Latency.
1683:Drivers/STM32H7xx_HAL_Driver/Src/stm32h7xx_hal_rcc.c ****   * @retval None
1684:Drivers/STM32H7xx_HAL_Driver/Src/stm32h7xx_hal_rcc.c ****   */
1685:Drivers/STM32H7xx_HAL_Driver/Src/stm32h7xx_hal_rcc.c **** void HAL_RCC_GetClockConfig(RCC_ClkInitTypeDef  *RCC_ClkInitStruct, uint32_t *pFLatency)
1686:Drivers/STM32H7xx_HAL_Driver/Src/stm32h7xx_hal_rcc.c **** {
 3723              		.loc 1 1686 1 is_stmt 1 view -0
 3724              		.cfi_startproc
 3725              		@ args = 0, pretend = 0, frame = 0
 3726              		@ frame_needed = 0, uses_anonymous_args = 0
 3727              		@ link register save eliminated.
1687:Drivers/STM32H7xx_HAL_Driver/Src/stm32h7xx_hal_rcc.c ****   /* Set all possible values for the Clock type parameter --------------------*/
1688:Drivers/STM32H7xx_HAL_Driver/Src/stm32h7xx_hal_rcc.c ****   RCC_ClkInitStruct->ClockType = RCC_CLOCKTYPE_SYSCLK | RCC_CLOCKTYPE_HCLK | RCC_CLOCKTYPE_D1PCLK1 
 3728              		.loc 1 1688 3 view .LVU1287
1689:Drivers/STM32H7xx_HAL_Driver/Src/stm32h7xx_hal_rcc.c ****                                  RCC_CLOCKTYPE_PCLK2 |  RCC_CLOCKTYPE_D3PCLK1  ;
1690:Drivers/STM32H7xx_HAL_Driver/Src/stm32h7xx_hal_rcc.c **** 
1691:Drivers/STM32H7xx_HAL_Driver/Src/stm32h7xx_hal_rcc.c ****   /* Get the SYSCLK configuration --------------------------------------------*/
1692:Drivers/STM32H7xx_HAL_Driver/Src/stm32h7xx_hal_rcc.c ****   RCC_ClkInitStruct->SYSCLKSource = (uint32_t)(RCC->CFGR & RCC_CFGR_SW);
 3729              		.loc 1 1692 51 is_stmt 0 view .LVU1288
 3730 0000 134B     		ldr	r3, .L355
1688:Drivers/STM32H7xx_HAL_Driver/Src/stm32h7xx_hal_rcc.c ****                                  RCC_CLOCKTYPE_PCLK2 |  RCC_CLOCKTYPE_D3PCLK1  ;
 3731              		.loc 1 1688 32 view .LVU1289
 3732 0002 3F22     		movs	r2, #63
 3733 0004 0260     		str	r2, [r0]
 3734              		.loc 1 1692 3 is_stmt 1 view .LVU1290
 3735              		.loc 1 1692 51 is_stmt 0 view .LVU1291
 3736 0006 1A69     		ldr	r2, [r3, #16]
 3737              		.loc 1 1692 37 view .LVU1292
 3738 0008 02F00702 		and	r2, r2, #7
 3739              		.loc 1 1692 35 view .LVU1293
 3740 000c 4260     		str	r2, [r0, #4]
1693:Drivers/STM32H7xx_HAL_Driver/Src/stm32h7xx_hal_rcc.c **** 
1694:Drivers/STM32H7xx_HAL_Driver/Src/stm32h7xx_hal_rcc.c **** #if defined(RCC_D1CFGR_D1CPRE)
1695:Drivers/STM32H7xx_HAL_Driver/Src/stm32h7xx_hal_rcc.c ****   /* Get the SYSCLK configuration ----------------------------------------------*/
1696:Drivers/STM32H7xx_HAL_Driver/Src/stm32h7xx_hal_rcc.c ****   RCC_ClkInitStruct->SYSCLKDivider = (uint32_t)(RCC->D1CFGR & RCC_D1CFGR_D1CPRE);
ARM GAS  C:\Users\MadeuxS\AppData\Local\Temp\ccJrku7c.s 			page 116


 3741              		.loc 1 1696 3 is_stmt 1 view .LVU1294
 3742              		.loc 1 1696 52 is_stmt 0 view .LVU1295
 3743 000e 9A69     		ldr	r2, [r3, #24]
 3744              		.loc 1 1696 38 view .LVU1296
 3745 0010 02F47062 		and	r2, r2, #3840
 3746              		.loc 1 1696 36 view .LVU1297
 3747 0014 8260     		str	r2, [r0, #8]
1697:Drivers/STM32H7xx_HAL_Driver/Src/stm32h7xx_hal_rcc.c **** 
1698:Drivers/STM32H7xx_HAL_Driver/Src/stm32h7xx_hal_rcc.c ****   /* Get the D1HCLK configuration ----------------------------------------------*/
1699:Drivers/STM32H7xx_HAL_Driver/Src/stm32h7xx_hal_rcc.c ****   RCC_ClkInitStruct->AHBCLKDivider = (uint32_t)(RCC->D1CFGR & RCC_D1CFGR_HPRE);
 3748              		.loc 1 1699 3 is_stmt 1 view .LVU1298
 3749              		.loc 1 1699 52 is_stmt 0 view .LVU1299
 3750 0016 9A69     		ldr	r2, [r3, #24]
 3751              		.loc 1 1699 38 view .LVU1300
 3752 0018 02F00F02 		and	r2, r2, #15
 3753              		.loc 1 1699 36 view .LVU1301
 3754 001c C260     		str	r2, [r0, #12]
1700:Drivers/STM32H7xx_HAL_Driver/Src/stm32h7xx_hal_rcc.c **** 
1701:Drivers/STM32H7xx_HAL_Driver/Src/stm32h7xx_hal_rcc.c ****   /* Get the APB3 configuration ----------------------------------------------*/
1702:Drivers/STM32H7xx_HAL_Driver/Src/stm32h7xx_hal_rcc.c ****   RCC_ClkInitStruct->APB3CLKDivider = (uint32_t)(RCC->D1CFGR & RCC_D1CFGR_D1PPRE);
 3755              		.loc 1 1702 3 is_stmt 1 view .LVU1302
 3756              		.loc 1 1702 53 is_stmt 0 view .LVU1303
 3757 001e 9A69     		ldr	r2, [r3, #24]
 3758              		.loc 1 1702 39 view .LVU1304
 3759 0020 02F07002 		and	r2, r2, #112
 3760              		.loc 1 1702 37 view .LVU1305
 3761 0024 0261     		str	r2, [r0, #16]
1703:Drivers/STM32H7xx_HAL_Driver/Src/stm32h7xx_hal_rcc.c **** 
1704:Drivers/STM32H7xx_HAL_Driver/Src/stm32h7xx_hal_rcc.c ****   /* Get the APB1 configuration ----------------------------------------------*/
1705:Drivers/STM32H7xx_HAL_Driver/Src/stm32h7xx_hal_rcc.c ****   RCC_ClkInitStruct->APB1CLKDivider = (uint32_t)(RCC->D2CFGR & RCC_D2CFGR_D2PPRE1);
 3762              		.loc 1 1705 3 is_stmt 1 view .LVU1306
 3763              		.loc 1 1705 53 is_stmt 0 view .LVU1307
 3764 0026 DA69     		ldr	r2, [r3, #28]
 3765              		.loc 1 1705 39 view .LVU1308
 3766 0028 02F07002 		and	r2, r2, #112
 3767              		.loc 1 1705 37 view .LVU1309
 3768 002c 4261     		str	r2, [r0, #20]
1706:Drivers/STM32H7xx_HAL_Driver/Src/stm32h7xx_hal_rcc.c **** 
1707:Drivers/STM32H7xx_HAL_Driver/Src/stm32h7xx_hal_rcc.c ****   /* Get the APB2 configuration ----------------------------------------------*/
1708:Drivers/STM32H7xx_HAL_Driver/Src/stm32h7xx_hal_rcc.c ****   RCC_ClkInitStruct->APB2CLKDivider = (uint32_t)(RCC->D2CFGR & RCC_D2CFGR_D2PPRE2);
 3769              		.loc 1 1708 3 is_stmt 1 view .LVU1310
 3770              		.loc 1 1708 53 is_stmt 0 view .LVU1311
 3771 002e DA69     		ldr	r2, [r3, #28]
 3772              		.loc 1 1708 39 view .LVU1312
 3773 0030 02F4E062 		and	r2, r2, #1792
 3774              		.loc 1 1708 37 view .LVU1313
 3775 0034 8261     		str	r2, [r0, #24]
1709:Drivers/STM32H7xx_HAL_Driver/Src/stm32h7xx_hal_rcc.c **** 
1710:Drivers/STM32H7xx_HAL_Driver/Src/stm32h7xx_hal_rcc.c ****   /* Get the APB4 configuration ----------------------------------------------*/
1711:Drivers/STM32H7xx_HAL_Driver/Src/stm32h7xx_hal_rcc.c ****   RCC_ClkInitStruct->APB4CLKDivider = (uint32_t)(RCC->D3CFGR & RCC_D3CFGR_D3PPRE);
 3776              		.loc 1 1711 3 is_stmt 1 view .LVU1314
 3777              		.loc 1 1711 53 is_stmt 0 view .LVU1315
 3778 0036 1B6A     		ldr	r3, [r3, #32]
1686:Drivers/STM32H7xx_HAL_Driver/Src/stm32h7xx_hal_rcc.c ****   /* Set all possible values for the Clock type parameter --------------------*/
 3779              		.loc 1 1686 1 view .LVU1316
 3780 0038 10B4     		push	{r4}
 3781              	.LCFI24:
ARM GAS  C:\Users\MadeuxS\AppData\Local\Temp\ccJrku7c.s 			page 117


 3782              		.cfi_def_cfa_offset 4
 3783              		.cfi_offset 4, -4
 3784              		.loc 1 1711 39 view .LVU1317
 3785 003a 03F07003 		and	r3, r3, #112
1712:Drivers/STM32H7xx_HAL_Driver/Src/stm32h7xx_hal_rcc.c **** #else
1713:Drivers/STM32H7xx_HAL_Driver/Src/stm32h7xx_hal_rcc.c ****   /* Get the SYSCLK configuration ----------------------------------------------*/
1714:Drivers/STM32H7xx_HAL_Driver/Src/stm32h7xx_hal_rcc.c ****   RCC_ClkInitStruct->SYSCLKDivider = (uint32_t)(RCC->CDCFGR1 & RCC_CDCFGR1_CDCPRE);
1715:Drivers/STM32H7xx_HAL_Driver/Src/stm32h7xx_hal_rcc.c **** 
1716:Drivers/STM32H7xx_HAL_Driver/Src/stm32h7xx_hal_rcc.c ****   /* Get the D1HCLK configuration ----------------------------------------------*/
1717:Drivers/STM32H7xx_HAL_Driver/Src/stm32h7xx_hal_rcc.c ****   RCC_ClkInitStruct->AHBCLKDivider = (uint32_t)(RCC->CDCFGR1 & RCC_CDCFGR1_HPRE);
1718:Drivers/STM32H7xx_HAL_Driver/Src/stm32h7xx_hal_rcc.c **** 
1719:Drivers/STM32H7xx_HAL_Driver/Src/stm32h7xx_hal_rcc.c ****   /* Get the APB3 configuration ----------------------------------------------*/
1720:Drivers/STM32H7xx_HAL_Driver/Src/stm32h7xx_hal_rcc.c ****   RCC_ClkInitStruct->APB3CLKDivider = (uint32_t)(RCC->CDCFGR1 & RCC_CDCFGR1_CDPPRE);
1721:Drivers/STM32H7xx_HAL_Driver/Src/stm32h7xx_hal_rcc.c **** 
1722:Drivers/STM32H7xx_HAL_Driver/Src/stm32h7xx_hal_rcc.c ****   /* Get the APB1 configuration ----------------------------------------------*/
1723:Drivers/STM32H7xx_HAL_Driver/Src/stm32h7xx_hal_rcc.c ****   RCC_ClkInitStruct->APB1CLKDivider = (uint32_t)(RCC->CDCFGR2 & RCC_CDCFGR2_CDPPRE1);
1724:Drivers/STM32H7xx_HAL_Driver/Src/stm32h7xx_hal_rcc.c **** 
1725:Drivers/STM32H7xx_HAL_Driver/Src/stm32h7xx_hal_rcc.c ****   /* Get the APB2 configuration ----------------------------------------------*/
1726:Drivers/STM32H7xx_HAL_Driver/Src/stm32h7xx_hal_rcc.c ****   RCC_ClkInitStruct->APB2CLKDivider = (uint32_t)(RCC->CDCFGR2 & RCC_CDCFGR2_CDPPRE2);
1727:Drivers/STM32H7xx_HAL_Driver/Src/stm32h7xx_hal_rcc.c **** 
1728:Drivers/STM32H7xx_HAL_Driver/Src/stm32h7xx_hal_rcc.c ****   /* Get the APB4 configuration ----------------------------------------------*/
1729:Drivers/STM32H7xx_HAL_Driver/Src/stm32h7xx_hal_rcc.c ****   RCC_ClkInitStruct->APB4CLKDivider = (uint32_t)(RCC->SRDCFGR & RCC_SRDCFGR_SRDPPRE);
1730:Drivers/STM32H7xx_HAL_Driver/Src/stm32h7xx_hal_rcc.c **** #endif
1731:Drivers/STM32H7xx_HAL_Driver/Src/stm32h7xx_hal_rcc.c **** 
1732:Drivers/STM32H7xx_HAL_Driver/Src/stm32h7xx_hal_rcc.c ****   /* Get the Flash Wait State (Latency) configuration ------------------------*/
1733:Drivers/STM32H7xx_HAL_Driver/Src/stm32h7xx_hal_rcc.c ****   *pFLatency = (uint32_t)(FLASH->ACR & FLASH_ACR_LATENCY);
 3786              		.loc 1 1733 32 view .LVU1318
 3787 003e 054C     		ldr	r4, .L355+4
1711:Drivers/STM32H7xx_HAL_Driver/Src/stm32h7xx_hal_rcc.c **** #else
 3788              		.loc 1 1711 37 view .LVU1319
 3789 0040 C361     		str	r3, [r0, #28]
 3790              		.loc 1 1733 3 is_stmt 1 view .LVU1320
 3791              		.loc 1 1733 32 is_stmt 0 view .LVU1321
 3792 0042 2368     		ldr	r3, [r4]
1734:Drivers/STM32H7xx_HAL_Driver/Src/stm32h7xx_hal_rcc.c **** }
 3793              		.loc 1 1734 1 view .LVU1322
 3794 0044 5DF8044B 		ldr	r4, [sp], #4
 3795              	.LCFI25:
 3796              		.cfi_restore 4
 3797              		.cfi_def_cfa_offset 0
1733:Drivers/STM32H7xx_HAL_Driver/Src/stm32h7xx_hal_rcc.c **** }
 3798              		.loc 1 1733 16 view .LVU1323
 3799 0048 03F00F03 		and	r3, r3, #15
1733:Drivers/STM32H7xx_HAL_Driver/Src/stm32h7xx_hal_rcc.c **** }
 3800              		.loc 1 1733 14 view .LVU1324
 3801 004c 0B60     		str	r3, [r1]
 3802              		.loc 1 1734 1 view .LVU1325
 3803 004e 7047     		bx	lr
 3804              	.L356:
 3805              		.align	2
 3806              	.L355:
 3807 0050 00440258 		.word	1476543488
 3808 0054 00200052 		.word	1375739904
 3809              		.cfi_endproc
 3810              	.LFE155:
 3812              		.section	.text.HAL_RCC_CSSCallback,"ax",%progbits
 3813              		.align	1
ARM GAS  C:\Users\MadeuxS\AppData\Local\Temp\ccJrku7c.s 			page 118


 3814              		.p2align 2,,3
 3815              		.weak	HAL_RCC_CSSCallback
 3816              		.syntax unified
 3817              		.thumb
 3818              		.thumb_func
 3819              		.fpu fpv5-d16
 3821              	HAL_RCC_CSSCallback:
 3822              	.LFB157:
1735:Drivers/STM32H7xx_HAL_Driver/Src/stm32h7xx_hal_rcc.c **** 
1736:Drivers/STM32H7xx_HAL_Driver/Src/stm32h7xx_hal_rcc.c **** /**
1737:Drivers/STM32H7xx_HAL_Driver/Src/stm32h7xx_hal_rcc.c ****   * @brief This function handles the RCC CSS interrupt request.
1738:Drivers/STM32H7xx_HAL_Driver/Src/stm32h7xx_hal_rcc.c ****   * @note This API should be called under the NMI_Handler().
1739:Drivers/STM32H7xx_HAL_Driver/Src/stm32h7xx_hal_rcc.c ****   * @retval None
1740:Drivers/STM32H7xx_HAL_Driver/Src/stm32h7xx_hal_rcc.c ****   */
1741:Drivers/STM32H7xx_HAL_Driver/Src/stm32h7xx_hal_rcc.c **** void HAL_RCC_NMI_IRQHandler(void)
1742:Drivers/STM32H7xx_HAL_Driver/Src/stm32h7xx_hal_rcc.c **** {
1743:Drivers/STM32H7xx_HAL_Driver/Src/stm32h7xx_hal_rcc.c ****   /* Check RCC CSSF flag  */
1744:Drivers/STM32H7xx_HAL_Driver/Src/stm32h7xx_hal_rcc.c ****   if(__HAL_RCC_GET_IT(RCC_IT_CSS))
1745:Drivers/STM32H7xx_HAL_Driver/Src/stm32h7xx_hal_rcc.c ****   {
1746:Drivers/STM32H7xx_HAL_Driver/Src/stm32h7xx_hal_rcc.c ****     /* RCC Clock Security System interrupt user callback */
1747:Drivers/STM32H7xx_HAL_Driver/Src/stm32h7xx_hal_rcc.c ****     HAL_RCC_CCSCallback();
1748:Drivers/STM32H7xx_HAL_Driver/Src/stm32h7xx_hal_rcc.c **** 
1749:Drivers/STM32H7xx_HAL_Driver/Src/stm32h7xx_hal_rcc.c ****     /* Clear RCC CSS pending bit */
1750:Drivers/STM32H7xx_HAL_Driver/Src/stm32h7xx_hal_rcc.c ****     __HAL_RCC_CLEAR_IT(RCC_IT_CSS);
1751:Drivers/STM32H7xx_HAL_Driver/Src/stm32h7xx_hal_rcc.c ****   }
1752:Drivers/STM32H7xx_HAL_Driver/Src/stm32h7xx_hal_rcc.c **** }
1753:Drivers/STM32H7xx_HAL_Driver/Src/stm32h7xx_hal_rcc.c **** 
1754:Drivers/STM32H7xx_HAL_Driver/Src/stm32h7xx_hal_rcc.c **** /**
1755:Drivers/STM32H7xx_HAL_Driver/Src/stm32h7xx_hal_rcc.c ****   * @brief  RCC Clock Security System interrupt callback
1756:Drivers/STM32H7xx_HAL_Driver/Src/stm32h7xx_hal_rcc.c ****   * @retval none
1757:Drivers/STM32H7xx_HAL_Driver/Src/stm32h7xx_hal_rcc.c ****   */
1758:Drivers/STM32H7xx_HAL_Driver/Src/stm32h7xx_hal_rcc.c **** __weak void HAL_RCC_CCSCallback(void)
1759:Drivers/STM32H7xx_HAL_Driver/Src/stm32h7xx_hal_rcc.c **** {
 3823              		.loc 1 1759 1 is_stmt 1 view -0
 3824              		.cfi_startproc
 3825              		@ args = 0, pretend = 0, frame = 0
 3826              		@ frame_needed = 0, uses_anonymous_args = 0
 3827              		@ link register save eliminated.
1760:Drivers/STM32H7xx_HAL_Driver/Src/stm32h7xx_hal_rcc.c ****   /* NOTE : This function Should not be modified, when the callback is needed,
1761:Drivers/STM32H7xx_HAL_Driver/Src/stm32h7xx_hal_rcc.c ****             the HAL_RCC_CCSCallback could be implemented in the user file
1762:Drivers/STM32H7xx_HAL_Driver/Src/stm32h7xx_hal_rcc.c ****    */
1763:Drivers/STM32H7xx_HAL_Driver/Src/stm32h7xx_hal_rcc.c **** }
 3828              		.loc 1 1763 1 view .LVU1327
 3829 0000 7047     		bx	lr
 3830              		.cfi_endproc
 3831              	.LFE157:
 3833 0002 00BF     		.section	.text.HAL_RCC_NMI_IRQHandler,"ax",%progbits
 3834              		.align	1
 3835              		.p2align 2,,3
 3836              		.global	HAL_RCC_NMI_IRQHandler
 3837              		.syntax unified
 3838              		.thumb
 3839              		.thumb_func
 3840              		.fpu fpv5-d16
 3842              	HAL_RCC_NMI_IRQHandler:
 3843              	.LFB156:
1742:Drivers/STM32H7xx_HAL_Driver/Src/stm32h7xx_hal_rcc.c ****   /* Check RCC CSSF flag  */
ARM GAS  C:\Users\MadeuxS\AppData\Local\Temp\ccJrku7c.s 			page 119


 3844              		.loc 1 1742 1 view -0
 3845              		.cfi_startproc
 3846              		@ args = 0, pretend = 0, frame = 0
 3847              		@ frame_needed = 0, uses_anonymous_args = 0
1744:Drivers/STM32H7xx_HAL_Driver/Src/stm32h7xx_hal_rcc.c ****   {
 3848              		.loc 1 1744 3 view .LVU1329
1742:Drivers/STM32H7xx_HAL_Driver/Src/stm32h7xx_hal_rcc.c ****   /* Check RCC CSSF flag  */
 3849              		.loc 1 1742 1 is_stmt 0 view .LVU1330
 3850 0000 10B5     		push	{r4, lr}
 3851              	.LCFI26:
 3852              		.cfi_def_cfa_offset 8
 3853              		.cfi_offset 4, -8
 3854              		.cfi_offset 14, -4
1744:Drivers/STM32H7xx_HAL_Driver/Src/stm32h7xx_hal_rcc.c ****   {
 3855              		.loc 1 1744 6 view .LVU1331
 3856 0002 054C     		ldr	r4, .L365
 3857 0004 636E     		ldr	r3, [r4, #100]
1744:Drivers/STM32H7xx_HAL_Driver/Src/stm32h7xx_hal_rcc.c ****   {
 3858              		.loc 1 1744 5 view .LVU1332
 3859 0006 5B05     		lsls	r3, r3, #21
 3860 0008 00D4     		bmi	.L364
1752:Drivers/STM32H7xx_HAL_Driver/Src/stm32h7xx_hal_rcc.c **** 
 3861              		.loc 1 1752 1 view .LVU1333
 3862 000a 10BD     		pop	{r4, pc}
 3863              	.L364:
1747:Drivers/STM32H7xx_HAL_Driver/Src/stm32h7xx_hal_rcc.c **** 
 3864              		.loc 1 1747 5 is_stmt 1 view .LVU1334
 3865 000c FFF7FEFF 		bl	HAL_RCC_CSSCallback
 3866              	.LVL244:
1750:Drivers/STM32H7xx_HAL_Driver/Src/stm32h7xx_hal_rcc.c ****   }
 3867              		.loc 1 1750 5 view .LVU1335
 3868 0010 4FF48063 		mov	r3, #1024
 3869 0014 A366     		str	r3, [r4, #104]
1752:Drivers/STM32H7xx_HAL_Driver/Src/stm32h7xx_hal_rcc.c **** 
 3870              		.loc 1 1752 1 is_stmt 0 view .LVU1336
 3871 0016 10BD     		pop	{r4, pc}
 3872              	.L366:
 3873              		.align	2
 3874              	.L365:
 3875 0018 00440258 		.word	1476543488
 3876              		.cfi_endproc
 3877              	.LFE156:
 3879              		.text
 3880              	.Letext0:
 3881              		.file 2 "c:\\dev\\tools\\gcc-arm-none-eabi-10.3-2021.07\\arm-none-eabi\\include\\machine\\_default
 3882              		.file 3 "c:\\dev\\tools\\gcc-arm-none-eabi-10.3-2021.07\\arm-none-eabi\\include\\sys\\_stdint.h"
 3883              		.file 4 "Drivers/CMSIS/Device/ST/STM32H7xx/Include/system_stm32h7xx.h"
 3884              		.file 5 "Drivers/CMSIS/Device/ST/STM32H7xx/Include/stm32h743xx.h"
 3885              		.file 6 "c:\\dev\\tools\\gcc-arm-none-eabi-10.3-2021.07\\arm-none-eabi\\include\\math.h"
 3886              		.file 7 "Drivers/STM32H7xx_HAL_Driver/Inc/stm32h7xx_hal_def.h"
 3887              		.file 8 "Drivers/STM32H7xx_HAL_Driver/Inc/stm32h7xx_hal_rcc.h"
 3888              		.file 9 "Drivers/STM32H7xx_HAL_Driver/Inc/stm32h7xx_hal_gpio.h"
 3889              		.file 10 "Drivers/STM32H7xx_HAL_Driver/Inc/stm32h7xx_hal.h"
ARM GAS  C:\Users\MadeuxS\AppData\Local\Temp\ccJrku7c.s 			page 120


DEFINED SYMBOLS
                            *ABS*:00000000 stm32h7xx_hal_rcc.c
C:\Users\MadeuxS\AppData\Local\Temp\ccJrku7c.s:15     .text.HAL_RCC_GetSysClockFreq.part.0:00000000 $t
C:\Users\MadeuxS\AppData\Local\Temp\ccJrku7c.s:23     .text.HAL_RCC_GetSysClockFreq.part.0:00000000 HAL_RCC_GetSysClockFreq.part.0
C:\Users\MadeuxS\AppData\Local\Temp\ccJrku7c.s:220    .text.HAL_RCC_GetSysClockFreq.part.0:000000f0 $d
C:\Users\MadeuxS\AppData\Local\Temp\ccJrku7c.s:230    .text.HAL_RCC_DeInit:00000000 $t
C:\Users\MadeuxS\AppData\Local\Temp\ccJrku7c.s:238    .text.HAL_RCC_DeInit:00000000 HAL_RCC_DeInit
C:\Users\MadeuxS\AppData\Local\Temp\ccJrku7c.s:604    .text.HAL_RCC_DeInit:00000178 $d
C:\Users\MadeuxS\AppData\Local\Temp\ccJrku7c.s:618    .text.HAL_RCC_OscConfig:00000000 $t
C:\Users\MadeuxS\AppData\Local\Temp\ccJrku7c.s:626    .text.HAL_RCC_OscConfig:00000000 HAL_RCC_OscConfig
C:\Users\MadeuxS\AppData\Local\Temp\ccJrku7c.s:1234   .text.HAL_RCC_OscConfig:00000290 $d
C:\Users\MadeuxS\AppData\Local\Temp\ccJrku7c.s:1239   .text.HAL_RCC_OscConfig:00000298 $t
C:\Users\MadeuxS\AppData\Local\Temp\ccJrku7c.s:1841   .text.HAL_RCC_OscConfig:00000554 $d
C:\Users\MadeuxS\AppData\Local\Temp\ccJrku7c.s:1847   .text.HAL_RCC_OscConfig:00000560 $t
C:\Users\MadeuxS\AppData\Local\Temp\ccJrku7c.s:1925   .text.HAL_RCC_OscConfig:000005c8 $d
C:\Users\MadeuxS\AppData\Local\Temp\ccJrku7c.s:1930   .text.HAL_RCC_MCOConfig:00000000 $t
C:\Users\MadeuxS\AppData\Local\Temp\ccJrku7c.s:1938   .text.HAL_RCC_MCOConfig:00000000 HAL_RCC_MCOConfig
C:\Users\MadeuxS\AppData\Local\Temp\ccJrku7c.s:2106   .text.HAL_RCC_MCOConfig:00000098 $d
C:\Users\MadeuxS\AppData\Local\Temp\ccJrku7c.s:2113   .text.HAL_RCC_EnableCSS:00000000 $t
C:\Users\MadeuxS\AppData\Local\Temp\ccJrku7c.s:2121   .text.HAL_RCC_EnableCSS:00000000 HAL_RCC_EnableCSS
C:\Users\MadeuxS\AppData\Local\Temp\ccJrku7c.s:2138   .text.HAL_RCC_EnableCSS:0000000c $d
C:\Users\MadeuxS\AppData\Local\Temp\ccJrku7c.s:2143   .text.HAL_RCC_DisableCSS:00000000 $t
C:\Users\MadeuxS\AppData\Local\Temp\ccJrku7c.s:2151   .text.HAL_RCC_DisableCSS:00000000 HAL_RCC_DisableCSS
C:\Users\MadeuxS\AppData\Local\Temp\ccJrku7c.s:2168   .text.HAL_RCC_DisableCSS:0000000c $d
C:\Users\MadeuxS\AppData\Local\Temp\ccJrku7c.s:2173   .text.HAL_RCC_GetSysClockFreq:00000000 $t
C:\Users\MadeuxS\AppData\Local\Temp\ccJrku7c.s:2181   .text.HAL_RCC_GetSysClockFreq:00000000 HAL_RCC_GetSysClockFreq
C:\Users\MadeuxS\AppData\Local\Temp\ccJrku7c.s:2435   .text.HAL_RCC_GetSysClockFreq:00000120 $d
C:\Users\MadeuxS\AppData\Local\Temp\ccJrku7c.s:2449   .text.HAL_RCC_ClockConfig:00000000 $t
C:\Users\MadeuxS\AppData\Local\Temp\ccJrku7c.s:2457   .text.HAL_RCC_ClockConfig:00000000 HAL_RCC_ClockConfig
C:\Users\MadeuxS\AppData\Local\Temp\ccJrku7c.s:2974   .text.HAL_RCC_ClockConfig:00000238 $d
C:\Users\MadeuxS\AppData\Local\Temp\ccJrku7c.s:2984   .text.HAL_RCC_GetHCLKFreq:00000000 $t
C:\Users\MadeuxS\AppData\Local\Temp\ccJrku7c.s:2992   .text.HAL_RCC_GetHCLKFreq:00000000 HAL_RCC_GetHCLKFreq
C:\Users\MadeuxS\AppData\Local\Temp\ccJrku7c.s:3117   .text.HAL_RCC_GetHCLKFreq:00000064 $d
C:\Users\MadeuxS\AppData\Local\Temp\ccJrku7c.s:3130   .text.HAL_RCC_GetPCLK1Freq:00000000 $t
C:\Users\MadeuxS\AppData\Local\Temp\ccJrku7c.s:3138   .text.HAL_RCC_GetPCLK1Freq:00000000 HAL_RCC_GetPCLK1Freq
C:\Users\MadeuxS\AppData\Local\Temp\ccJrku7c.s:3284   .text.HAL_RCC_GetPCLK1Freq:00000074 $d
C:\Users\MadeuxS\AppData\Local\Temp\ccJrku7c.s:3299   .text.HAL_RCC_GetPCLK2Freq:00000000 $t
C:\Users\MadeuxS\AppData\Local\Temp\ccJrku7c.s:3307   .text.HAL_RCC_GetPCLK2Freq:00000000 HAL_RCC_GetPCLK2Freq
C:\Users\MadeuxS\AppData\Local\Temp\ccJrku7c.s:3453   .text.HAL_RCC_GetPCLK2Freq:00000074 $d
C:\Users\MadeuxS\AppData\Local\Temp\ccJrku7c.s:3468   .text.HAL_RCC_GetOscConfig:00000000 $t
C:\Users\MadeuxS\AppData\Local\Temp\ccJrku7c.s:3476   .text.HAL_RCC_GetOscConfig:00000000 HAL_RCC_GetOscConfig
C:\Users\MadeuxS\AppData\Local\Temp\ccJrku7c.s:3707   .text.HAL_RCC_GetOscConfig:000000fc $d
C:\Users\MadeuxS\AppData\Local\Temp\ccJrku7c.s:3712   .text.HAL_RCC_GetClockConfig:00000000 $t
C:\Users\MadeuxS\AppData\Local\Temp\ccJrku7c.s:3720   .text.HAL_RCC_GetClockConfig:00000000 HAL_RCC_GetClockConfig
C:\Users\MadeuxS\AppData\Local\Temp\ccJrku7c.s:3807   .text.HAL_RCC_GetClockConfig:00000050 $d
C:\Users\MadeuxS\AppData\Local\Temp\ccJrku7c.s:3813   .text.HAL_RCC_CSSCallback:00000000 $t
C:\Users\MadeuxS\AppData\Local\Temp\ccJrku7c.s:3821   .text.HAL_RCC_CSSCallback:00000000 HAL_RCC_CSSCallback
C:\Users\MadeuxS\AppData\Local\Temp\ccJrku7c.s:3834   .text.HAL_RCC_NMI_IRQHandler:00000000 $t
C:\Users\MadeuxS\AppData\Local\Temp\ccJrku7c.s:3842   .text.HAL_RCC_NMI_IRQHandler:00000000 HAL_RCC_NMI_IRQHandler
C:\Users\MadeuxS\AppData\Local\Temp\ccJrku7c.s:3875   .text.HAL_RCC_NMI_IRQHandler:00000018 $d

UNDEFINED SYMBOLS
HAL_GetTick
HAL_InitTick
uwTickPrio
SystemCoreClock
SystemD2Clock
ARM GAS  C:\Users\MadeuxS\AppData\Local\Temp\ccJrku7c.s 			page 121


HAL_GetREVID
HAL_GPIO_Init
D1CorePrescTable
